
bmguest.axf:     file format elf32-littlearm


Disassembly of section .text:

80000000 <guest_start>:
80000000:	ea0005ce 	b	80001740 <common_guest_entry>

80000004 <main>:
80000004:	e92d4800 	push	{fp, lr}
80000008:	e28db004 	add	fp, sp, #4
8000000c:	e3010bec 	movw	r0, #7148	; 0x1bec
80000010:	e3480000 	movt	r0, #32768	; 0x8000
80000014:	eb000606 	bl	80001834 <uart_print>
80000018:	e3010bf8 	movw	r0, #7160	; 0x1bf8
8000001c:	e3480000 	movt	r0, #32768	; 0x8000
80000020:	eb000603 	bl	80001834 <uart_print>
80000024:	eafffffe 	b	80000024 <main+0x20>

80000028 <nrm_delay>:
80000028:	e52db004 	push	{fp}		; (str fp, [sp, #-4]!)
8000002c:	e28db000 	add	fp, sp, #0
80000030:	e24dd00c 	sub	sp, sp, #12
80000034:	e3a03000 	mov	r3, #0
80000038:	e50b3008 	str	r3, [fp, #-8]
8000003c:	e3a03000 	mov	r3, #0
80000040:	e50b3008 	str	r3, [fp, #-8]
80000044:	ea000002 	b	80000054 <nrm_delay+0x2c>
80000048:	e51b3008 	ldr	r3, [fp, #-8]
8000004c:	e2833001 	add	r3, r3, #1
80000050:	e50b3008 	str	r3, [fp, #-8]
80000054:	e51b2008 	ldr	r2, [fp, #-8]
80000058:	e30f3ffe 	movw	r3, #65534	; 0xfffe
8000005c:	e1520003 	cmp	r2, r3
80000060:	dafffff8 	ble	80000048 <nrm_delay+0x20>
80000064:	e28bd000 	add	sp, fp, #0
80000068:	e8bd0800 	ldmfd	sp!, {fp}
8000006c:	e12fff1e 	bx	lr

80000070 <nrm_loop>:
80000070:	e92d4800 	push	{fp, lr}
80000074:	e28db004 	add	fp, sp, #4
80000078:	e24dd008 	sub	sp, sp, #8
8000007c:	e3a03000 	mov	r3, #0
80000080:	e50b3008 	str	r3, [fp, #-8]
80000084:	eb0005e5 	bl	80001820 <uart_init>
80000088:	e3010c18 	movw	r0, #7192	; 0x1c18
8000008c:	e3480000 	movt	r0, #32768	; 0x8000
80000090:	eb0005e7 	bl	80001834 <uart_print>
80000094:	e3010c24 	movw	r0, #7204	; 0x1c24
80000098:	e3480000 	movt	r0, #32768	; 0x8000
8000009c:	eb0005e4 	bl	80001834 <uart_print>
800000a0:	eb0001d4 	bl	800007f8 <gic_init>
800000a4:	e3a00000 	mov	r0, #0
800000a8:	eb0002d9 	bl	80000c14 <vtimer_mask>
800000ac:	f1080080 	cpsie	i
800000b0:	e3a03000 	mov	r3, #0
800000b4:	e50b3008 	str	r3, [fp, #-8]
800000b8:	ea00002f 	b	8000017c <nrm_loop+0x10c>
800000bc:	e3010c18 	movw	r0, #7192	; 0x1c18
800000c0:	e3480000 	movt	r0, #32768	; 0x8000
800000c4:	eb0005da 	bl	80001834 <uart_print>
800000c8:	e3010c44 	movw	r0, #7236	; 0x1c44
800000cc:	e3480000 	movt	r0, #32768	; 0x8000
800000d0:	eb0005d7 	bl	80001834 <uart_print>
800000d4:	e51b3008 	ldr	r3, [fp, #-8]
800000d8:	e1a00003 	mov	r0, r3
800000dc:	eb0005f8 	bl	800018c4 <uart_print_hex32>
800000e0:	e3010c50 	movw	r0, #7248	; 0x1c50
800000e4:	e3480000 	movt	r0, #32768	; 0x8000
800000e8:	eb0005d1 	bl	80001834 <uart_print>
800000ec:	ebffffcd 	bl	80000028 <nrm_delay>
800000f0:	e51b3008 	ldr	r3, [fp, #-8]
800000f4:	e2033001 	and	r3, r3, #1
800000f8:	e3530000 	cmp	r3, #0
800000fc:	0a00000d 	beq	80000138 <nrm_loop+0xc8>
80000100:	e3010c18 	movw	r0, #7192	; 0x1c18
80000104:	e3480000 	movt	r0, #32768	; 0x8000
80000108:	eb0005c9 	bl	80001834 <uart_print>
8000010c:	e3010c54 	movw	r0, #7252	; 0x1c54
80000110:	e3480000 	movt	r0, #32768	; 0x8000
80000114:	eb0005c6 	bl	80001834 <uart_print>
80000118:	e14fff7e 	hvc	65534	; 0xfffe
8000011c:	e3010c18 	movw	r0, #7192	; 0x1c18
80000120:	e3480000 	movt	r0, #32768	; 0x8000
80000124:	eb0005c2 	bl	80001834 <uart_print>
80000128:	e3010c64 	movw	r0, #7268	; 0x1c64
8000012c:	e3480000 	movt	r0, #32768	; 0x8000
80000130:	eb0005bf 	bl	80001834 <uart_print>
80000134:	ea00000c 	b	8000016c <nrm_loop+0xfc>
80000138:	e3010c18 	movw	r0, #7192	; 0x1c18
8000013c:	e3480000 	movt	r0, #32768	; 0x8000
80000140:	eb0005bb 	bl	80001834 <uart_print>
80000144:	e3010c80 	movw	r0, #7296	; 0x1c80
80000148:	e3480000 	movt	r0, #32768	; 0x8000
8000014c:	eb0005b8 	bl	80001834 <uart_print>
80000150:	e14fff7d 	hvc	65533	; 0xfffd
80000154:	e3010c18 	movw	r0, #7192	; 0x1c18
80000158:	e3480000 	movt	r0, #32768	; 0x8000
8000015c:	eb0005b4 	bl	80001834 <uart_print>
80000160:	e3010c90 	movw	r0, #7312	; 0x1c90
80000164:	e3480000 	movt	r0, #32768	; 0x8000
80000168:	eb0005b1 	bl	80001834 <uart_print>
8000016c:	ebffffad 	bl	80000028 <nrm_delay>
80000170:	e51b3008 	ldr	r3, [fp, #-8]
80000174:	e2833001 	add	r3, r3, #1
80000178:	e50b3008 	str	r3, [fp, #-8]
8000017c:	e51b2008 	ldr	r2, [fp, #-8]
80000180:	e300312b 	movw	r3, #299	; 0x12b
80000184:	e1520003 	cmp	r2, r3
80000188:	daffffcb 	ble	800000bc <nrm_loop+0x4c>
8000018c:	e3010c18 	movw	r0, #7192	; 0x1c18
80000190:	e3480000 	movt	r0, #32768	; 0x8000
80000194:	eb0005a6 	bl	80001834 <uart_print>
80000198:	e3010cb0 	movw	r0, #7344	; 0x1cb0
8000019c:	e3480000 	movt	r0, #32768	; 0x8000
800001a0:	eb0005a3 	bl	80001834 <uart_print>
800001a4:	e3010cc8 	movw	r0, #7368	; 0x1cc8
800001a8:	e3480000 	movt	r0, #32768	; 0x8000
800001ac:	eb0005a0 	bl	80001834 <uart_print>
800001b0:	ebffff93 	bl	80000004 <main>
800001b4:	e24bd004 	sub	sp, fp, #4
800001b8:	e8bd8800 	pop	{fp, pc}

800001bc <_except_unhandled>:
800001bc:	e52db004 	push	{fp}		; (str fp, [sp, #-4]!)
800001c0:	e28db000 	add	fp, sp, #0
800001c4:	e24dd00c 	sub	sp, sp, #12
800001c8:	e50b0008 	str	r0, [fp, #-8]
800001cc:	e28bd000 	add	sp, fp, #0
800001d0:	e8bd0800 	ldmfd	sp!, {fp}
800001d4:	e12fff1e 	bx	lr

800001d8 <_except_svc>:
800001d8:	e52db004 	push	{fp}		; (str fp, [sp, #-4]!)
800001dc:	e28db000 	add	fp, sp, #0
800001e0:	e24dd00c 	sub	sp, sp, #12
800001e4:	e50b0008 	str	r0, [fp, #-8]
800001e8:	e28bd000 	add	sp, fp, #0
800001ec:	e8bd0800 	ldmfd	sp!, {fp}
800001f0:	e12fff1e 	bx	lr

800001f4 <_except_irq>:
800001f4:	e92d4800 	push	{fp, lr}
800001f8:	e28db004 	add	fp, sp, #4
800001fc:	e24dd008 	sub	sp, sp, #8
80000200:	e50b0008 	str	r0, [fp, #-8]
80000204:	e3a00000 	mov	r0, #0
80000208:	e51b1008 	ldr	r1, [fp, #-8]
8000020c:	eb0001cc 	bl	80000944 <gic_interrupt>
80000210:	e24bd004 	sub	sp, fp, #4
80000214:	e8bd8800 	pop	{fp, pc}

80000218 <smp_processor_id>:
80000218:	e92d0810 	push	{r4, fp}
8000021c:	e28db004 	add	fp, sp, #4
80000220:	e24dd008 	sub	sp, sp, #8
80000224:	ee104fb0 	mrc	15, 0, r4, cr0, cr0, {5}
80000228:	e50b4008 	str	r4, [fp, #-8]
8000022c:	e51b3008 	ldr	r3, [fp, #-8]
80000230:	e6ef3073 	uxtb	r3, r3
80000234:	e1a00003 	mov	r0, r3
80000238:	e24bd004 	sub	sp, fp, #4
8000023c:	e8bd0810 	pop	{r4, fp}
80000240:	e12fff1e 	bx	lr

80000244 <gic_test_vdev_access>:
80000244:	e92d4800 	push	{fp, lr}
80000248:	e28db004 	add	fp, sp, #4
8000024c:	e24dd008 	sub	sp, sp, #8
80000250:	e3013e6c 	movw	r3, #7788	; 0x1e6c
80000254:	e3483000 	movt	r3, #32768	; 0x8000
80000258:	e5933004 	ldr	r3, [r3, #4]
8000025c:	e2833f41 	add	r3, r3, #260	; 0x104
80000260:	e3a02002 	mov	r2, #2
80000264:	e5832000 	str	r2, [r3]
80000268:	e3013e6c 	movw	r3, #7788	; 0x1e6c
8000026c:	e3483000 	movt	r3, #32768	; 0x8000
80000270:	e5933004 	ldr	r3, [r3, #4]
80000274:	e2833f61 	add	r3, r3, #388	; 0x184
80000278:	e3a02002 	mov	r2, #2
8000027c:	e5832000 	str	r2, [r3]
80000280:	e3013e6c 	movw	r3, #7788	; 0x1e6c
80000284:	e3483000 	movt	r3, #32768	; 0x8000
80000288:	e5933004 	ldr	r3, [r3, #4]
8000028c:	e2833c01 	add	r3, r3, #256	; 0x100
80000290:	e3a02002 	mov	r2, #2
80000294:	e5832000 	str	r2, [r3]
80000298:	e3013e6c 	movw	r3, #7788	; 0x1e6c
8000029c:	e3483000 	movt	r3, #32768	; 0x8000
800002a0:	e5933004 	ldr	r3, [r3, #4]
800002a4:	e2833d06 	add	r3, r3, #384	; 0x180
800002a8:	e3a02002 	mov	r2, #2
800002ac:	e5832000 	str	r2, [r3]
800002b0:	e3013e6c 	movw	r3, #7788	; 0x1e6c
800002b4:	e3483000 	movt	r3, #32768	; 0x8000
800002b8:	e5933004 	ldr	r3, [r3, #4]
800002bc:	e2833c01 	add	r3, r3, #256	; 0x100
800002c0:	e3a02102 	mov	r2, #-2147483648	; 0x80000000
800002c4:	e5832000 	str	r2, [r3]
800002c8:	e3013e6c 	movw	r3, #7788	; 0x1e6c
800002cc:	e3483000 	movt	r3, #32768	; 0x8000
800002d0:	e5933004 	ldr	r3, [r3, #4]
800002d4:	e2833d06 	add	r3, r3, #384	; 0x180
800002d8:	e3a02102 	mov	r2, #-2147483648	; 0x80000000
800002dc:	e5832000 	str	r2, [r3]
800002e0:	e3013e6c 	movw	r3, #7788	; 0x1e6c
800002e4:	e3483000 	movt	r3, #32768	; 0x8000
800002e8:	e5933004 	ldr	r3, [r3, #4]
800002ec:	e2833c01 	add	r3, r3, #256	; 0x100
800002f0:	e50b3008 	str	r3, [fp, #-8]
800002f4:	e51b3008 	ldr	r3, [fp, #-8]
800002f8:	e2833002 	add	r3, r3, #2
800002fc:	e3a0200f 	mov	r2, #15
80000300:	e5c32000 	strb	r2, [r3]
80000304:	e3013e6c 	movw	r3, #7788	; 0x1e6c
80000308:	e3483000 	movt	r3, #32768	; 0x8000
8000030c:	e5933004 	ldr	r3, [r3, #4]
80000310:	e2833c01 	add	r3, r3, #256	; 0x100
80000314:	e5933000 	ldr	r3, [r3]
80000318:	e1a00003 	mov	r0, r3
8000031c:	eb000568 	bl	800018c4 <uart_print_hex32>
80000320:	e3010d00 	movw	r0, #7424	; 0x1d00
80000324:	e3480000 	movt	r0, #32768	; 0x8000
80000328:	eb000541 	bl	80001834 <uart_print>
8000032c:	e3013e6c 	movw	r3, #7788	; 0x1e6c
80000330:	e3483000 	movt	r3, #32768	; 0x8000
80000334:	e5933004 	ldr	r3, [r3, #4]
80000338:	e2833d06 	add	r3, r3, #384	; 0x180
8000033c:	e50b3008 	str	r3, [fp, #-8]
80000340:	e51b3008 	ldr	r3, [fp, #-8]
80000344:	e2833002 	add	r3, r3, #2
80000348:	e3a0200f 	mov	r2, #15
8000034c:	e5c32000 	strb	r2, [r3]
80000350:	e3013e6c 	movw	r3, #7788	; 0x1e6c
80000354:	e3483000 	movt	r3, #32768	; 0x8000
80000358:	e5933004 	ldr	r3, [r3, #4]
8000035c:	e2833c01 	add	r3, r3, #256	; 0x100
80000360:	e5933000 	ldr	r3, [r3]
80000364:	e1a00003 	mov	r0, r3
80000368:	eb000555 	bl	800018c4 <uart_print_hex32>
8000036c:	e3010d00 	movw	r0, #7424	; 0x1d00
80000370:	e3480000 	movt	r0, #32768	; 0x8000
80000374:	eb00052e 	bl	80001834 <uart_print>
80000378:	e24bd004 	sub	sp, fp, #4
8000037c:	e8bd8800 	pop	{fp, pc}

80000380 <gic_dump_registers>:
80000380:	e92d4810 	push	{r4, fp, lr}
80000384:	e28db008 	add	fp, sp, #8
80000388:	e24dd00c 	sub	sp, sp, #12
8000038c:	ee104f10 	mrc	15, 0, r4, cr0, cr0, {0}
80000390:	e50b4010 	str	r4, [fp, #-16]
80000394:	e51b3010 	ldr	r3, [fp, #-16]
80000398:	e50b3014 	str	r3, [fp, #-20]
8000039c:	e3010d04 	movw	r0, #7428	; 0x1d04
800003a0:	e3480000 	movt	r0, #32768	; 0x8000
800003a4:	eb000522 	bl	80001834 <uart_print>
800003a8:	e51b0014 	ldr	r0, [fp, #-20]
800003ac:	eb000544 	bl	800018c4 <uart_print_hex32>
800003b0:	e3010d00 	movw	r0, #7424	; 0x1d00
800003b4:	e3480000 	movt	r0, #32768	; 0x8000
800003b8:	eb00051d 	bl	80001834 <uart_print>
800003bc:	e51b2014 	ldr	r2, [fp, #-20]
800003c0:	e30f3ff0 	movw	r3, #65520	; 0xfff0
800003c4:	e0023003 	and	r3, r2, r3
800003c8:	e30c20f0 	movw	r2, #49392	; 0xc0f0
800003cc:	e1530002 	cmp	r3, r2
800003d0:	1a00007b 	bne	800005c4 <gic_dump_registers+0x244>
800003d4:	e3010d0c 	movw	r0, #7436	; 0x1d0c
800003d8:	e3480000 	movt	r0, #32768	; 0x8000
800003dc:	eb000514 	bl	80001834 <uart_print>
800003e0:	e3013e6c 	movw	r3, #7788	; 0x1e6c
800003e4:	e3483000 	movt	r3, #32768	; 0x8000
800003e8:	e5933000 	ldr	r3, [r3]
800003ec:	e1a00003 	mov	r0, r3
800003f0:	eb000533 	bl	800018c4 <uart_print_hex32>
800003f4:	e3010d00 	movw	r0, #7424	; 0x1d00
800003f8:	e3480000 	movt	r0, #32768	; 0x8000
800003fc:	eb00050c 	bl	80001834 <uart_print>
80000400:	e3010d1c 	movw	r0, #7452	; 0x1d1c
80000404:	e3480000 	movt	r0, #32768	; 0x8000
80000408:	eb000509 	bl	80001834 <uart_print>
8000040c:	e3013e6c 	movw	r3, #7788	; 0x1e6c
80000410:	e3483000 	movt	r3, #32768	; 0x8000
80000414:	e5933004 	ldr	r3, [r3, #4]
80000418:	e1a00003 	mov	r0, r3
8000041c:	eb000528 	bl	800018c4 <uart_print_hex32>
80000420:	e3010d00 	movw	r0, #7424	; 0x1d00
80000424:	e3480000 	movt	r0, #32768	; 0x8000
80000428:	eb000501 	bl	80001834 <uart_print>
8000042c:	e3010d28 	movw	r0, #7464	; 0x1d28
80000430:	e3480000 	movt	r0, #32768	; 0x8000
80000434:	eb0004fe 	bl	80001834 <uart_print>
80000438:	e3013e6c 	movw	r3, #7788	; 0x1e6c
8000043c:	e3483000 	movt	r3, #32768	; 0x8000
80000440:	e5933004 	ldr	r3, [r3, #4]
80000444:	e2833004 	add	r3, r3, #4
80000448:	e5933000 	ldr	r3, [r3]
8000044c:	e1a00003 	mov	r0, r3
80000450:	eb00051b 	bl	800018c4 <uart_print_hex32>
80000454:	e3010d00 	movw	r0, #7424	; 0x1d00
80000458:	e3480000 	movt	r0, #32768	; 0x8000
8000045c:	eb0004f4 	bl	80001834 <uart_print>
80000460:	e3010d34 	movw	r0, #7476	; 0x1d34
80000464:	e3480000 	movt	r0, #32768	; 0x8000
80000468:	eb0004f1 	bl	80001834 <uart_print>
8000046c:	e3013e6c 	movw	r3, #7788	; 0x1e6c
80000470:	e3483000 	movt	r3, #32768	; 0x8000
80000474:	e5933008 	ldr	r3, [r3, #8]
80000478:	e1a00003 	mov	r0, r3
8000047c:	eb000510 	bl	800018c4 <uart_print_hex32>
80000480:	e3010d00 	movw	r0, #7424	; 0x1d00
80000484:	e3480000 	movt	r0, #32768	; 0x8000
80000488:	eb0004e9 	bl	80001834 <uart_print>
8000048c:	e3010d40 	movw	r0, #7488	; 0x1d40
80000490:	e3480000 	movt	r0, #32768	; 0x8000
80000494:	eb0004e6 	bl	80001834 <uart_print>
80000498:	e3013e6c 	movw	r3, #7788	; 0x1e6c
8000049c:	e3483000 	movt	r3, #32768	; 0x8000
800004a0:	e5933008 	ldr	r3, [r3, #8]
800004a4:	e5933000 	ldr	r3, [r3]
800004a8:	e1a00003 	mov	r0, r3
800004ac:	eb000504 	bl	800018c4 <uart_print_hex32>
800004b0:	e3010d00 	movw	r0, #7424	; 0x1d00
800004b4:	e3480000 	movt	r0, #32768	; 0x8000
800004b8:	eb0004dd 	bl	80001834 <uart_print>
800004bc:	e3010d4c 	movw	r0, #7500	; 0x1d4c
800004c0:	e3480000 	movt	r0, #32768	; 0x8000
800004c4:	eb0004da 	bl	80001834 <uart_print>
800004c8:	e3013e6c 	movw	r3, #7788	; 0x1e6c
800004cc:	e3483000 	movt	r3, #32768	; 0x8000
800004d0:	e5933008 	ldr	r3, [r3, #8]
800004d4:	e2833004 	add	r3, r3, #4
800004d8:	e5933000 	ldr	r3, [r3]
800004dc:	e1a00003 	mov	r0, r3
800004e0:	eb0004f7 	bl	800018c4 <uart_print_hex32>
800004e4:	e3010d00 	movw	r0, #7424	; 0x1d00
800004e8:	e3480000 	movt	r0, #32768	; 0x8000
800004ec:	eb0004d0 	bl	80001834 <uart_print>
800004f0:	e3010d58 	movw	r0, #7512	; 0x1d58
800004f4:	e3480000 	movt	r0, #32768	; 0x8000
800004f8:	eb0004cd 	bl	80001834 <uart_print>
800004fc:	e3013e6c 	movw	r3, #7788	; 0x1e6c
80000500:	e3483000 	movt	r3, #32768	; 0x8000
80000504:	e5933008 	ldr	r3, [r3, #8]
80000508:	e2833008 	add	r3, r3, #8
8000050c:	e5933000 	ldr	r3, [r3]
80000510:	e1a00003 	mov	r0, r3
80000514:	eb0004ea 	bl	800018c4 <uart_print_hex32>
80000518:	e3010d00 	movw	r0, #7424	; 0x1d00
8000051c:	e3480000 	movt	r0, #32768	; 0x8000
80000520:	eb0004c3 	bl	80001834 <uart_print>
80000524:	e3010d64 	movw	r0, #7524	; 0x1d64
80000528:	e3480000 	movt	r0, #32768	; 0x8000
8000052c:	eb0004c0 	bl	80001834 <uart_print>
80000530:	e3013e6c 	movw	r3, #7788	; 0x1e6c
80000534:	e3483000 	movt	r3, #32768	; 0x8000
80000538:	e5933008 	ldr	r3, [r3, #8]
8000053c:	e2833014 	add	r3, r3, #20
80000540:	e5933000 	ldr	r3, [r3]
80000544:	e1a00003 	mov	r0, r3
80000548:	eb0004dd 	bl	800018c4 <uart_print_hex32>
8000054c:	e3010d00 	movw	r0, #7424	; 0x1d00
80000550:	e3480000 	movt	r0, #32768	; 0x8000
80000554:	eb0004b6 	bl	80001834 <uart_print>
80000558:	e3010d70 	movw	r0, #7536	; 0x1d70
8000055c:	e3480000 	movt	r0, #32768	; 0x8000
80000560:	eb0004b3 	bl	80001834 <uart_print>
80000564:	e3013e6c 	movw	r3, #7788	; 0x1e6c
80000568:	e3483000 	movt	r3, #32768	; 0x8000
8000056c:	e5933008 	ldr	r3, [r3, #8]
80000570:	e2833018 	add	r3, r3, #24
80000574:	e5933000 	ldr	r3, [r3]
80000578:	e1a00003 	mov	r0, r3
8000057c:	eb0004d0 	bl	800018c4 <uart_print_hex32>
80000580:	e3010d00 	movw	r0, #7424	; 0x1d00
80000584:	e3480000 	movt	r0, #32768	; 0x8000
80000588:	eb0004a9 	bl	80001834 <uart_print>
8000058c:	e3010d7c 	movw	r0, #7548	; 0x1d7c
80000590:	e3480000 	movt	r0, #32768	; 0x8000
80000594:	eb0004a6 	bl	80001834 <uart_print>
80000598:	e3013e6c 	movw	r3, #7788	; 0x1e6c
8000059c:	e3483000 	movt	r3, #32768	; 0x8000
800005a0:	e5933008 	ldr	r3, [r3, #8]
800005a4:	e28330fc 	add	r3, r3, #252	; 0xfc
800005a8:	e5933000 	ldr	r3, [r3]
800005ac:	e1a00003 	mov	r0, r3
800005b0:	eb0004c3 	bl	800018c4 <uart_print_hex32>
800005b4:	e3010d00 	movw	r0, #7424	; 0x1d00
800005b8:	e3480000 	movt	r0, #32768	; 0x8000
800005bc:	eb00049c 	bl	80001834 <uart_print>
800005c0:	ebffff1f 	bl	80000244 <gic_test_vdev_access>
800005c4:	e24bd008 	sub	sp, fp, #8
800005c8:	e8bd8810 	pop	{r4, fp, pc}

800005cc <gic_init_baseaddr>:
800005cc:	e92d4810 	push	{r4, fp, lr}
800005d0:	e28db008 	add	fp, sp, #8
800005d4:	e24dd01c 	sub	sp, sp, #28
800005d8:	e50b0020 	str	r0, [fp, #-32]
800005dc:	e3e03000 	mvn	r3, #0
800005e0:	e50b3010 	str	r3, [fp, #-16]
800005e4:	ee104f10 	mrc	15, 0, r4, cr0, cr0, {0}
800005e8:	e50b4014 	str	r4, [fp, #-20]
800005ec:	e51b3014 	ldr	r3, [fp, #-20]
800005f0:	e50b3018 	str	r3, [fp, #-24]
800005f4:	e3010d04 	movw	r0, #7428	; 0x1d04
800005f8:	e3480000 	movt	r0, #32768	; 0x8000
800005fc:	eb00048c 	bl	80001834 <uart_print>
80000600:	e51b0018 	ldr	r0, [fp, #-24]
80000604:	eb0004ae 	bl	800018c4 <uart_print_hex32>
80000608:	e3010d00 	movw	r0, #7424	; 0x1d00
8000060c:	e3480000 	movt	r0, #32768	; 0x8000
80000610:	eb000487 	bl	80001834 <uart_print>
80000614:	e51b2018 	ldr	r2, [fp, #-24]
80000618:	e30f3ff0 	movw	r3, #65520	; 0xfff0
8000061c:	e0023003 	and	r3, r2, r3
80000620:	e30c20f0 	movw	r2, #49392	; 0xc0f0
80000624:	e1530002 	cmp	r3, r2
80000628:	1a000016 	bne	80000688 <gic_init_baseaddr+0xbc>
8000062c:	e51b2020 	ldr	r2, [fp, #-32]
80000630:	e3013e6c 	movw	r3, #7788	; 0x1e6c
80000634:	e3483000 	movt	r3, #32768	; 0x8000
80000638:	e5832000 	str	r2, [r3]
8000063c:	e3013e6c 	movw	r3, #7788	; 0x1e6c
80000640:	e3483000 	movt	r3, #32768	; 0x8000
80000644:	e5933000 	ldr	r3, [r3]
80000648:	e2833a01 	add	r3, r3, #4096	; 0x1000
8000064c:	e1a02003 	mov	r2, r3
80000650:	e3013e6c 	movw	r3, #7788	; 0x1e6c
80000654:	e3483000 	movt	r3, #32768	; 0x8000
80000658:	e5832004 	str	r2, [r3, #4]
8000065c:	e3013e6c 	movw	r3, #7788	; 0x1e6c
80000660:	e3483000 	movt	r3, #32768	; 0x8000
80000664:	e5933000 	ldr	r3, [r3]
80000668:	e2833a02 	add	r3, r3, #8192	; 0x2000
8000066c:	e1a02003 	mov	r2, r3
80000670:	e3013e6c 	movw	r3, #7788	; 0x1e6c
80000674:	e3483000 	movt	r3, #32768	; 0x8000
80000678:	e5832008 	str	r2, [r3, #8]
8000067c:	e3a03000 	mov	r3, #0
80000680:	e50b3010 	str	r3, [fp, #-16]
80000684:	ea00000f 	b	800006c8 <gic_init_baseaddr+0xfc>
80000688:	e3010d88 	movw	r0, #7560	; 0x1d88
8000068c:	e3480000 	movt	r0, #32768	; 0x8000
80000690:	eb000467 	bl	80001834 <uart_print>
80000694:	e3010d9c 	movw	r0, #7580	; 0x1d9c
80000698:	e3480000 	movt	r0, #32768	; 0x8000
8000069c:	eb000464 	bl	80001834 <uart_print>
800006a0:	e51b2018 	ldr	r2, [fp, #-24]
800006a4:	e30f3ff0 	movw	r3, #65520	; 0xfff0
800006a8:	e0023003 	and	r3, r2, r3
800006ac:	e1a00003 	mov	r0, r3
800006b0:	eb000483 	bl	800018c4 <uart_print_hex32>
800006b4:	e3010d00 	movw	r0, #7424	; 0x1d00
800006b8:	e3480000 	movt	r0, #32768	; 0x8000
800006bc:	eb00045c 	bl	80001834 <uart_print>
800006c0:	e3e03001 	mvn	r3, #1
800006c4:	e50b3010 	str	r3, [fp, #-16]
800006c8:	e51b3010 	ldr	r3, [fp, #-16]
800006cc:	e1a00003 	mov	r0, r3
800006d0:	e24bd008 	sub	sp, fp, #8
800006d4:	e8bd8810 	pop	{r4, fp, pc}

800006d8 <gic_enable_irq>:
800006d8:	e52db004 	push	{fp}		; (str fp, [sp, #-4]!)
800006dc:	e28db000 	add	fp, sp, #0
800006e0:	e24dd00c 	sub	sp, sp, #12
800006e4:	e50b0008 	str	r0, [fp, #-8]
800006e8:	e3013e6c 	movw	r3, #7788	; 0x1e6c
800006ec:	e3483000 	movt	r3, #32768	; 0x8000
800006f0:	e5932004 	ldr	r2, [r3, #4]
800006f4:	e51b3008 	ldr	r3, [fp, #-8]
800006f8:	e1a032a3 	lsr	r3, r3, #5
800006fc:	e2833040 	add	r3, r3, #64	; 0x40
80000700:	e1a03103 	lsl	r3, r3, #2
80000704:	e0823003 	add	r3, r2, r3
80000708:	e51b2008 	ldr	r2, [fp, #-8]
8000070c:	e202201f 	and	r2, r2, #31
80000710:	e3a01001 	mov	r1, #1
80000714:	e1a02211 	lsl	r2, r1, r2
80000718:	e5832000 	str	r2, [r3]
8000071c:	e3a03000 	mov	r3, #0
80000720:	e1a00003 	mov	r0, r3
80000724:	e28bd000 	add	sp, fp, #0
80000728:	e8bd0800 	ldmfd	sp!, {fp}
8000072c:	e12fff1e 	bx	lr

80000730 <gic_disable_irq>:
80000730:	e52db004 	push	{fp}		; (str fp, [sp, #-4]!)
80000734:	e28db000 	add	fp, sp, #0
80000738:	e24dd00c 	sub	sp, sp, #12
8000073c:	e50b0008 	str	r0, [fp, #-8]
80000740:	e3013e6c 	movw	r3, #7788	; 0x1e6c
80000744:	e3483000 	movt	r3, #32768	; 0x8000
80000748:	e5932004 	ldr	r2, [r3, #4]
8000074c:	e51b3008 	ldr	r3, [fp, #-8]
80000750:	e1a032a3 	lsr	r3, r3, #5
80000754:	e2833060 	add	r3, r3, #96	; 0x60
80000758:	e1a03103 	lsl	r3, r3, #2
8000075c:	e0823003 	add	r3, r2, r3
80000760:	e51b2008 	ldr	r2, [fp, #-8]
80000764:	e202201f 	and	r2, r2, #31
80000768:	e3a01001 	mov	r1, #1
8000076c:	e1a02211 	lsl	r2, r1, r2
80000770:	e5832000 	str	r2, [r3]
80000774:	e3a03000 	mov	r3, #0
80000778:	e1a00003 	mov	r0, r3
8000077c:	e28bd000 	add	sp, fp, #0
80000780:	e8bd0800 	ldmfd	sp!, {fp}
80000784:	e12fff1e 	bx	lr

80000788 <gic_set_irq_handler>:
80000788:	e52db004 	push	{fp}		; (str fp, [sp, #-4]!)
8000078c:	e28db000 	add	fp, sp, #0
80000790:	e24dd01c 	sub	sp, sp, #28
80000794:	e50b0010 	str	r0, [fp, #-16]
80000798:	e50b1014 	str	r1, [fp, #-20]
8000079c:	e50b2018 	str	r2, [fp, #-24]
800007a0:	e3e03002 	mvn	r3, #2
800007a4:	e50b3008 	str	r3, [fp, #-8]
800007a8:	e51b3010 	ldr	r3, [fp, #-16]
800007ac:	e3530065 	cmp	r3, #101	; 0x65
800007b0:	ca00000b 	bgt	800007e4 <gic_set_irq_handler+0x5c>
800007b4:	e3013e6c 	movw	r3, #7788	; 0x1e6c
800007b8:	e3483000 	movt	r3, #32768	; 0x8000
800007bc:	e51b2010 	ldr	r2, [fp, #-16]
800007c0:	e2821004 	add	r1, r2, #4
800007c4:	e3a02004 	mov	r2, #4
800007c8:	e1a01101 	lsl	r1, r1, #2
800007cc:	e0833001 	add	r3, r3, r1
800007d0:	e0833002 	add	r3, r3, r2
800007d4:	e51b2014 	ldr	r2, [fp, #-20]
800007d8:	e5832000 	str	r2, [r3]
800007dc:	e3a03000 	mov	r3, #0
800007e0:	e50b3008 	str	r3, [fp, #-8]
800007e4:	e51b3008 	ldr	r3, [fp, #-8]
800007e8:	e1a00003 	mov	r0, r3
800007ec:	e28bd000 	add	sp, fp, #0
800007f0:	e8bd0800 	ldmfd	sp!, {fp}
800007f4:	e12fff1e 	bx	lr

800007f8 <gic_init>:
800007f8:	e92d4800 	push	{fp, lr}
800007fc:	e28db004 	add	fp, sp, #4
80000800:	e24dd008 	sub	sp, sp, #8
80000804:	e3e03000 	mvn	r3, #0
80000808:	e50b300c 	str	r3, [fp, #-12]
8000080c:	e3a03000 	mov	r3, #0
80000810:	e50b3008 	str	r3, [fp, #-8]
80000814:	ea00000c 	b	8000084c <gic_init+0x54>
80000818:	e3013e6c 	movw	r3, #7788	; 0x1e6c
8000081c:	e3483000 	movt	r3, #32768	; 0x8000
80000820:	e51b2008 	ldr	r2, [fp, #-8]
80000824:	e2821004 	add	r1, r2, #4
80000828:	e3a02004 	mov	r2, #4
8000082c:	e1a01101 	lsl	r1, r1, #2
80000830:	e0833001 	add	r3, r3, r1
80000834:	e0833002 	add	r3, r3, r2
80000838:	e3a02000 	mov	r2, #0
8000083c:	e5832000 	str	r2, [r3]
80000840:	e51b3008 	ldr	r3, [fp, #-8]
80000844:	e2833001 	add	r3, r3, #1
80000848:	e50b3008 	str	r3, [fp, #-8]
8000084c:	e51b3008 	ldr	r3, [fp, #-8]
80000850:	e3530065 	cmp	r3, #101	; 0x65
80000854:	daffffef 	ble	80000818 <gic_init+0x20>
80000858:	e3a0030b 	mov	r0, #738197504	; 0x2c000000
8000085c:	ebffff5a 	bl	800005cc <gic_init_baseaddr>
80000860:	e50b000c 	str	r0, [fp, #-12]
80000864:	e3013e6c 	movw	r3, #7788	; 0x1e6c
80000868:	e3483000 	movt	r3, #32768	; 0x8000
8000086c:	e5932008 	ldr	r2, [r3, #8]
80000870:	e3013e6c 	movw	r3, #7788	; 0x1e6c
80000874:	e3483000 	movt	r3, #32768	; 0x8000
80000878:	e5933008 	ldr	r3, [r3, #8]
8000087c:	e5933000 	ldr	r3, [r3]
80000880:	e3833e21 	orr	r3, r3, #528	; 0x210
80000884:	e3833003 	orr	r3, r3, #3
80000888:	e5823000 	str	r3, [r2]
8000088c:	e3013e6c 	movw	r3, #7788	; 0x1e6c
80000890:	e3483000 	movt	r3, #32768	; 0x8000
80000894:	e5933008 	ldr	r3, [r3, #8]
80000898:	e2833004 	add	r3, r3, #4
8000089c:	e3a020ff 	mov	r2, #255	; 0xff
800008a0:	e5832000 	str	r2, [r3]
800008a4:	e51b300c 	ldr	r3, [fp, #-12]
800008a8:	e3530000 	cmp	r3, #0
800008ac:	1a000000 	bne	800008b4 <gic_init+0xbc>
800008b0:	ebfffeb2 	bl	80000380 <gic_dump_registers>
800008b4:	e3013e6c 	movw	r3, #7788	; 0x1e6c
800008b8:	e3483000 	movt	r3, #32768	; 0x8000
800008bc:	e30023fe 	movw	r2, #1022	; 0x3fe
800008c0:	e583200c 	str	r2, [r3, #12]
800008c4:	e3a03000 	mov	r3, #0
800008c8:	e50b300c 	str	r3, [fp, #-12]
800008cc:	e51b300c 	ldr	r3, [fp, #-12]
800008d0:	e3530000 	cmp	r3, #0
800008d4:	1a000004 	bne	800008ec <gic_init+0xf4>
800008d8:	e3013e6c 	movw	r3, #7788	; 0x1e6c
800008dc:	e3483000 	movt	r3, #32768	; 0x8000
800008e0:	e30e2ad7 	movw	r2, #60119	; 0xead7
800008e4:	e3452108 	movt	r2, #20744	; 0x5108
800008e8:	e58321ac 	str	r2, [r3, #428]	; 0x1ac
800008ec:	e3a03000 	mov	r3, #0
800008f0:	e50b3008 	str	r3, [fp, #-8]
800008f4:	ea00000b 	b	80000928 <gic_init+0x130>
800008f8:	e3013e6c 	movw	r3, #7788	; 0x1e6c
800008fc:	e3483000 	movt	r3, #32768	; 0x8000
80000900:	e5932004 	ldr	r2, [r3, #4]
80000904:	e51b3008 	ldr	r3, [fp, #-8]
80000908:	e2833060 	add	r3, r3, #96	; 0x60
8000090c:	e1a03103 	lsl	r3, r3, #2
80000910:	e0823003 	add	r3, r2, r3
80000914:	e3e02000 	mvn	r2, #0
80000918:	e5832000 	str	r2, [r3]
8000091c:	e51b3008 	ldr	r3, [fp, #-8]
80000920:	e2833001 	add	r3, r3, #1
80000924:	e50b3008 	str	r3, [fp, #-8]
80000928:	e51b3008 	ldr	r3, [fp, #-8]
8000092c:	e3530003 	cmp	r3, #3
80000930:	dafffff0 	ble	800008f8 <gic_init+0x100>
80000934:	e51b300c 	ldr	r3, [fp, #-12]
80000938:	e1a00003 	mov	r0, r3
8000093c:	e24bd004 	sub	sp, fp, #4
80000940:	e8bd8800 	pop	{fp, pc}

80000944 <gic_interrupt>:
80000944:	e92d4800 	push	{fp, lr}
80000948:	e28db004 	add	fp, sp, #4
8000094c:	e24dd018 	sub	sp, sp, #24
80000950:	e50b0018 	str	r0, [fp, #-24]
80000954:	e50b101c 	str	r1, [fp, #-28]
80000958:	e51b301c 	ldr	r3, [fp, #-28]
8000095c:	e50b3008 	str	r3, [fp, #-8]
80000960:	ebfffe2c 	bl	80000218 <smp_processor_id>
80000964:	e50b000c 	str	r0, [fp, #-12]
80000968:	e3013e6c 	movw	r3, #7788	; 0x1e6c
8000096c:	e3483000 	movt	r3, #32768	; 0x8000
80000970:	e5933008 	ldr	r3, [r3, #8]
80000974:	e593300c 	ldr	r3, [r3, #12]
80000978:	e50b3010 	str	r3, [fp, #-16]
8000097c:	e51b3010 	ldr	r3, [fp, #-16]
80000980:	e7e93053 	ubfx	r3, r3, #0, #10
80000984:	e50b3014 	str	r3, [fp, #-20]
80000988:	e3013e6c 	movw	r3, #7788	; 0x1e6c
8000098c:	e3483000 	movt	r3, #32768	; 0x8000
80000990:	e593200c 	ldr	r2, [r3, #12]
80000994:	e51b3014 	ldr	r3, [fp, #-20]
80000998:	e1520003 	cmp	r2, r3
8000099c:	9a00003d 	bls	80000a98 <gic_interrupt+0x154>
800009a0:	e51b3014 	ldr	r3, [fp, #-20]
800009a4:	e3530000 	cmp	r3, #0
800009a8:	1a000015 	bne	80000a04 <gic_interrupt+0xc0>
800009ac:	e3010d1c 	movw	r0, #7452	; 0x1d1c
800009b0:	e3480000 	movt	r0, #32768	; 0x8000
800009b4:	eb00039e 	bl	80001834 <uart_print>
800009b8:	e3013e6c 	movw	r3, #7788	; 0x1e6c
800009bc:	e3483000 	movt	r3, #32768	; 0x8000
800009c0:	e5933004 	ldr	r3, [r3, #4]
800009c4:	e1a00003 	mov	r0, r3
800009c8:	eb0003bd 	bl	800018c4 <uart_print_hex32>
800009cc:	e3010d00 	movw	r0, #7424	; 0x1d00
800009d0:	e3480000 	movt	r0, #32768	; 0x8000
800009d4:	eb000396 	bl	80001834 <uart_print>
800009d8:	e3010d34 	movw	r0, #7476	; 0x1d34
800009dc:	e3480000 	movt	r0, #32768	; 0x8000
800009e0:	eb000393 	bl	80001834 <uart_print>
800009e4:	e3013e6c 	movw	r3, #7788	; 0x1e6c
800009e8:	e3483000 	movt	r3, #32768	; 0x8000
800009ec:	e5933008 	ldr	r3, [r3, #8]
800009f0:	e1a00003 	mov	r0, r3
800009f4:	eb0003b2 	bl	800018c4 <uart_print_hex32>
800009f8:	e3010d00 	movw	r0, #7424	; 0x1d00
800009fc:	e3480000 	movt	r0, #32768	; 0x8000
80000a00:	eb00038b 	bl	80001834 <uart_print>
80000a04:	e3013e6c 	movw	r3, #7788	; 0x1e6c
80000a08:	e3483000 	movt	r3, #32768	; 0x8000
80000a0c:	e51b2014 	ldr	r2, [fp, #-20]
80000a10:	e2821004 	add	r1, r2, #4
80000a14:	e3a02004 	mov	r2, #4
80000a18:	e1a01101 	lsl	r1, r1, #2
80000a1c:	e0833001 	add	r3, r3, r1
80000a20:	e0833002 	add	r3, r3, r2
80000a24:	e5933000 	ldr	r3, [r3]
80000a28:	e3530000 	cmp	r3, #0
80000a2c:	0a00000d 	beq	80000a68 <gic_interrupt+0x124>
80000a30:	e3013e6c 	movw	r3, #7788	; 0x1e6c
80000a34:	e3483000 	movt	r3, #32768	; 0x8000
80000a38:	e51b2014 	ldr	r2, [fp, #-20]
80000a3c:	e2821004 	add	r1, r2, #4
80000a40:	e3a02004 	mov	r2, #4
80000a44:	e1a01101 	lsl	r1, r1, #2
80000a48:	e0833001 	add	r3, r3, r1
80000a4c:	e0833002 	add	r3, r3, r2
80000a50:	e5933000 	ldr	r3, [r3]
80000a54:	e51b2014 	ldr	r2, [fp, #-20]
80000a58:	e1a00002 	mov	r0, r2
80000a5c:	e51b1008 	ldr	r1, [fp, #-8]
80000a60:	e3a02000 	mov	r2, #0
80000a64:	e12fff33 	blx	r3
80000a68:	e3013e6c 	movw	r3, #7788	; 0x1e6c
80000a6c:	e3483000 	movt	r3, #32768	; 0x8000
80000a70:	e5933008 	ldr	r3, [r3, #8]
80000a74:	e2833010 	add	r3, r3, #16
80000a78:	e51b2014 	ldr	r2, [fp, #-20]
80000a7c:	e5832000 	str	r2, [r3]
80000a80:	e3013e6c 	movw	r3, #7788	; 0x1e6c
80000a84:	e3483000 	movt	r3, #32768	; 0x8000
80000a88:	e5933008 	ldr	r3, [r3, #8]
80000a8c:	e2833a01 	add	r3, r3, #4096	; 0x1000
80000a90:	e51b2014 	ldr	r2, [fp, #-20]
80000a94:	e5832000 	str	r2, [r3]
80000a98:	e24bd004 	sub	sp, fp, #4
80000a9c:	e8bd8800 	pop	{fp, pc}

80000aa0 <test_vdev_sample>:
80000aa0:	e92d4800 	push	{fp, lr}
80000aa4:	e28db004 	add	fp, sp, #4
80000aa8:	e24dd020 	sub	sp, sp, #32
80000aac:	e3a03a0f 	mov	r3, #61440	; 0xf000
80000ab0:	e3433fff 	movt	r3, #16383	; 0x3fff
80000ab4:	e50b300c 	str	r3, [fp, #-12]
80000ab8:	e51b300c 	ldr	r3, [fp, #-12]
80000abc:	e50b3010 	str	r3, [fp, #-16]
80000ac0:	e51b300c 	ldr	r3, [fp, #-12]
80000ac4:	e2833004 	add	r3, r3, #4
80000ac8:	e50b3014 	str	r3, [fp, #-20]
80000acc:	e51b300c 	ldr	r3, [fp, #-12]
80000ad0:	e2833008 	add	r3, r3, #8
80000ad4:	e50b3018 	str	r3, [fp, #-24]
80000ad8:	e3010da8 	movw	r0, #7592	; 0x1da8
80000adc:	e3480000 	movt	r0, #32768	; 0x8000
80000ae0:	eb000353 	bl	80001834 <uart_print>
80000ae4:	e51b300c 	ldr	r3, [fp, #-12]
80000ae8:	e1a00003 	mov	r0, r3
80000aec:	eb000374 	bl	800018c4 <uart_print_hex32>
80000af0:	e3010dd0 	movw	r0, #7632	; 0x1dd0
80000af4:	e3480000 	movt	r0, #32768	; 0x8000
80000af8:	eb00034d 	bl	80001834 <uart_print>
80000afc:	e3a03000 	mov	r3, #0
80000b00:	e50b3008 	str	r3, [fp, #-8]
80000b04:	ea00003a 	b	80000bf4 <test_vdev_sample+0x154>
80000b08:	e51b3008 	ldr	r3, [fp, #-8]
80000b0c:	e2833001 	add	r3, r3, #1
80000b10:	e1a03083 	lsl	r3, r3, #1
80000b14:	e50b301c 	str	r3, [fp, #-28]
80000b18:	e51b3008 	ldr	r3, [fp, #-8]
80000b1c:	e2832001 	add	r2, r3, #1
80000b20:	e1a03002 	mov	r3, r2
80000b24:	e1a03083 	lsl	r3, r3, #1
80000b28:	e0833002 	add	r3, r3, r2
80000b2c:	e50b3020 	str	r3, [fp, #-32]
80000b30:	e3010dd4 	movw	r0, #7636	; 0x1dd4
80000b34:	e3480000 	movt	r0, #32768	; 0x8000
80000b38:	eb00033d 	bl	80001834 <uart_print>
80000b3c:	e51b301c 	ldr	r3, [fp, #-28]
80000b40:	e1a00003 	mov	r0, r3
80000b44:	eb00035e 	bl	800018c4 <uart_print_hex32>
80000b48:	e3010dd8 	movw	r0, #7640	; 0x1dd8
80000b4c:	e3480000 	movt	r0, #32768	; 0x8000
80000b50:	eb000337 	bl	80001834 <uart_print>
80000b54:	e51b3020 	ldr	r3, [fp, #-32]
80000b58:	e1a00003 	mov	r0, r3
80000b5c:	eb000358 	bl	800018c4 <uart_print_hex32>
80000b60:	e3010de0 	movw	r0, #7648	; 0x1de0
80000b64:	e3480000 	movt	r0, #32768	; 0x8000
80000b68:	eb000331 	bl	80001834 <uart_print>
80000b6c:	e51b201c 	ldr	r2, [fp, #-28]
80000b70:	e51b3010 	ldr	r3, [fp, #-16]
80000b74:	e5832000 	str	r2, [r3]
80000b78:	e51b2020 	ldr	r2, [fp, #-32]
80000b7c:	e51b3014 	ldr	r3, [fp, #-20]
80000b80:	e5832000 	str	r2, [r3]
80000b84:	e51b3018 	ldr	r3, [fp, #-24]
80000b88:	e5933000 	ldr	r3, [r3]
80000b8c:	e50b3024 	str	r3, [fp, #-36]	; 0x24
80000b90:	e3010de4 	movw	r0, #7652	; 0x1de4
80000b94:	e3480000 	movt	r0, #32768	; 0x8000
80000b98:	eb000325 	bl	80001834 <uart_print>
80000b9c:	e51b3024 	ldr	r3, [fp, #-36]	; 0x24
80000ba0:	e1a00003 	mov	r0, r3
80000ba4:	eb000346 	bl	800018c4 <uart_print_hex32>
80000ba8:	e51b201c 	ldr	r2, [fp, #-28]
80000bac:	e51b3020 	ldr	r3, [fp, #-32]
80000bb0:	e0822003 	add	r2, r2, r3
80000bb4:	e51b3024 	ldr	r3, [fp, #-36]	; 0x24
80000bb8:	e1520003 	cmp	r2, r3
80000bbc:	1a000003 	bne	80000bd0 <test_vdev_sample+0x130>
80000bc0:	e3010df0 	movw	r0, #7664	; 0x1df0
80000bc4:	e3480000 	movt	r0, #32768	; 0x8000
80000bc8:	eb000319 	bl	80001834 <uart_print>
80000bcc:	ea000002 	b	80000bdc <test_vdev_sample+0x13c>
80000bd0:	e3010df8 	movw	r0, #7672	; 0x1df8
80000bd4:	e3480000 	movt	r0, #32768	; 0x8000
80000bd8:	eb000315 	bl	80001834 <uart_print>
80000bdc:	e3010dd0 	movw	r0, #7632	; 0x1dd0
80000be0:	e3480000 	movt	r0, #32768	; 0x8000
80000be4:	eb000312 	bl	80001834 <uart_print>
80000be8:	e51b3008 	ldr	r3, [fp, #-8]
80000bec:	e2833001 	add	r3, r3, #1
80000bf0:	e50b3008 	str	r3, [fp, #-8]
80000bf4:	e51b3008 	ldr	r3, [fp, #-8]
80000bf8:	e3530009 	cmp	r3, #9
80000bfc:	daffffc1 	ble	80000b08 <test_vdev_sample+0x68>
80000c00:	e3010e04 	movw	r0, #7684	; 0x1e04
80000c04:	e3480000 	movt	r0, #32768	; 0x8000
80000c08:	eb000309 	bl	80001834 <uart_print>
80000c0c:	e24bd004 	sub	sp, fp, #4
80000c10:	e8bd8800 	pop	{fp, pc}

80000c14 <vtimer_mask>:
80000c14:	e52db004 	push	{fp}		; (str fp, [sp, #-4]!)
80000c18:	e28db000 	add	fp, sp, #0
80000c1c:	e24dd00c 	sub	sp, sp, #12
80000c20:	e50b0008 	str	r0, [fp, #-8]
80000c24:	e3013e68 	movw	r3, #7784	; 0x1e68
80000c28:	e3483000 	movt	r3, #32768	; 0x8000
80000c2c:	e5933000 	ldr	r3, [r3]
80000c30:	e51b2008 	ldr	r2, [fp, #-8]
80000c34:	e5832000 	str	r2, [r3]
80000c38:	e28bd000 	add	sp, fp, #0
80000c3c:	e8bd0800 	ldmfd	sp!, {fp}
80000c40:	e12fff1e 	bx	lr

80000c44 <__memmove_down>:
80000c44:	e52db004 	push	{fp}		; (str fp, [sp, #-4]!)
80000c48:	e28db000 	add	fp, sp, #0
80000c4c:	e24dd01c 	sub	sp, sp, #28
80000c50:	e50b0010 	str	r0, [fp, #-16]
80000c54:	e50b1014 	str	r1, [fp, #-20]
80000c58:	e50b2018 	str	r2, [fp, #-24]
80000c5c:	e51b3010 	ldr	r3, [fp, #-16]
80000c60:	e50b3008 	str	r3, [fp, #-8]
80000c64:	e51b3014 	ldr	r3, [fp, #-20]
80000c68:	e50b300c 	str	r3, [fp, #-12]
80000c6c:	ea000009 	b	80000c98 <__memmove_down+0x54>
80000c70:	e51b300c 	ldr	r3, [fp, #-12]
80000c74:	e5d32000 	ldrb	r2, [r3]
80000c78:	e51b3008 	ldr	r3, [fp, #-8]
80000c7c:	e5c32000 	strb	r2, [r3]
80000c80:	e51b3008 	ldr	r3, [fp, #-8]
80000c84:	e2833001 	add	r3, r3, #1
80000c88:	e50b3008 	str	r3, [fp, #-8]
80000c8c:	e51b300c 	ldr	r3, [fp, #-12]
80000c90:	e2833001 	add	r3, r3, #1
80000c94:	e50b300c 	str	r3, [fp, #-12]
80000c98:	e51b3018 	ldr	r3, [fp, #-24]
80000c9c:	e3530000 	cmp	r3, #0
80000ca0:	03a03000 	moveq	r3, #0
80000ca4:	13a03001 	movne	r3, #1
80000ca8:	e6ef3073 	uxtb	r3, r3
80000cac:	e51b2018 	ldr	r2, [fp, #-24]
80000cb0:	e2422001 	sub	r2, r2, #1
80000cb4:	e50b2018 	str	r2, [fp, #-24]
80000cb8:	e3530000 	cmp	r3, #0
80000cbc:	1affffeb 	bne	80000c70 <__memmove_down+0x2c>
80000cc0:	e51b3010 	ldr	r3, [fp, #-16]
80000cc4:	e1a00003 	mov	r0, r3
80000cc8:	e28bd000 	add	sp, fp, #0
80000ccc:	e8bd0800 	ldmfd	sp!, {fp}
80000cd0:	e12fff1e 	bx	lr

80000cd4 <__memmove_up>:
80000cd4:	e52db004 	push	{fp}		; (str fp, [sp, #-4]!)
80000cd8:	e28db000 	add	fp, sp, #0
80000cdc:	e24dd01c 	sub	sp, sp, #28
80000ce0:	e50b0010 	str	r0, [fp, #-16]
80000ce4:	e50b1014 	str	r1, [fp, #-20]
80000ce8:	e50b2018 	str	r2, [fp, #-24]
80000cec:	e51b3018 	ldr	r3, [fp, #-24]
80000cf0:	e2433001 	sub	r3, r3, #1
80000cf4:	e51b2010 	ldr	r2, [fp, #-16]
80000cf8:	e0823003 	add	r3, r2, r3
80000cfc:	e50b3008 	str	r3, [fp, #-8]
80000d00:	e51b3018 	ldr	r3, [fp, #-24]
80000d04:	e2433001 	sub	r3, r3, #1
80000d08:	e51b2014 	ldr	r2, [fp, #-20]
80000d0c:	e0823003 	add	r3, r2, r3
80000d10:	e50b300c 	str	r3, [fp, #-12]
80000d14:	ea000009 	b	80000d40 <__memmove_up+0x6c>
80000d18:	e51b300c 	ldr	r3, [fp, #-12]
80000d1c:	e5d32000 	ldrb	r2, [r3]
80000d20:	e51b3008 	ldr	r3, [fp, #-8]
80000d24:	e5c32000 	strb	r2, [r3]
80000d28:	e51b3008 	ldr	r3, [fp, #-8]
80000d2c:	e2433001 	sub	r3, r3, #1
80000d30:	e50b3008 	str	r3, [fp, #-8]
80000d34:	e51b300c 	ldr	r3, [fp, #-12]
80000d38:	e2433001 	sub	r3, r3, #1
80000d3c:	e50b300c 	str	r3, [fp, #-12]
80000d40:	e51b3018 	ldr	r3, [fp, #-24]
80000d44:	e3530000 	cmp	r3, #0
80000d48:	03a03000 	moveq	r3, #0
80000d4c:	13a03001 	movne	r3, #1
80000d50:	e6ef3073 	uxtb	r3, r3
80000d54:	e51b2018 	ldr	r2, [fp, #-24]
80000d58:	e2422001 	sub	r2, r2, #1
80000d5c:	e50b2018 	str	r2, [fp, #-24]
80000d60:	e3530000 	cmp	r3, #0
80000d64:	1affffeb 	bne	80000d18 <__memmove_up+0x44>
80000d68:	e51b3010 	ldr	r3, [fp, #-16]
80000d6c:	e1a00003 	mov	r0, r3
80000d70:	e28bd000 	add	sp, fp, #0
80000d74:	e8bd0800 	ldmfd	sp!, {fp}
80000d78:	e12fff1e 	bx	lr

80000d7c <memcpy>:
80000d7c:	e92d4800 	push	{fp, lr}
80000d80:	e28db004 	add	fp, sp, #4
80000d84:	e24dd010 	sub	sp, sp, #16
80000d88:	e50b0008 	str	r0, [fp, #-8]
80000d8c:	e50b100c 	str	r1, [fp, #-12]
80000d90:	e50b2010 	str	r2, [fp, #-16]
80000d94:	e51b0008 	ldr	r0, [fp, #-8]
80000d98:	e51b100c 	ldr	r1, [fp, #-12]
80000d9c:	e51b2010 	ldr	r2, [fp, #-16]
80000da0:	ebffffa7 	bl	80000c44 <__memmove_down>
80000da4:	e1a03000 	mov	r3, r0
80000da8:	e1a00003 	mov	r0, r3
80000dac:	e24bd004 	sub	sp, fp, #4
80000db0:	e8bd8800 	pop	{fp, pc}

80000db4 <memmove>:
80000db4:	e92d4800 	push	{fp, lr}
80000db8:	e28db004 	add	fp, sp, #4
80000dbc:	e24dd010 	sub	sp, sp, #16
80000dc0:	e50b0008 	str	r0, [fp, #-8]
80000dc4:	e50b100c 	str	r1, [fp, #-12]
80000dc8:	e50b2010 	str	r2, [fp, #-16]
80000dcc:	e51b2008 	ldr	r2, [fp, #-8]
80000dd0:	e51b300c 	ldr	r3, [fp, #-12]
80000dd4:	e1520003 	cmp	r2, r3
80000dd8:	9a000005 	bls	80000df4 <memmove+0x40>
80000ddc:	e51b0008 	ldr	r0, [fp, #-8]
80000de0:	e51b100c 	ldr	r1, [fp, #-12]
80000de4:	e51b2010 	ldr	r2, [fp, #-16]
80000de8:	ebffffb9 	bl	80000cd4 <__memmove_up>
80000dec:	e1a03000 	mov	r3, r0
80000df0:	ea000004 	b	80000e08 <memmove+0x54>
80000df4:	e51b0008 	ldr	r0, [fp, #-8]
80000df8:	e51b100c 	ldr	r1, [fp, #-12]
80000dfc:	e51b2010 	ldr	r2, [fp, #-16]
80000e00:	ebffff8f 	bl	80000c44 <__memmove_down>
80000e04:	e1a03000 	mov	r3, r0
80000e08:	e1a00003 	mov	r0, r3
80000e0c:	e24bd004 	sub	sp, fp, #4
80000e10:	e8bd8800 	pop	{fp, pc}

80000e14 <memchr>:
80000e14:	e52db004 	push	{fp}		; (str fp, [sp, #-4]!)
80000e18:	e28db000 	add	fp, sp, #0
80000e1c:	e24dd01c 	sub	sp, sp, #28
80000e20:	e50b0010 	str	r0, [fp, #-16]
80000e24:	e50b1014 	str	r1, [fp, #-20]
80000e28:	e50b2018 	str	r2, [fp, #-24]
80000e2c:	e51b3010 	ldr	r3, [fp, #-16]
80000e30:	e50b3008 	str	r3, [fp, #-8]
80000e34:	ea000005 	b	80000e50 <memchr+0x3c>
80000e38:	e51b3008 	ldr	r3, [fp, #-8]
80000e3c:	e2833001 	add	r3, r3, #1
80000e40:	e50b3008 	str	r3, [fp, #-8]
80000e44:	e51b3018 	ldr	r3, [fp, #-24]
80000e48:	e2433001 	sub	r3, r3, #1
80000e4c:	e50b3018 	str	r3, [fp, #-24]
80000e50:	e51b3018 	ldr	r3, [fp, #-24]
80000e54:	e3530000 	cmp	r3, #0
80000e58:	0a000005 	beq	80000e74 <memchr+0x60>
80000e5c:	e51b3008 	ldr	r3, [fp, #-8]
80000e60:	e5d33000 	ldrb	r3, [r3]
80000e64:	e1a02003 	mov	r2, r3
80000e68:	e51b3014 	ldr	r3, [fp, #-20]
80000e6c:	e1520003 	cmp	r2, r3
80000e70:	1afffff0 	bne	80000e38 <memchr+0x24>
80000e74:	e51b3018 	ldr	r3, [fp, #-24]
80000e78:	e3530000 	cmp	r3, #0
80000e7c:	0a000001 	beq	80000e88 <memchr+0x74>
80000e80:	e51b3008 	ldr	r3, [fp, #-8]
80000e84:	ea000000 	b	80000e8c <memchr+0x78>
80000e88:	e3a03000 	mov	r3, #0
80000e8c:	e1a00003 	mov	r0, r3
80000e90:	e28bd000 	add	sp, fp, #0
80000e94:	e8bd0800 	ldmfd	sp!, {fp}
80000e98:	e12fff1e 	bx	lr

80000e9c <strlen>:
80000e9c:	e52db004 	push	{fp}		; (str fp, [sp, #-4]!)
80000ea0:	e28db000 	add	fp, sp, #0
80000ea4:	e24dd014 	sub	sp, sp, #20
80000ea8:	e50b0010 	str	r0, [fp, #-16]
80000eac:	e51b3010 	ldr	r3, [fp, #-16]
80000eb0:	e50b3008 	str	r3, [fp, #-8]
80000eb4:	ea000002 	b	80000ec4 <strlen+0x28>
80000eb8:	e51b3008 	ldr	r3, [fp, #-8]
80000ebc:	e2833001 	add	r3, r3, #1
80000ec0:	e50b3008 	str	r3, [fp, #-8]
80000ec4:	e51b3008 	ldr	r3, [fp, #-8]
80000ec8:	e5d33000 	ldrb	r3, [r3]
80000ecc:	e3530000 	cmp	r3, #0
80000ed0:	1afffff8 	bne	80000eb8 <strlen+0x1c>
80000ed4:	e51b2008 	ldr	r2, [fp, #-8]
80000ed8:	e51b3010 	ldr	r3, [fp, #-16]
80000edc:	e0633002 	rsb	r3, r3, r2
80000ee0:	e1a00003 	mov	r0, r3
80000ee4:	e28bd000 	add	sp, fp, #0
80000ee8:	e8bd0800 	ldmfd	sp!, {fp}
80000eec:	e12fff1e 	bx	lr

80000ef0 <memset>:
80000ef0:	e52db004 	push	{fp}		; (str fp, [sp, #-4]!)
80000ef4:	e28db000 	add	fp, sp, #0
80000ef8:	e24dd01c 	sub	sp, sp, #28
80000efc:	e50b0010 	str	r0, [fp, #-16]
80000f00:	e50b1014 	str	r1, [fp, #-20]
80000f04:	e50b2018 	str	r2, [fp, #-24]
80000f08:	e51b3010 	ldr	r3, [fp, #-16]
80000f0c:	e50b3008 	str	r3, [fp, #-8]
80000f10:	ea000006 	b	80000f30 <memset+0x40>
80000f14:	e51b3014 	ldr	r3, [fp, #-20]
80000f18:	e6ef2073 	uxtb	r2, r3
80000f1c:	e51b3008 	ldr	r3, [fp, #-8]
80000f20:	e5c32000 	strb	r2, [r3]
80000f24:	e51b3008 	ldr	r3, [fp, #-8]
80000f28:	e2833001 	add	r3, r3, #1
80000f2c:	e50b3008 	str	r3, [fp, #-8]
80000f30:	e51b3018 	ldr	r3, [fp, #-24]
80000f34:	e3530000 	cmp	r3, #0
80000f38:	03a03000 	moveq	r3, #0
80000f3c:	13a03001 	movne	r3, #1
80000f40:	e6ef3073 	uxtb	r3, r3
80000f44:	e51b2018 	ldr	r2, [fp, #-24]
80000f48:	e2422001 	sub	r2, r2, #1
80000f4c:	e50b2018 	str	r2, [fp, #-24]
80000f50:	e3530000 	cmp	r3, #0
80000f54:	1affffee 	bne	80000f14 <memset+0x24>
80000f58:	e51b3010 	ldr	r3, [fp, #-16]
80000f5c:	e1a00003 	mov	r0, r3
80000f60:	e28bd000 	add	sp, fp, #0
80000f64:	e8bd0800 	ldmfd	sp!, {fp}
80000f68:	e12fff1e 	bx	lr

80000f6c <memcmp>:
80000f6c:	e52db004 	push	{fp}		; (str fp, [sp, #-4]!)
80000f70:	e28db000 	add	fp, sp, #0
80000f74:	e24dd01c 	sub	sp, sp, #28
80000f78:	e50b0010 	str	r0, [fp, #-16]
80000f7c:	e50b1014 	str	r1, [fp, #-20]
80000f80:	e50b2018 	str	r2, [fp, #-24]
80000f84:	e51b3010 	ldr	r3, [fp, #-16]
80000f88:	e50b3008 	str	r3, [fp, #-8]
80000f8c:	e51b3014 	ldr	r3, [fp, #-20]
80000f90:	e50b300c 	str	r3, [fp, #-12]
80000f94:	ea000015 	b	80000ff0 <memcmp+0x84>
80000f98:	e51b3008 	ldr	r3, [fp, #-8]
80000f9c:	e5d32000 	ldrb	r2, [r3]
80000fa0:	e51b300c 	ldr	r3, [fp, #-12]
80000fa4:	e5d33000 	ldrb	r3, [r3]
80000fa8:	e1520003 	cmp	r2, r3
80000fac:	2a000001 	bcs	80000fb8 <memcmp+0x4c>
80000fb0:	e3e03000 	mvn	r3, #0
80000fb4:	ea000018 	b	8000101c <memcmp+0xb0>
80000fb8:	e51b3008 	ldr	r3, [fp, #-8]
80000fbc:	e5d32000 	ldrb	r2, [r3]
80000fc0:	e51b300c 	ldr	r3, [fp, #-12]
80000fc4:	e5d33000 	ldrb	r3, [r3]
80000fc8:	e1520003 	cmp	r2, r3
80000fcc:	9a000001 	bls	80000fd8 <memcmp+0x6c>
80000fd0:	e3a03001 	mov	r3, #1
80000fd4:	ea000010 	b	8000101c <memcmp+0xb0>
80000fd8:	e51b3008 	ldr	r3, [fp, #-8]
80000fdc:	e2833001 	add	r3, r3, #1
80000fe0:	e50b3008 	str	r3, [fp, #-8]
80000fe4:	e51b300c 	ldr	r3, [fp, #-12]
80000fe8:	e2833001 	add	r3, r3, #1
80000fec:	e50b300c 	str	r3, [fp, #-12]
80000ff0:	e51b3018 	ldr	r3, [fp, #-24]
80000ff4:	e3530000 	cmp	r3, #0
80000ff8:	03a03000 	moveq	r3, #0
80000ffc:	13a03001 	movne	r3, #1
80001000:	e6ef3073 	uxtb	r3, r3
80001004:	e51b2018 	ldr	r2, [fp, #-24]
80001008:	e2422001 	sub	r2, r2, #1
8000100c:	e50b2018 	str	r2, [fp, #-24]
80001010:	e3530000 	cmp	r3, #0
80001014:	1affffdf 	bne	80000f98 <memcmp+0x2c>
80001018:	e3a03000 	mov	r3, #0
8000101c:	e1a00003 	mov	r0, r3
80001020:	e28bd000 	add	sp, fp, #0
80001024:	e8bd0800 	ldmfd	sp!, {fp}
80001028:	e12fff1e 	bx	lr

8000102c <strcmp>:
8000102c:	e52db004 	push	{fp}		; (str fp, [sp, #-4]!)
80001030:	e28db000 	add	fp, sp, #0
80001034:	e24dd00c 	sub	sp, sp, #12
80001038:	e50b0008 	str	r0, [fp, #-8]
8000103c:	e50b100c 	str	r1, [fp, #-12]
80001040:	ea000015 	b	8000109c <strcmp+0x70>
80001044:	e51b3008 	ldr	r3, [fp, #-8]
80001048:	e5d32000 	ldrb	r2, [r3]
8000104c:	e51b300c 	ldr	r3, [fp, #-12]
80001050:	e5d33000 	ldrb	r3, [r3]
80001054:	e1520003 	cmp	r2, r3
80001058:	2a000001 	bcs	80001064 <strcmp+0x38>
8000105c:	e3e03000 	mvn	r3, #0
80001060:	ea000026 	b	80001100 <strcmp+0xd4>
80001064:	e51b3008 	ldr	r3, [fp, #-8]
80001068:	e5d32000 	ldrb	r2, [r3]
8000106c:	e51b300c 	ldr	r3, [fp, #-12]
80001070:	e5d33000 	ldrb	r3, [r3]
80001074:	e1520003 	cmp	r2, r3
80001078:	9a000001 	bls	80001084 <strcmp+0x58>
8000107c:	e3a03001 	mov	r3, #1
80001080:	ea00001e 	b	80001100 <strcmp+0xd4>
80001084:	e51b3008 	ldr	r3, [fp, #-8]
80001088:	e2833001 	add	r3, r3, #1
8000108c:	e50b3008 	str	r3, [fp, #-8]
80001090:	e51b300c 	ldr	r3, [fp, #-12]
80001094:	e2833001 	add	r3, r3, #1
80001098:	e50b300c 	str	r3, [fp, #-12]
8000109c:	e51b3008 	ldr	r3, [fp, #-8]
800010a0:	e5d33000 	ldrb	r3, [r3]
800010a4:	e3530000 	cmp	r3, #0
800010a8:	0a000003 	beq	800010bc <strcmp+0x90>
800010ac:	e51b300c 	ldr	r3, [fp, #-12]
800010b0:	e5d33000 	ldrb	r3, [r3]
800010b4:	e3530000 	cmp	r3, #0
800010b8:	1affffe1 	bne	80001044 <strcmp+0x18>
800010bc:	e51b3008 	ldr	r3, [fp, #-8]
800010c0:	e5d33000 	ldrb	r3, [r3]
800010c4:	e3530000 	cmp	r3, #0
800010c8:	1a000005 	bne	800010e4 <strcmp+0xb8>
800010cc:	e51b300c 	ldr	r3, [fp, #-12]
800010d0:	e5d33000 	ldrb	r3, [r3]
800010d4:	e3530000 	cmp	r3, #0
800010d8:	1a000001 	bne	800010e4 <strcmp+0xb8>
800010dc:	e3a03000 	mov	r3, #0
800010e0:	ea000006 	b	80001100 <strcmp+0xd4>
800010e4:	e51b3008 	ldr	r3, [fp, #-8]
800010e8:	e5d33000 	ldrb	r3, [r3]
800010ec:	e3530000 	cmp	r3, #0
800010f0:	1a000001 	bne	800010fc <strcmp+0xd0>
800010f4:	e3e03000 	mvn	r3, #0
800010f8:	ea000000 	b	80001100 <strcmp+0xd4>
800010fc:	e3a03001 	mov	r3, #1
80001100:	e1a00003 	mov	r0, r3
80001104:	e28bd000 	add	sp, fp, #0
80001108:	e8bd0800 	ldmfd	sp!, {fp}
8000110c:	e12fff1e 	bx	lr

80001110 <strncmp>:
80001110:	e52db004 	push	{fp}		; (str fp, [sp, #-4]!)
80001114:	e28db000 	add	fp, sp, #0
80001118:	e24dd014 	sub	sp, sp, #20
8000111c:	e50b0008 	str	r0, [fp, #-8]
80001120:	e50b100c 	str	r1, [fp, #-12]
80001124:	e50b2010 	str	r2, [fp, #-16]
80001128:	ea000015 	b	80001184 <strncmp+0x74>
8000112c:	e51b3008 	ldr	r3, [fp, #-8]
80001130:	e5d32000 	ldrb	r2, [r3]
80001134:	e51b300c 	ldr	r3, [fp, #-12]
80001138:	e5d33000 	ldrb	r3, [r3]
8000113c:	e1520003 	cmp	r2, r3
80001140:	2a000001 	bcs	8000114c <strncmp+0x3c>
80001144:	e3e03000 	mvn	r3, #0
80001148:	ea000033 	b	8000121c <strncmp+0x10c>
8000114c:	e51b3008 	ldr	r3, [fp, #-8]
80001150:	e5d32000 	ldrb	r2, [r3]
80001154:	e51b300c 	ldr	r3, [fp, #-12]
80001158:	e5d33000 	ldrb	r3, [r3]
8000115c:	e1520003 	cmp	r2, r3
80001160:	9a000001 	bls	8000116c <strncmp+0x5c>
80001164:	e3a03001 	mov	r3, #1
80001168:	ea00002b 	b	8000121c <strncmp+0x10c>
8000116c:	e51b3008 	ldr	r3, [fp, #-8]
80001170:	e2833001 	add	r3, r3, #1
80001174:	e50b3008 	str	r3, [fp, #-8]
80001178:	e51b300c 	ldr	r3, [fp, #-12]
8000117c:	e2833001 	add	r3, r3, #1
80001180:	e50b300c 	str	r3, [fp, #-12]
80001184:	e51b3008 	ldr	r3, [fp, #-8]
80001188:	e5d33000 	ldrb	r3, [r3]
8000118c:	e3530000 	cmp	r3, #0
80001190:	0a00000d 	beq	800011cc <strncmp+0xbc>
80001194:	e51b300c 	ldr	r3, [fp, #-12]
80001198:	e5d33000 	ldrb	r3, [r3]
8000119c:	e3530000 	cmp	r3, #0
800011a0:	0a000009 	beq	800011cc <strncmp+0xbc>
800011a4:	e51b3010 	ldr	r3, [fp, #-16]
800011a8:	e3530000 	cmp	r3, #0
800011ac:	03a03000 	moveq	r3, #0
800011b0:	13a03001 	movne	r3, #1
800011b4:	e6ef3073 	uxtb	r3, r3
800011b8:	e51b2010 	ldr	r2, [fp, #-16]
800011bc:	e2422001 	sub	r2, r2, #1
800011c0:	e50b2010 	str	r2, [fp, #-16]
800011c4:	e3530000 	cmp	r3, #0
800011c8:	1affffd7 	bne	8000112c <strncmp+0x1c>
800011cc:	e51b3010 	ldr	r3, [fp, #-16]
800011d0:	e3530000 	cmp	r3, #0
800011d4:	0a000007 	beq	800011f8 <strncmp+0xe8>
800011d8:	e51b3008 	ldr	r3, [fp, #-8]
800011dc:	e5d33000 	ldrb	r3, [r3]
800011e0:	e3530000 	cmp	r3, #0
800011e4:	1a000005 	bne	80001200 <strncmp+0xf0>
800011e8:	e51b300c 	ldr	r3, [fp, #-12]
800011ec:	e5d33000 	ldrb	r3, [r3]
800011f0:	e3530000 	cmp	r3, #0
800011f4:	1a000001 	bne	80001200 <strncmp+0xf0>
800011f8:	e3a03000 	mov	r3, #0
800011fc:	ea000006 	b	8000121c <strncmp+0x10c>
80001200:	e51b3008 	ldr	r3, [fp, #-8]
80001204:	e5d33000 	ldrb	r3, [r3]
80001208:	e3530000 	cmp	r3, #0
8000120c:	1a000001 	bne	80001218 <strncmp+0x108>
80001210:	e3e03000 	mvn	r3, #0
80001214:	ea000000 	b	8000121c <strncmp+0x10c>
80001218:	e3a03001 	mov	r3, #1
8000121c:	e1a00003 	mov	r0, r3
80001220:	e28bd000 	add	sp, fp, #0
80001224:	e8bd0800 	ldmfd	sp!, {fp}
80001228:	e12fff1e 	bx	lr

8000122c <strchr>:
8000122c:	e52db004 	push	{fp}		; (str fp, [sp, #-4]!)
80001230:	e28db000 	add	fp, sp, #0
80001234:	e24dd014 	sub	sp, sp, #20
80001238:	e50b0010 	str	r0, [fp, #-16]
8000123c:	e50b1014 	str	r1, [fp, #-20]
80001240:	e51b3010 	ldr	r3, [fp, #-16]
80001244:	e50b3008 	str	r3, [fp, #-8]
80001248:	ea000002 	b	80001258 <strchr+0x2c>
8000124c:	e51b3008 	ldr	r3, [fp, #-8]
80001250:	e2833001 	add	r3, r3, #1
80001254:	e50b3008 	str	r3, [fp, #-8]
80001258:	e51b3008 	ldr	r3, [fp, #-8]
8000125c:	e5d33000 	ldrb	r3, [r3]
80001260:	e3530000 	cmp	r3, #0
80001264:	0a000005 	beq	80001280 <strchr+0x54>
80001268:	e51b3008 	ldr	r3, [fp, #-8]
8000126c:	e5d33000 	ldrb	r3, [r3]
80001270:	e1a02003 	mov	r2, r3
80001274:	e51b3014 	ldr	r3, [fp, #-20]
80001278:	e1520003 	cmp	r2, r3
8000127c:	1afffff2 	bne	8000124c <strchr+0x20>
80001280:	e51b3008 	ldr	r3, [fp, #-8]
80001284:	e5d33000 	ldrb	r3, [r3]
80001288:	e3530000 	cmp	r3, #0
8000128c:	0a000001 	beq	80001298 <strchr+0x6c>
80001290:	e51b3008 	ldr	r3, [fp, #-8]
80001294:	ea000000 	b	8000129c <strchr+0x70>
80001298:	e3a03000 	mov	r3, #0
8000129c:	e1a00003 	mov	r0, r3
800012a0:	e28bd000 	add	sp, fp, #0
800012a4:	e8bd0800 	ldmfd	sp!, {fp}
800012a8:	e12fff1e 	bx	lr

800012ac <strcpy>:
800012ac:	e52db004 	push	{fp}		; (str fp, [sp, #-4]!)
800012b0:	e28db000 	add	fp, sp, #0
800012b4:	e24dd014 	sub	sp, sp, #20
800012b8:	e50b0010 	str	r0, [fp, #-16]
800012bc:	e50b1014 	str	r1, [fp, #-20]
800012c0:	e3a03000 	mov	r3, #0
800012c4:	e50b3008 	str	r3, [fp, #-8]
800012c8:	ea00000a 	b	800012f8 <strcpy+0x4c>
800012cc:	e51b2010 	ldr	r2, [fp, #-16]
800012d0:	e51b3008 	ldr	r3, [fp, #-8]
800012d4:	e0823003 	add	r3, r2, r3
800012d8:	e51b1014 	ldr	r1, [fp, #-20]
800012dc:	e51b2008 	ldr	r2, [fp, #-8]
800012e0:	e0812002 	add	r2, r1, r2
800012e4:	e5d22000 	ldrb	r2, [r2]
800012e8:	e5c32000 	strb	r2, [r3]
800012ec:	e51b3008 	ldr	r3, [fp, #-8]
800012f0:	e2833001 	add	r3, r3, #1
800012f4:	e50b3008 	str	r3, [fp, #-8]
800012f8:	e51b2014 	ldr	r2, [fp, #-20]
800012fc:	e51b3008 	ldr	r3, [fp, #-8]
80001300:	e0823003 	add	r3, r2, r3
80001304:	e5d33000 	ldrb	r3, [r3]
80001308:	e3530000 	cmp	r3, #0
8000130c:	1affffee 	bne	800012cc <strcpy+0x20>
80001310:	e51b2010 	ldr	r2, [fp, #-16]
80001314:	e51b3008 	ldr	r3, [fp, #-8]
80001318:	e0823003 	add	r3, r2, r3
8000131c:	e3a02000 	mov	r2, #0
80001320:	e5c32000 	strb	r2, [r3]
80001324:	e51b3010 	ldr	r3, [fp, #-16]
80001328:	e1a00003 	mov	r0, r3
8000132c:	e28bd000 	add	sp, fp, #0
80001330:	e8bd0800 	ldmfd	sp!, {fp}
80001334:	e12fff1e 	bx	lr

80001338 <arm_hexstr2uint>:
80001338:	e52db004 	push	{fp}		; (str fp, [sp, #-4]!)
8000133c:	e28db000 	add	fp, sp, #0
80001340:	e24dd014 	sub	sp, sp, #20
80001344:	e50b0010 	str	r0, [fp, #-16]
80001348:	e3a03000 	mov	r3, #0
8000134c:	e50b3008 	str	r3, [fp, #-8]
80001350:	e3a03000 	mov	r3, #0
80001354:	e50b300c 	str	r3, [fp, #-12]
80001358:	e51b3010 	ldr	r3, [fp, #-16]
8000135c:	e5d33000 	ldrb	r3, [r3]
80001360:	e3530030 	cmp	r3, #48	; 0x30
80001364:	1a00004c 	bne	8000149c <arm_hexstr2uint+0x164>
80001368:	e51b3010 	ldr	r3, [fp, #-16]
8000136c:	e2833001 	add	r3, r3, #1
80001370:	e5d33000 	ldrb	r3, [r3]
80001374:	e3530078 	cmp	r3, #120	; 0x78
80001378:	1a000047 	bne	8000149c <arm_hexstr2uint+0x164>
8000137c:	e3a03002 	mov	r3, #2
80001380:	e50b300c 	str	r3, [fp, #-12]
80001384:	ea000044 	b	8000149c <arm_hexstr2uint+0x164>
80001388:	e51b300c 	ldr	r3, [fp, #-12]
8000138c:	e51b2010 	ldr	r2, [fp, #-16]
80001390:	e0823003 	add	r3, r2, r3
80001394:	e5d33000 	ldrb	r3, [r3]
80001398:	e353002f 	cmp	r3, #47	; 0x2f
8000139c:	9a00000f 	bls	800013e0 <arm_hexstr2uint+0xa8>
800013a0:	e51b300c 	ldr	r3, [fp, #-12]
800013a4:	e51b2010 	ldr	r2, [fp, #-16]
800013a8:	e0823003 	add	r3, r2, r3
800013ac:	e5d33000 	ldrb	r3, [r3]
800013b0:	e3530039 	cmp	r3, #57	; 0x39
800013b4:	8a000009 	bhi	800013e0 <arm_hexstr2uint+0xa8>
800013b8:	e51b3008 	ldr	r3, [fp, #-8]
800013bc:	e1a02203 	lsl	r2, r3, #4
800013c0:	e51b300c 	ldr	r3, [fp, #-12]
800013c4:	e51b1010 	ldr	r1, [fp, #-16]
800013c8:	e0813003 	add	r3, r1, r3
800013cc:	e5d33000 	ldrb	r3, [r3]
800013d0:	e0823003 	add	r3, r2, r3
800013d4:	e2433030 	sub	r3, r3, #48	; 0x30
800013d8:	e50b3008 	str	r3, [fp, #-8]
800013dc:	ea00002a 	b	8000148c <arm_hexstr2uint+0x154>
800013e0:	e51b300c 	ldr	r3, [fp, #-12]
800013e4:	e51b2010 	ldr	r2, [fp, #-16]
800013e8:	e0823003 	add	r3, r2, r3
800013ec:	e5d33000 	ldrb	r3, [r3]
800013f0:	e3530040 	cmp	r3, #64	; 0x40
800013f4:	9a00000f 	bls	80001438 <arm_hexstr2uint+0x100>
800013f8:	e51b300c 	ldr	r3, [fp, #-12]
800013fc:	e51b2010 	ldr	r2, [fp, #-16]
80001400:	e0823003 	add	r3, r2, r3
80001404:	e5d33000 	ldrb	r3, [r3]
80001408:	e3530046 	cmp	r3, #70	; 0x46
8000140c:	8a000009 	bhi	80001438 <arm_hexstr2uint+0x100>
80001410:	e51b3008 	ldr	r3, [fp, #-8]
80001414:	e1a02203 	lsl	r2, r3, #4
80001418:	e51b300c 	ldr	r3, [fp, #-12]
8000141c:	e51b1010 	ldr	r1, [fp, #-16]
80001420:	e0813003 	add	r3, r1, r3
80001424:	e5d33000 	ldrb	r3, [r3]
80001428:	e0823003 	add	r3, r2, r3
8000142c:	e2433037 	sub	r3, r3, #55	; 0x37
80001430:	e50b3008 	str	r3, [fp, #-8]
80001434:	ea000014 	b	8000148c <arm_hexstr2uint+0x154>
80001438:	e51b300c 	ldr	r3, [fp, #-12]
8000143c:	e51b2010 	ldr	r2, [fp, #-16]
80001440:	e0823003 	add	r3, r2, r3
80001444:	e5d33000 	ldrb	r3, [r3]
80001448:	e3530060 	cmp	r3, #96	; 0x60
8000144c:	9a00000e 	bls	8000148c <arm_hexstr2uint+0x154>
80001450:	e51b300c 	ldr	r3, [fp, #-12]
80001454:	e51b2010 	ldr	r2, [fp, #-16]
80001458:	e0823003 	add	r3, r2, r3
8000145c:	e5d33000 	ldrb	r3, [r3]
80001460:	e3530066 	cmp	r3, #102	; 0x66
80001464:	8a000008 	bhi	8000148c <arm_hexstr2uint+0x154>
80001468:	e51b3008 	ldr	r3, [fp, #-8]
8000146c:	e1a02203 	lsl	r2, r3, #4
80001470:	e51b300c 	ldr	r3, [fp, #-12]
80001474:	e51b1010 	ldr	r1, [fp, #-16]
80001478:	e0813003 	add	r3, r1, r3
8000147c:	e5d33000 	ldrb	r3, [r3]
80001480:	e0823003 	add	r3, r2, r3
80001484:	e2433057 	sub	r3, r3, #87	; 0x57
80001488:	e50b3008 	str	r3, [fp, #-8]
8000148c:	e51b300c 	ldr	r3, [fp, #-12]
80001490:	e2833001 	add	r3, r3, #1
80001494:	e50b300c 	str	r3, [fp, #-12]
80001498:	ea000000 	b	800014a0 <arm_hexstr2uint+0x168>
8000149c:	e1a00000 	nop			; (mov r0, r0)
800014a0:	e51b300c 	ldr	r3, [fp, #-12]
800014a4:	e51b2010 	ldr	r2, [fp, #-16]
800014a8:	e0823003 	add	r3, r2, r3
800014ac:	e5d33000 	ldrb	r3, [r3]
800014b0:	e3530000 	cmp	r3, #0
800014b4:	1affffb3 	bne	80001388 <arm_hexstr2uint+0x50>
800014b8:	e51b3008 	ldr	r3, [fp, #-8]
800014bc:	e1a00003 	mov	r0, r3
800014c0:	e28bd000 	add	sp, fp, #0
800014c4:	e8bd0800 	ldmfd	sp!, {fp}
800014c8:	e12fff1e 	bx	lr

800014cc <arm_uint2hexstr>:
800014cc:	e52db004 	push	{fp}		; (str fp, [sp, #-4]!)
800014d0:	e28db000 	add	fp, sp, #0
800014d4:	e24dd014 	sub	sp, sp, #20
800014d8:	e50b0010 	str	r0, [fp, #-16]
800014dc:	e50b1014 	str	r1, [fp, #-20]
800014e0:	e3a03000 	mov	r3, #0
800014e4:	e50b300c 	str	r3, [fp, #-12]
800014e8:	e3a03000 	mov	r3, #0
800014ec:	e50b3008 	str	r3, [fp, #-8]
800014f0:	ea00001f 	b	80001574 <arm_uint2hexstr+0xa8>
800014f4:	e51b300c 	ldr	r3, [fp, #-12]
800014f8:	e3530000 	cmp	r3, #0
800014fc:	1a000007 	bne	80001520 <arm_uint2hexstr+0x54>
80001500:	e51b3008 	ldr	r3, [fp, #-8]
80001504:	e2633007 	rsb	r3, r3, #7
80001508:	e1a03103 	lsl	r3, r3, #2
8000150c:	e51b2014 	ldr	r2, [fp, #-20]
80001510:	e1a03332 	lsr	r3, r2, r3
80001514:	e203300f 	and	r3, r3, #15
80001518:	e3530000 	cmp	r3, #0
8000151c:	0a000010 	beq	80001564 <arm_uint2hexstr+0x98>
80001520:	e51b300c 	ldr	r3, [fp, #-12]
80001524:	e51b2010 	ldr	r2, [fp, #-16]
80001528:	e0822003 	add	r2, r2, r3
8000152c:	e51b3008 	ldr	r3, [fp, #-8]
80001530:	e2633007 	rsb	r3, r3, #7
80001534:	e1a03103 	lsl	r3, r3, #2
80001538:	e51b1014 	ldr	r1, [fp, #-20]
8000153c:	e1a03331 	lsr	r3, r1, r3
80001540:	e203100f 	and	r1, r3, #15
80001544:	e3013e18 	movw	r3, #7704	; 0x1e18
80001548:	e3483000 	movt	r3, #32768	; 0x8000
8000154c:	e7d33001 	ldrb	r3, [r3, r1]
80001550:	e5c23000 	strb	r3, [r2]
80001554:	e51b300c 	ldr	r3, [fp, #-12]
80001558:	e2833001 	add	r3, r3, #1
8000155c:	e50b300c 	str	r3, [fp, #-12]
80001560:	ea000000 	b	80001568 <arm_uint2hexstr+0x9c>
80001564:	e1a00000 	nop			; (mov r0, r0)
80001568:	e51b3008 	ldr	r3, [fp, #-8]
8000156c:	e2833001 	add	r3, r3, #1
80001570:	e50b3008 	str	r3, [fp, #-8]
80001574:	e51b3008 	ldr	r3, [fp, #-8]
80001578:	e3530007 	cmp	r3, #7
8000157c:	daffffdc 	ble	800014f4 <arm_uint2hexstr+0x28>
80001580:	e51b300c 	ldr	r3, [fp, #-12]
80001584:	e3530000 	cmp	r3, #0
80001588:	1a000007 	bne	800015ac <arm_uint2hexstr+0xe0>
8000158c:	e51b300c 	ldr	r3, [fp, #-12]
80001590:	e51b2010 	ldr	r2, [fp, #-16]
80001594:	e0823003 	add	r3, r2, r3
80001598:	e3a02030 	mov	r2, #48	; 0x30
8000159c:	e5c32000 	strb	r2, [r3]
800015a0:	e51b300c 	ldr	r3, [fp, #-12]
800015a4:	e2833001 	add	r3, r3, #1
800015a8:	e50b300c 	str	r3, [fp, #-12]
800015ac:	e51b300c 	ldr	r3, [fp, #-12]
800015b0:	e51b2010 	ldr	r2, [fp, #-16]
800015b4:	e0823003 	add	r3, r2, r3
800015b8:	e3a02000 	mov	r2, #0
800015bc:	e5c32000 	strb	r2, [r3]
800015c0:	e28bd000 	add	sp, fp, #0
800015c4:	e8bd0800 	ldmfd	sp!, {fp}
800015c8:	e12fff1e 	bx	lr

800015cc <strcat>:
800015cc:	e52db004 	push	{fp}		; (str fp, [sp, #-4]!)
800015d0:	e28db000 	add	fp, sp, #0
800015d4:	e24dd00c 	sub	sp, sp, #12
800015d8:	e50b0008 	str	r0, [fp, #-8]
800015dc:	e50b100c 	str	r1, [fp, #-12]
800015e0:	ea000002 	b	800015f0 <strcat+0x24>
800015e4:	e51b3008 	ldr	r3, [fp, #-8]
800015e8:	e2833001 	add	r3, r3, #1
800015ec:	e50b3008 	str	r3, [fp, #-8]
800015f0:	e51b3008 	ldr	r3, [fp, #-8]
800015f4:	e5d33000 	ldrb	r3, [r3]
800015f8:	e3530000 	cmp	r3, #0
800015fc:	1afffff8 	bne	800015e4 <strcat+0x18>
80001600:	ea000009 	b	8000162c <strcat+0x60>
80001604:	e51b300c 	ldr	r3, [fp, #-12]
80001608:	e5d32000 	ldrb	r2, [r3]
8000160c:	e51b3008 	ldr	r3, [fp, #-8]
80001610:	e5c32000 	strb	r2, [r3]
80001614:	e51b300c 	ldr	r3, [fp, #-12]
80001618:	e2833001 	add	r3, r3, #1
8000161c:	e50b300c 	str	r3, [fp, #-12]
80001620:	e51b3008 	ldr	r3, [fp, #-8]
80001624:	e2833001 	add	r3, r3, #1
80001628:	e50b3008 	str	r3, [fp, #-8]
8000162c:	e51b300c 	ldr	r3, [fp, #-12]
80001630:	e5d33000 	ldrb	r3, [r3]
80001634:	e3530000 	cmp	r3, #0
80001638:	1afffff1 	bne	80001604 <strcat+0x38>
8000163c:	e51b3008 	ldr	r3, [fp, #-8]
80001640:	e3a02000 	mov	r2, #0
80001644:	e5c32000 	strb	r2, [r3]
80001648:	e51b3008 	ldr	r3, [fp, #-8]
8000164c:	e1a00003 	mov	r0, r3
80001650:	e28bd000 	add	sp, fp, #0
80001654:	e8bd0800 	ldmfd	sp!, {fp}
80001658:	e12fff1e 	bx	lr

8000165c <arm_str2int>:
8000165c:	e52db004 	push	{fp}		; (str fp, [sp, #-4]!)
80001660:	e28db000 	add	fp, sp, #0
80001664:	e24dd01c 	sub	sp, sp, #28
80001668:	e50b0018 	str	r0, [fp, #-24]
8000166c:	e3a03000 	mov	r3, #0
80001670:	e50b3008 	str	r3, [fp, #-8]
80001674:	e3a03000 	mov	r3, #0
80001678:	e50b300c 	str	r3, [fp, #-12]
8000167c:	e3a03000 	mov	r3, #0
80001680:	e50b3010 	str	r3, [fp, #-16]
80001684:	e51b300c 	ldr	r3, [fp, #-12]
80001688:	e51b2018 	ldr	r2, [fp, #-24]
8000168c:	e0823003 	add	r3, r2, r3
80001690:	e5d33000 	ldrb	r3, [r3]
80001694:	e353002d 	cmp	r3, #45	; 0x2d
80001698:	1a000016 	bne	800016f8 <arm_str2int+0x9c>
8000169c:	e3a03001 	mov	r3, #1
800016a0:	e50b3010 	str	r3, [fp, #-16]
800016a4:	e51b300c 	ldr	r3, [fp, #-12]
800016a8:	e2833001 	add	r3, r3, #1
800016ac:	e50b300c 	str	r3, [fp, #-12]
800016b0:	ea000010 	b	800016f8 <arm_str2int+0x9c>
800016b4:	e51b2008 	ldr	r2, [fp, #-8]
800016b8:	e1a03002 	mov	r3, r2
800016bc:	e1a03103 	lsl	r3, r3, #2
800016c0:	e0833002 	add	r3, r3, r2
800016c4:	e1a03083 	lsl	r3, r3, #1
800016c8:	e1a02003 	mov	r2, r3
800016cc:	e51b300c 	ldr	r3, [fp, #-12]
800016d0:	e51b1018 	ldr	r1, [fp, #-24]
800016d4:	e0813003 	add	r3, r1, r3
800016d8:	e5d33000 	ldrb	r3, [r3]
800016dc:	e2433030 	sub	r3, r3, #48	; 0x30
800016e0:	e0823003 	add	r3, r2, r3
800016e4:	e50b3008 	str	r3, [fp, #-8]
800016e8:	e51b300c 	ldr	r3, [fp, #-12]
800016ec:	e2833001 	add	r3, r3, #1
800016f0:	e50b300c 	str	r3, [fp, #-12]
800016f4:	ea000000 	b	800016fc <arm_str2int+0xa0>
800016f8:	e1a00000 	nop			; (mov r0, r0)
800016fc:	e51b300c 	ldr	r3, [fp, #-12]
80001700:	e51b2018 	ldr	r2, [fp, #-24]
80001704:	e0823003 	add	r3, r2, r3
80001708:	e5d33000 	ldrb	r3, [r3]
8000170c:	e3530000 	cmp	r3, #0
80001710:	1affffe7 	bne	800016b4 <arm_str2int+0x58>
80001714:	e51b3010 	ldr	r3, [fp, #-16]
80001718:	e3530000 	cmp	r3, #0
8000171c:	0a000002 	beq	8000172c <arm_str2int+0xd0>
80001720:	e51b3008 	ldr	r3, [fp, #-8]
80001724:	e2633000 	rsb	r3, r3, #0
80001728:	ea000000 	b	80001730 <arm_str2int+0xd4>
8000172c:	e51b3008 	ldr	r3, [fp, #-8]
80001730:	e1a00003 	mov	r0, r3
80001734:	e28bd000 	add	sp, fp, #0
80001738:	e8bd0800 	ldmfd	sp!, {fp}
8000173c:	e12fff1e 	bx	lr

80001740 <common_guest_entry>:
80001740:	e59fd0c8 	ldr	sp, [pc, #200]	; 80001810 <except_dabort+0x4>
80001744:	e321f0d2 	msr	CPSR_c, #210	; 0xd2
80001748:	e59fd0c4 	ldr	sp, [pc, #196]	; 80001814 <except_dabort+0x8>
8000174c:	e321f0df 	msr	CPSR_c, #223	; 0xdf
80001750:	e59fd0c0 	ldr	sp, [pc, #192]	; 80001818 <except_dabort+0xc>
80001754:	e59f00c0 	ldr	r0, [pc, #192]	; 8000181c <except_dabort+0x10>
80001758:	ee0c0f10 	mcr	15, 0, r0, cr12, cr0, {0}
8000175c:	ebfffa43 	bl	80000070 <nrm_loop>

80001760 <__semi_call>:
80001760:	ef123456 	svc	0x00123456
80001764:	e1a0f00e 	mov	pc, lr
80001768:	e320f000 	nop	{0}
8000176c:	e320f000 	nop	{0}
80001770:	e320f000 	nop	{0}
80001774:	e320f000 	nop	{0}
80001778:	e320f000 	nop	{0}
8000177c:	e320f000 	nop	{0}

80001780 <nonsecure_vector>:
80001780:	00000000 	andeq	r0, r0, r0
80001784:	ea000005 	b	800017a0 <except_unhandled>
80001788:	ea00000d 	b	800017c4 <except_svc>
8000178c:	ea00001e 	b	8000180c <except_dabort>
80001790:	ea00001d 	b	8000180c <except_dabort>
80001794:	ea000001 	b	800017a0 <except_unhandled>
80001798:	ea000012 	b	800017e8 <except_irq>
8000179c:	ea00001a 	b	8000180c <except_dabort>

800017a0 <except_unhandled>:
800017a0:	e92d1fff 	push	{r0, r1, r2, r3, r4, r5, r6, r7, r8, r9, sl, fp, ip}
800017a4:	e14f0000 	mrs	r0, SPSR
800017a8:	e92d4001 	push	{r0, lr}
800017ac:	e1a0000d 	mov	r0, sp
800017b0:	ebfffa81 	bl	800001bc <_except_unhandled>
800017b4:	e8bd4001 	pop	{r0, lr}
800017b8:	e169f000 	msr	SPSR_fc, r0
800017bc:	e8bd1fff 	pop	{r0, r1, r2, r3, r4, r5, r6, r7, r8, r9, sl, fp, ip}
800017c0:	e1b0f00e 	movs	pc, lr

800017c4 <except_svc>:
800017c4:	e92d1fff 	push	{r0, r1, r2, r3, r4, r5, r6, r7, r8, r9, sl, fp, ip}
800017c8:	e14f0000 	mrs	r0, SPSR
800017cc:	e92d4001 	push	{r0, lr}
800017d0:	e1a0000d 	mov	r0, sp
800017d4:	ebfffa7f 	bl	800001d8 <_except_svc>
800017d8:	e8bd4001 	pop	{r0, lr}
800017dc:	e169f000 	msr	SPSR_fc, r0
800017e0:	e8bd1fff 	pop	{r0, r1, r2, r3, r4, r5, r6, r7, r8, r9, sl, fp, ip}
800017e4:	e1b0f00e 	movs	pc, lr

800017e8 <except_irq>:
800017e8:	e92d1fff 	push	{r0, r1, r2, r3, r4, r5, r6, r7, r8, r9, sl, fp, ip}
800017ec:	e14f0000 	mrs	r0, SPSR
800017f0:	e92d4001 	push	{r0, lr}
800017f4:	e1a0000d 	mov	r0, sp
800017f8:	ebfffa7d 	bl	800001f4 <_except_irq>
800017fc:	e8bd4001 	pop	{r0, lr}
80001800:	e169f000 	msr	SPSR_fc, r0
80001804:	e8bd1fff 	pop	{r0, r1, r2, r3, r4, r5, r6, r7, r8, r9, sl, fp, ip}
80001808:	e25ef004 	subs	pc, lr, #4

8000180c <except_dabort>:
8000180c:	eaffffe3 	b	800017a0 <except_unhandled>
80001810:	8f400000 	svchi	0x00400000
80001814:	8f800000 	svchi	0x00800000
80001818:	90000000 	andls	r0, r0, r0
8000181c:	80001780 	andhi	r1, r0, r0, lsl #15

80001820 <uart_init>:
80001820:	e52db004 	push	{fp}		; (str fp, [sp, #-4]!)
80001824:	e28db000 	add	fp, sp, #0
80001828:	e28bd000 	add	sp, fp, #0
8000182c:	e8bd0800 	ldmfd	sp!, {fp}
80001830:	e12fff1e 	bx	lr

80001834 <uart_print>:
80001834:	e52db004 	push	{fp}		; (str fp, [sp, #-4]!)
80001838:	e28db000 	add	fp, sp, #0
8000183c:	e24dd014 	sub	sp, sp, #20
80001840:	e50b0010 	str	r0, [fp, #-16]
80001844:	e3a03000 	mov	r3, #0
80001848:	e3413c09 	movt	r3, #7177	; 0x1c09
8000184c:	e50b3008 	str	r3, [fp, #-8]
80001850:	ea000006 	b	80001870 <uart_print+0x3c>
80001854:	e51b3010 	ldr	r3, [fp, #-16]
80001858:	e5d32000 	ldrb	r2, [r3]
8000185c:	e51b3008 	ldr	r3, [fp, #-8]
80001860:	e5c32000 	strb	r2, [r3]
80001864:	e51b3010 	ldr	r3, [fp, #-16]
80001868:	e2833001 	add	r3, r3, #1
8000186c:	e50b3010 	str	r3, [fp, #-16]
80001870:	e51b3010 	ldr	r3, [fp, #-16]
80001874:	e5d33000 	ldrb	r3, [r3]
80001878:	e3530000 	cmp	r3, #0
8000187c:	1afffff4 	bne	80001854 <uart_print+0x20>
80001880:	e28bd000 	add	sp, fp, #0
80001884:	e8bd0800 	ldmfd	sp!, {fp}
80001888:	e12fff1e 	bx	lr

8000188c <uart_putc>:
8000188c:	e52db004 	push	{fp}		; (str fp, [sp, #-4]!)
80001890:	e28db000 	add	fp, sp, #0
80001894:	e24dd014 	sub	sp, sp, #20
80001898:	e1a03000 	mov	r3, r0
8000189c:	e54b300d 	strb	r3, [fp, #-13]
800018a0:	e3a03000 	mov	r3, #0
800018a4:	e3413c09 	movt	r3, #7177	; 0x1c09
800018a8:	e50b3008 	str	r3, [fp, #-8]
800018ac:	e51b3008 	ldr	r3, [fp, #-8]
800018b0:	e55b200d 	ldrb	r2, [fp, #-13]
800018b4:	e5c32000 	strb	r2, [r3]
800018b8:	e28bd000 	add	sp, fp, #0
800018bc:	e8bd0800 	ldmfd	sp!, {fp}
800018c0:	e12fff1e 	bx	lr

800018c4 <uart_print_hex32>:
800018c4:	e92d4800 	push	{fp, lr}
800018c8:	e28db004 	add	fp, sp, #4
800018cc:	e24dd018 	sub	sp, sp, #24
800018d0:	e50b0018 	str	r0, [fp, #-24]
800018d4:	e3a0300f 	mov	r3, #15
800018d8:	e50b3010 	str	r3, [fp, #-16]
800018dc:	e3010e2c 	movw	r0, #7724	; 0x1e2c
800018e0:	e3480000 	movt	r0, #32768	; 0x8000
800018e4:	ebffffd2 	bl	80001834 <uart_print>
800018e8:	e3a03007 	mov	r3, #7
800018ec:	e50b300c 	str	r3, [fp, #-12]
800018f0:	ea000017 	b	80001954 <uart_print_hex32+0x90>
800018f4:	e51b300c 	ldr	r3, [fp, #-12]
800018f8:	e1a03103 	lsl	r3, r3, #2
800018fc:	e51b2018 	ldr	r2, [fp, #-24]
80001900:	e1a02332 	lsr	r2, r2, r3
80001904:	e51b3010 	ldr	r3, [fp, #-16]
80001908:	e0023003 	and	r3, r2, r3
8000190c:	e50b3008 	str	r3, [fp, #-8]
80001910:	e51b3008 	ldr	r3, [fp, #-8]
80001914:	e3530009 	cmp	r3, #9
80001918:	8a000003 	bhi	8000192c <uart_print_hex32+0x68>
8000191c:	e51b3008 	ldr	r3, [fp, #-8]
80001920:	e2833030 	add	r3, r3, #48	; 0x30
80001924:	e50b3008 	str	r3, [fp, #-8]
80001928:	ea000002 	b	80001938 <uart_print_hex32+0x74>
8000192c:	e51b3008 	ldr	r3, [fp, #-8]
80001930:	e2833037 	add	r3, r3, #55	; 0x37
80001934:	e50b3008 	str	r3, [fp, #-8]
80001938:	e51b3008 	ldr	r3, [fp, #-8]
8000193c:	e6ef3073 	uxtb	r3, r3
80001940:	e1a00003 	mov	r0, r3
80001944:	ebffffd0 	bl	8000188c <uart_putc>
80001948:	e51b300c 	ldr	r3, [fp, #-12]
8000194c:	e2433001 	sub	r3, r3, #1
80001950:	e50b300c 	str	r3, [fp, #-12]
80001954:	e51b300c 	ldr	r3, [fp, #-12]
80001958:	e3530000 	cmp	r3, #0
8000195c:	aaffffe4 	bge	800018f4 <uart_print_hex32+0x30>
80001960:	e24bd004 	sub	sp, fp, #4
80001964:	e8bd8800 	pop	{fp, pc}

80001968 <sp804_load>:
80001968:	e52db004 	push	{fp}		; (str fp, [sp, #-4]!)
8000196c:	e28db000 	add	fp, sp, #0
80001970:	e24dd00c 	sub	sp, sp, #12
80001974:	e50b0008 	str	r0, [fp, #-8]
80001978:	e50b100c 	str	r1, [fp, #-12]
8000197c:	e51b300c 	ldr	r3, [fp, #-12]
80001980:	e51b2008 	ldr	r2, [fp, #-8]
80001984:	e5832000 	str	r2, [r3]
80001988:	e28bd000 	add	sp, fp, #0
8000198c:	e8bd0800 	ldmfd	sp!, {fp}
80001990:	e12fff1e 	bx	lr

80001994 <sp804_init_periodic>:
80001994:	e92d4800 	push	{fp, lr}
80001998:	e28db004 	add	fp, sp, #4
8000199c:	e24dd010 	sub	sp, sp, #16
800019a0:	e50b0010 	str	r0, [fp, #-16]
800019a4:	e50b1014 	str	r1, [fp, #-20]
800019a8:	e3a03062 	mov	r3, #98	; 0x62
800019ac:	e50b3008 	str	r3, [fp, #-8]
800019b0:	e51b3010 	ldr	r3, [fp, #-16]
800019b4:	e2833008 	add	r3, r3, #8
800019b8:	e51b2008 	ldr	r2, [fp, #-8]
800019bc:	e5832000 	str	r2, [r3]
800019c0:	e51b3014 	ldr	r3, [fp, #-20]
800019c4:	e3530000 	cmp	r3, #0
800019c8:	0a000003 	beq	800019dc <sp804_init_periodic+0x48>
800019cc:	e51b0014 	ldr	r0, [fp, #-20]
800019d0:	e51b1010 	ldr	r1, [fp, #-16]
800019d4:	ebffffe3 	bl	80001968 <sp804_load>
800019d8:	ea000002 	b	800019e8 <sp804_init_periodic+0x54>
800019dc:	e3a00ffa 	mov	r0, #1000	; 0x3e8
800019e0:	e51b1010 	ldr	r1, [fp, #-16]
800019e4:	ebffffdf 	bl	80001968 <sp804_load>
800019e8:	e24bd004 	sub	sp, fp, #4
800019ec:	e8bd8800 	pop	{fp, pc}

800019f0 <sp804_init_oneshot>:
800019f0:	e52db004 	push	{fp}		; (str fp, [sp, #-4]!)
800019f4:	e28db000 	add	fp, sp, #0
800019f8:	e24dd014 	sub	sp, sp, #20
800019fc:	e50b0010 	str	r0, [fp, #-16]
80001a00:	e51b3010 	ldr	r3, [fp, #-16]
80001a04:	e2833008 	add	r3, r3, #8
80001a08:	e5933000 	ldr	r3, [r3]
80001a0c:	e50b3008 	str	r3, [fp, #-8]
80001a10:	e51b3008 	ldr	r3, [fp, #-8]
80001a14:	e3833003 	orr	r3, r3, #3
80001a18:	e50b3008 	str	r3, [fp, #-8]
80001a1c:	e51b3010 	ldr	r3, [fp, #-16]
80001a20:	e2833008 	add	r3, r3, #8
80001a24:	e51b2008 	ldr	r2, [fp, #-8]
80001a28:	e5832000 	str	r2, [r3]
80001a2c:	e28bd000 	add	sp, fp, #0
80001a30:	e8bd0800 	ldmfd	sp!, {fp}
80001a34:	e12fff1e 	bx	lr

80001a38 <sp804_init>:
80001a38:	e92d4800 	push	{fp, lr}
80001a3c:	e28db004 	add	fp, sp, #4
80001a40:	e24dd008 	sub	sp, sp, #8
80001a44:	e50b0008 	str	r0, [fp, #-8]
80001a48:	e50b100c 	str	r1, [fp, #-12]
80001a4c:	e51b0008 	ldr	r0, [fp, #-8]
80001a50:	e51b100c 	ldr	r1, [fp, #-12]
80001a54:	ebffffce 	bl	80001994 <sp804_init_periodic>
80001a58:	e51b0008 	ldr	r0, [fp, #-8]
80001a5c:	eb00000c 	bl	80001a94 <sp804_start>
80001a60:	e24bd004 	sub	sp, fp, #4
80001a64:	e8bd8800 	pop	{fp, pc}

80001a68 <sp804_stop>:
80001a68:	e52db004 	push	{fp}		; (str fp, [sp, #-4]!)
80001a6c:	e28db000 	add	fp, sp, #0
80001a70:	e24dd00c 	sub	sp, sp, #12
80001a74:	e50b0008 	str	r0, [fp, #-8]
80001a78:	e51b3008 	ldr	r3, [fp, #-8]
80001a7c:	e2833008 	add	r3, r3, #8
80001a80:	e3a02000 	mov	r2, #0
80001a84:	e5832000 	str	r2, [r3]
80001a88:	e28bd000 	add	sp, fp, #0
80001a8c:	e8bd0800 	ldmfd	sp!, {fp}
80001a90:	e12fff1e 	bx	lr

80001a94 <sp804_start>:
80001a94:	e52db004 	push	{fp}		; (str fp, [sp, #-4]!)
80001a98:	e28db000 	add	fp, sp, #0
80001a9c:	e24dd014 	sub	sp, sp, #20
80001aa0:	e50b0010 	str	r0, [fp, #-16]
80001aa4:	e51b3010 	ldr	r3, [fp, #-16]
80001aa8:	e2833008 	add	r3, r3, #8
80001aac:	e5933000 	ldr	r3, [r3]
80001ab0:	e50b3008 	str	r3, [fp, #-8]
80001ab4:	e51b3008 	ldr	r3, [fp, #-8]
80001ab8:	e3833080 	orr	r3, r3, #128	; 0x80
80001abc:	e50b3008 	str	r3, [fp, #-8]
80001ac0:	e51b3010 	ldr	r3, [fp, #-16]
80001ac4:	e2833008 	add	r3, r3, #8
80001ac8:	e51b2008 	ldr	r2, [fp, #-8]
80001acc:	e5832000 	str	r2, [r3]
80001ad0:	e28bd000 	add	sp, fp, #0
80001ad4:	e8bd0800 	ldmfd	sp!, {fp}
80001ad8:	e12fff1e 	bx	lr

80001adc <sp804_read>:
80001adc:	e52db004 	push	{fp}		; (str fp, [sp, #-4]!)
80001ae0:	e28db000 	add	fp, sp, #0
80001ae4:	e24dd00c 	sub	sp, sp, #12
80001ae8:	e50b0008 	str	r0, [fp, #-8]
80001aec:	e51b3008 	ldr	r3, [fp, #-8]
80001af0:	e2833004 	add	r3, r3, #4
80001af4:	e5933000 	ldr	r3, [r3]
80001af8:	e1a00003 	mov	r0, r3
80001afc:	e28bd000 	add	sp, fp, #0
80001b00:	e8bd0800 	ldmfd	sp!, {fp}
80001b04:	e12fff1e 	bx	lr

80001b08 <sp804_irq_clear>:
80001b08:	e52db004 	push	{fp}		; (str fp, [sp, #-4]!)
80001b0c:	e28db000 	add	fp, sp, #0
80001b10:	e24dd00c 	sub	sp, sp, #12
80001b14:	e50b0008 	str	r0, [fp, #-8]
80001b18:	e51b3008 	ldr	r3, [fp, #-8]
80001b1c:	e283300c 	add	r3, r3, #12
80001b20:	e3a02001 	mov	r2, #1
80001b24:	e5832000 	str	r2, [r3]
80001b28:	e28bd000 	add	sp, fp, #0
80001b2c:	e8bd0800 	ldmfd	sp!, {fp}
80001b30:	e12fff1e 	bx	lr

80001b34 <interrupt_sp804_timer>:
80001b34:	e92d4800 	push	{fp, lr}
80001b38:	e28db004 	add	fp, sp, #4
80001b3c:	e24dd018 	sub	sp, sp, #24
80001b40:	e50b0010 	str	r0, [fp, #-16]
80001b44:	e50b1014 	str	r1, [fp, #-20]
80001b48:	e50b2018 	str	r2, [fp, #-24]
80001b4c:	e3010e30 	movw	r0, #7728	; 0x1e30
80001b50:	e3480000 	movt	r0, #32768	; 0x8000
80001b54:	ebffff36 	bl	80001834 <uart_print>
80001b58:	e3a00000 	mov	r0, #0
80001b5c:	e3410c11 	movt	r0, #7185	; 0x1c11
80001b60:	ebffffdd 	bl	80001adc <sp804_read>
80001b64:	e50b0008 	str	r0, [fp, #-8]
80001b68:	e3010e5c 	movw	r0, #7772	; 0x1e5c
80001b6c:	e3480000 	movt	r0, #32768	; 0x8000
80001b70:	ebffff2f 	bl	80001834 <uart_print>
80001b74:	e51b0008 	ldr	r0, [fp, #-8]
80001b78:	ebffff51 	bl	800018c4 <uart_print_hex32>
80001b7c:	e3010e64 	movw	r0, #7780	; 0x1e64
80001b80:	e3480000 	movt	r0, #32768	; 0x8000
80001b84:	ebffff2a 	bl	80001834 <uart_print>
80001b88:	e3a00000 	mov	r0, #0
80001b8c:	e3410c11 	movt	r0, #7185	; 0x1c11
80001b90:	ebffffdc 	bl	80001b08 <sp804_irq_clear>
80001b94:	e3010e30 	movw	r0, #7728	; 0x1e30
80001b98:	e3480000 	movt	r0, #32768	; 0x8000
80001b9c:	ebffff24 	bl	80001834 <uart_print>
80001ba0:	e24bd004 	sub	sp, fp, #4
80001ba4:	e8bd8800 	pop	{fp, pc}

80001ba8 <hvmm_tests_sp804_timer>:
80001ba8:	e92d4800 	push	{fp, lr}
80001bac:	e28db004 	add	fp, sp, #4
80001bb0:	e3a00000 	mov	r0, #0
80001bb4:	e3410c11 	movt	r0, #7185	; 0x1c11
80001bb8:	e30816a0 	movw	r1, #34464	; 0x86a0
80001bbc:	e3401001 	movt	r1, #1
80001bc0:	ebffff9c 	bl	80001a38 <sp804_init>
80001bc4:	e3a00022 	mov	r0, #34	; 0x22
80001bc8:	ebfffac2 	bl	800006d8 <gic_enable_irq>
80001bcc:	e3a00022 	mov	r0, #34	; 0x22
80001bd0:	e3011b34 	movw	r1, #6964	; 0x1b34
80001bd4:	e3481000 	movt	r1, #32768	; 0x8000
80001bd8:	e3a02000 	mov	r2, #0
80001bdc:	ebfffae9 	bl	80000788 <gic_set_irq_handler>
80001be0:	e3a03000 	mov	r3, #0
80001be4:	e1a00003 	mov	r0, r3
80001be8:	e8bd8800 	pop	{fp, pc}

Disassembly of section .rodata:

80001bec <.LC0>:
80001bec:	6575675b 	ldrbvs	r6, [r5, #-1883]!	; 0x75b
80001bf0:	5d307473 	cfldrspl	mvf7, [r0, #-460]!	; 0xfffffe34
80001bf4:	00000020 	andeq	r0, r0, r0, lsr #32

80001bf8 <.LC1>:
80001bf8:	3d3d0d0a 	ldccc	13, cr0, [sp, #-40]!	; 0xffffffd8
80001bfc:	7453203d 	ldrbvc	r2, [r3], #-61	; 0x3d
80001c00:	69747261 	ldmdbvs	r4!, {r0, r5, r6, r9, ip, sp, lr}^
80001c04:	7020676e 	eorvc	r6, r0, lr, ror #14
80001c08:	6674616c 	ldrbtvs	r6, [r4], -ip, ror #2
80001c0c:	206d726f 	rsbcs	r7, sp, pc, ror #4
80001c10:	6e69616d 	powvsez	f6, f1, #5.0
80001c14:	00000d0a 	andeq	r0, r0, sl, lsl #26

80001c18 <.LC0>:
80001c18:	6575675b 	ldrbvs	r6, [r5, #-1883]!	; 0x75b
80001c1c:	5d307473 	cfldrspl	mvf7, [r0, #-460]!	; 0xfffffe34
80001c20:	00000020 	andeq	r0, r0, r0, lsr #32

80001c24 <.LC1>:
80001c24:	203d3d3d 	eorscs	r3, sp, sp, lsr sp
80001c28:	72617453 	rsbvc	r7, r1, #1392508928	; 0x53000000
80001c2c:	676e6974 			; <UNDEFINED> instruction: 0x676e6974
80001c30:	6d6f6320 	stclvs	3, cr6, [pc, #-128]!	; 80001bb8 <hvmm_tests_sp804_timer+0x10>
80001c34:	206d6f6d 	rsbcs	r6, sp, sp, ror #30
80001c38:	72617473 	rsbvc	r7, r1, #1929379840	; 0x73000000
80001c3c:	70752074 	rsbsvc	r2, r5, r4, ror r0
80001c40:	00000d0a 	andeq	r0, r0, sl, lsl #26

80001c44 <.LC2>:
80001c44:	72657469 	rsbvc	r7, r5, #1761607680	; 0x69000000
80001c48:	6f697461 	svcvs	0x00697461
80001c4c:	0000206e 	andeq	r2, r0, lr, rrx

80001c50 <.LC3>:
80001c50:	00000d0a 	andeq	r0, r0, sl, lsl #26

80001c54 <.LC4>:
80001c54:	63767368 	cmnvs	r6, #104, 6	; 0xa0000001
80001c58:	6e69705f 	mcrvs	0, 3, r7, cr9, cr15, {2}
80001c5c:	0a292867 	beq	80a4be00 <end_bss+0xa49de3>
80001c60:	0000000d 	andeq	r0, r0, sp

80001c64 <.LC5>:
80001c64:	75746572 	ldrbvc	r6, [r4, #-1394]!	; 0x572
80001c68:	64656e72 	strbtvs	r6, [r5], #-3698	; 0xe72
80001c6c:	6f726620 	svcvs	0x00726620
80001c70:	7368206d 	cmnvc	r8, #109	; 0x6d
80001c74:	705f6376 	subsvc	r6, pc, r6, ror r3	; <UNPREDICTABLE>
80001c78:	28676e69 	stmdacs	r7!, {r0, r3, r5, r6, r9, sl, fp, sp, lr}^
80001c7c:	000d0a29 	andeq	r0, sp, r9, lsr #20

80001c80 <.LC6>:
80001c80:	63767368 	cmnvs	r6, #104, 6	; 0xa0000001
80001c84:	6569795f 	strbvs	r7, [r9, #-2399]!	; 0x95f
80001c88:	2928646c 	stmdbcs	r8!, {r2, r3, r5, r6, sl, sp, lr}
80001c8c:	00000d0a 	andeq	r0, r0, sl, lsl #26

80001c90 <.LC7>:
80001c90:	75746572 	ldrbvc	r6, [r4, #-1394]!	; 0x572
80001c94:	64656e72 	strbtvs	r6, [r5], #-3698	; 0xe72
80001c98:	6f726620 	svcvs	0x00726620
80001c9c:	7368206d 	cmnvc	r8, #109	; 0x6d
80001ca0:	795f6376 	ldmdbvc	pc, {r1, r2, r4, r5, r6, r8, r9, sp, lr}^	; <UNPREDICTABLE>
80001ca4:	646c6569 	strbtvs	r6, [ip], #-1385	; 0x569
80001ca8:	0d0a2928 	stceq	9, cr2, [sl, #-160]	; 0xffffff60
80001cac:	00000000 	andeq	r0, r0, r0

80001cb0 <.LC8>:
80001cb0:	6d6d6f63 	stclvs	15, cr6, [sp, #-396]!	; 0xfffffe74
80001cb4:	6e206e6f 	cdpvs	14, 2, cr6, cr0, cr15, {3}
80001cb8:	6c5f6d72 	mrrcvs	13, 7, r6, pc, cr2	; <UNPREDICTABLE>
80001cbc:	20706f6f 	rsbscs	r6, r0, pc, ror #30
80001cc0:	656e6f64 	strbvs	r6, [lr, #-3940]!	; 0xf64
80001cc4:	00000d0a 	andeq	r0, r0, sl, lsl #26

80001cc8 <.LC9>:
80001cc8:	2d4b5b0a 	vstrcs	d21, [fp, #-40]	; 0xffffffd8
80001ccc:	45505948 	ldrbmi	r5, [r0, #-2376]	; 0x948
80001cd0:	53495652 	movtpl	r5, #38482	; 0x9652
80001cd4:	545d524f 	ldrbpl	r5, [sp], #-591	; 0x24f
80001cd8:	23545345 	cmpcs	r4, #335544321	; 0x14000001
80001cdc:	54534e49 	ldrbpl	r4, [r3], #-3657	; 0xe49
80001ce0:	414c4c41 	cmpmi	ip, r1, asr #24
80001ce4:	4e4f4954 	mcrmi	9, 2, r4, cr15, cr4, {2}
80001ce8:	474d4223 	strbmi	r4, [sp, -r3, lsr #4]
80001cec:	54534555 	ldrbpl	r4, [r3], #-1365	; 0x555
80001cf0:	4f4f422d 	svcmi	0x004f422d
80001cf4:	41502354 	cmpmi	r0, r4, asr r3
80001cf8:	0d0a5353 	stceq	3, cr5, [sl, #-332]	; 0xfffffeb4
80001cfc:	00000000 	andeq	r0, r0, r0

80001d00 <.LC0>:
80001d00:	00000d0a 	andeq	r0, r0, sl, lsl #26

80001d04 <.LC1>:
80001d04:	7264696d 	rsbvc	r6, r4, #1785856	; 0x1b4000
80001d08:	0000003a 	andeq	r0, r0, sl, lsr r0

80001d0c <.LC2>:
80001d0c:	20636967 	rsbcs	r6, r3, r7, ror #18
80001d10:	65736162 	ldrbvs	r6, [r3, #-354]!	; 0x162
80001d14:	72646461 	rsbvc	r6, r4, #1627389952	; 0x61000000
80001d18:	0000003a 	andeq	r0, r0, sl, lsr r0

80001d1c <.LC3>:
80001d1c:	675f6162 	ldrbvs	r6, [pc, -r2, ror #2]
80001d20:	3a646369 	bcc	8191aacc <end_bss+0x1918aaf>
80001d24:	00000000 	andeq	r0, r0, r0

80001d28 <.LC4>:
80001d28:	44434947 	strbmi	r4, [r3], #-2375	; 0x947
80001d2c:	5059545f 	subspl	r5, r9, pc, asr r4
80001d30:	003a5245 	eorseq	r5, sl, r5, asr #4

80001d34 <.LC5>:
80001d34:	675f6162 	ldrbvs	r6, [pc, -r2, ror #2]
80001d38:	3a636369 	bcc	818daae4 <end_bss+0x18d8ac7>
80001d3c:	00000000 	andeq	r0, r0, r0

80001d40 <.LC6>:
80001d40:	43434947 	movtmi	r4, #14663	; 0x3947
80001d44:	4c54435f 	mrrcmi	3, 5, r4, r4, cr15	; <UNPREDICTABLE>
80001d48:	00003a52 	andeq	r3, r0, r2, asr sl

80001d4c <.LC7>:
80001d4c:	43494720 	movtmi	r4, #38688	; 0x9720
80001d50:	4d505f43 	ldclmi	15, cr5, [r0, #-268]	; 0xfffffef4
80001d54:	00003a52 	andeq	r3, r0, r2, asr sl

80001d58 <.LC8>:
80001d58:	43494720 	movtmi	r4, #38688	; 0x9720
80001d5c:	50425f43 	subpl	r5, r2, r3, asr #30
80001d60:	00003a52 	andeq	r3, r0, r2, asr sl

80001d64 <.LC9>:
80001d64:	43494720 	movtmi	r4, #38688	; 0x9720
80001d68:	50525f43 	subspl	r5, r2, r3, asr #30
80001d6c:	00003a52 	andeq	r3, r0, r2, asr sl

80001d70 <.LC10>:
80001d70:	43434947 	movtmi	r4, #14663	; 0x3947
80001d74:	5050485f 	subspl	r4, r0, pc, asr r8
80001d78:	003a5249 	eorseq	r5, sl, r9, asr #4

80001d7c <.LC11>:
80001d7c:	43434947 	movtmi	r4, #14663	; 0x3947
80001d80:	4449495f 	strbmi	r4, [r9], #-2399	; 0x95f
80001d84:	00003a52 	andeq	r3, r0, r2, asr sl

80001d88 <.LC12>:
80001d88:	76434947 	strbvc	r4, [r3], -r7, asr #18
80001d8c:	6e552032 	mrcvs	0, 2, r2, cr5, cr2, {1}
80001d90:	70707573 	rsbsvc	r7, r0, r3, ror r5
80001d94:	6574726f 	ldrbvs	r7, [r4, #-623]!	; 0x26f
80001d98:	000d0a64 	andeq	r0, sp, r4, ror #20

80001d9c <.LC13>:
80001d9c:	7264696d 	rsbvc	r6, r4, #1785856	; 0x1b4000
80001da0:	6e70702e 	cdpvs	0, 7, cr7, cr0, cr14, {1}
80001da4:	0000003a 	andeq	r0, r0, sl, lsr r0

80001da8 <.LC0>:
80001da8:	76656476 			; <UNDEFINED> instruction: 0x76656476
80001dac:	6d61735f 	stclvs	3, cr7, [r1, #-380]!	; 0xfffffe84
80001db0:	3a656c70 	bcc	8195cf78 <end_bss+0x195af5b>
80001db4:	61745320 	cmnvs	r4, r0, lsr #6
80001db8:	6e697472 	mcrvs	4, 3, r7, cr9, cr2, {3}
80001dbc:	65742067 	ldrbvs	r2, [r4, #-103]!	; 0x67
80001dc0:	2e2e7473 	mcrcs	4, 1, r7, cr14, cr3, {3}
80001dc4:	62202c2e 	eorvs	r2, r0, #11776	; 0x2e00
80001dc8:	3a657361 	bcc	8195eb54 <end_bss+0x195cb37>
80001dcc:	00000000 	andeq	r0, r0, r0

80001dd0 <.LC1>:
80001dd0:	00000d0a 	andeq	r0, r0, sl, lsl #26

80001dd4 <.LC2>:
80001dd4:	00283176 	eoreq	r3, r8, r6, ror r1

80001dd8 <.LC3>:
80001dd8:	32762b29 	rsbscc	r2, r6, #41984	; 0xa400
80001ddc:	00000028 	andeq	r0, r0, r8, lsr #32

80001de0 <.LC4>:
80001de0:	000d0a29 	andeq	r0, sp, r9, lsr #20

80001de4 <.LC5>:
80001de4:	20202020 	eorcs	r2, r0, r0, lsr #32
80001de8:	2872203d 	ldmdacs	r2!, {r0, r2, r3, r4, r5, sp}^
80001dec:	00000000 	andeq	r0, r0, r0

80001df0 <.LC6>:
80001df0:	202d2029 	eorcs	r2, sp, r9, lsr #32
80001df4:	00004b4f 	andeq	r4, r0, pc, asr #22

80001df8 <.LC7>:
80001df8:	202d2029 	eorcs	r2, sp, r9, lsr #32
80001dfc:	4c494146 	stfmie	f4, [r9], {70}	; 0x46
80001e00:	00004445 	andeq	r4, r0, r5, asr #8

80001e04 <.LC8>:
80001e04:	76656476 			; <UNDEFINED> instruction: 0x76656476
80001e08:	6d61735f 	stclvs	3, cr7, [r1, #-380]!	; 0xfffffe84
80001e0c:	3a656c70 	bcc	8195cfd4 <end_bss+0x195afb7>
80001e10:	646e4520 	strbtvs	r4, [lr], #-1312	; 0x520
80001e14:	00000d0a 	andeq	r0, r0, sl, lsl #26

80001e18 <hexchars.3940>:
80001e18:	33323130 	teqcc	r2, #48, 2
80001e1c:	37363534 			; <UNDEFINED> instruction: 0x37363534
80001e20:	42413938 	submi	r3, r1, #56, 18	; 0xe0000
80001e24:	46454443 	strbmi	r4, [r5], -r3, asr #8
80001e28:	00000000 	andeq	r0, r0, r0

80001e2c <.LC0>:
80001e2c:	00007830 	andeq	r7, r0, r0, lsr r8

80001e30 <.LC0>:
80001e30:	3d3d3d3d 	ldccc	13, cr3, [sp, #-244]!	; 0xffffff0c
80001e34:	3d3d3d3d 	ldccc	13, cr3, [sp, #-244]!	; 0xffffff0c
80001e38:	3d3d3d3d 	ldccc	13, cr3, [sp, #-244]!	; 0xffffff0c
80001e3c:	3d3d3d3d 	ldccc	13, cr3, [sp, #-244]!	; 0xffffff0c
80001e40:	3d3d3d3d 	ldccc	13, cr3, [sp, #-244]!	; 0xffffff0c
80001e44:	3d3d3d3d 	ldccc	13, cr3, [sp, #-244]!	; 0xffffff0c
80001e48:	3d3d3d3d 	ldccc	13, cr3, [sp, #-244]!	; 0xffffff0c
80001e4c:	3d3d3d3d 	ldccc	13, cr3, [sp, #-244]!	; 0xffffff0c
80001e50:	3d3d3d3d 	ldccc	13, cr3, [sp, #-244]!	; 0xffffff0c
80001e54:	0a3d3d3d 	beq	80f51350 <end_bss+0xf4f333>
80001e58:	0000000d 	andeq	r0, r0, sp

80001e5c <.LC1>:
80001e5c:	30387073 	eorscc	r7, r8, r3, ror r0
80001e60:	00003a34 	andeq	r3, r0, r4, lsr sl

80001e64 <.LC2>:
80001e64:	00000d0a 	andeq	r0, r0, sl, lsl #26

Disassembly of section .data:

80001e68 <base>:
80001e68:	3fffe000 	svccc	0x00ffe000

Disassembly of section .bss:

80001e6c <begin_bss>:
	...

8000201c <_dummy_byte>:
	...

Disassembly of section .ARM.attributes:

00000000 <.ARM.attributes>:
   0:	00003d41 	andeq	r3, r0, r1, asr #26
   4:	61656100 	cmnvs	r5, r0, lsl #2
   8:	01006962 	tsteq	r0, r2, ror #18
   c:	00000033 	andeq	r0, r0, r3, lsr r0
  10:	726f4305 	rsbvc	r4, pc, #335544320	; 0x14000000
  14:	2d786574 	cfldr64cs	mvdx6, [r8, #-464]!	; 0xfffffe30
  18:	00353141 	eorseq	r3, r5, r1, asr #2
  1c:	41070a06 	tstmi	r7, r6, lsl #20
  20:	02090108 	andeq	r0, r9, #8, 2
  24:	0412040a 	ldreq	r0, [r2], #-1034	; 0x40a
  28:	01150114 	tsteq	r5, r4, lsl r1
  2c:	01180317 	tsteq	r8, r7, lsl r3
  30:	031b021a 	tsteq	fp, #-1610612735	; 0xa0000001
  34:	0122011c 	teqeq	r2, ip, lsl r1
  38:	022c012a 	eoreq	r0, ip, #-2147483638	; 0x8000000a
  3c:	Address 0x000000000000003c is out of bounds.


Disassembly of section .comment:

00000000 <.comment>:
   0:	3a434347 	bcc	10d0d24 <GUEST_OFFSET-0x7ef2f2dc>
   4:	62552820 	subsvs	r2, r5, #32, 16	; 0x200000
   8:	75746e75 	ldrbvc	r6, [r4, #-3701]!	; 0xe75
   c:	6e694c2f 	cdpvs	12, 6, cr4, cr9, cr15, {1}
  10:	206f7261 	rsbcs	r7, pc, r1, ror #4
  14:	2e372e34 	mrccs	14, 1, r2, cr7, cr4, {1}
  18:	31312d33 	teqcc	r1, r3, lsr sp
  1c:	6e756275 	mrcvs	2, 3, r6, cr5, cr5, {3}
  20:	29317574 	ldmdbcs	r1!, {r2, r4, r5, r6, r8, sl, ip, sp, lr}
  24:	372e3420 	strcc	r3, [lr, -r0, lsr #8]!
  28:	Address 0x0000000000000028 is out of bounds.


Disassembly of section .debug_line:

00000000 <.debug_line>:
   0:	00000032 	andeq	r0, r0, r2, lsr r0
   4:	001d0002 	andseq	r0, sp, r2
   8:	01020000 	mrseq	r0, (UNDEF: 2)
   c:	000d0efb 	strdeq	r0, [sp], -fp
  10:	01010101 	tsteq	r1, r1, lsl #2
  14:	01000000 	mrseq	r0, (UNDEF: 0)
  18:	00010000 	andeq	r0, r1, r0
  1c:	746f6f62 	strbtvc	r6, [pc], #-3938	; 24 <GUEST_OFFSET-0x7fffffdc>
  20:	0000532e 	andeq	r5, r0, lr, lsr #6
  24:	00000000 	andeq	r0, r0, r0
  28:	00000205 	andeq	r0, r0, r5, lsl #4
  2c:	0f038000 	svceq	0x00038000
  30:	00020201 	andeq	r0, r2, r1, lsl #4
  34:	003b0101 	eorseq	r0, fp, r1, lsl #2
  38:	00020000 	andeq	r0, r2, r0
  3c:	0000001d 	andeq	r0, r0, sp, lsl r0
  40:	0efb0102 	cdpeq	1, 15, cr0, cr11, cr2, {0}
  44:	0101000d 	tsteq	r1, sp
  48:	00000101 	andeq	r0, r0, r1, lsl #2
  4c:	00000100 	andeq	r0, r0, r0, lsl #2
  50:	616d0001 	cmnvs	sp, r1
  54:	632e6e69 	teqvs	lr, #1680	; 0x690
  58:	00000000 	andeq	r0, r0, r0
  5c:	02050000 	andeq	r0, r5, #0
  60:	80000004 	andhi	r0, r0, r4
  64:	4c011303 	stcmi	3, cr1, [r1], {3}
  68:	04020067 	streq	r0, [r2], #-103	; 0x67
  6c:	66190301 	ldrvs	r0, [r9], -r1, lsl #6
  70:	01000202 	tsteq	r0, r2, lsl #4
  74:	00008f01 	andeq	r8, r0, r1, lsl #30
  78:	3e000200 	cdpcc	2, 0, cr0, cr0, cr0, {0}
  7c:	02000000 	andeq	r0, r0, #0
  80:	0d0efb01 	vstreq	d15, [lr, #-4]
  84:	01010100 	mrseq	r0, (UNDEF: 17)
  88:	00000001 	andeq	r0, r0, r1
  8c:	01000001 	tsteq	r0, r1
  90:	2e2f2e2e 	cdpcs	14, 2, cr2, cr15, cr14, {1}
  94:	2e2e2f2e 	cdpcs	15, 2, cr2, cr14, cr14, {1}
  98:	2f2e2e2f 	svccs	0x002e2e2f
  9c:	6d6d6f63 	stclvs	15, cr6, [sp, #-396]!	; 0xfffffe74
  a0:	672f6e6f 	strvs	r6, [pc, -pc, ror #28]!
  a4:	74736575 	ldrbtvc	r6, [r3], #-1397	; 0x575
  a8:	726f632f 	rsbvc	r6, pc, #-1140850688	; 0xbc000000
  ac:	63000065 	movwvs	r0, #101	; 0x65
  b0:	6174735f 	cmnvs	r4, pc, asr r3
  b4:	632e7472 	teqvs	lr, #1912602624	; 0x72000000
  b8:	00000100 	andeq	r0, r0, r0, lsl #2
  bc:	02050000 	andeq	r0, r5, #0
  c0:	80000028 	andhi	r0, r0, r8, lsr #32
  c4:	67013303 	strvs	r3, [r1, -r3, lsl #6]
  c8:	0402004b 	streq	r0, [r2], #-75	; 0x4b
  cc:	00660602 	rsbeq	r0, r6, r2, lsl #12
  d0:	66010402 	strvs	r0, [r1], -r2, lsl #8
  d4:	67698406 	strbvs	r8, [r9, -r6, lsl #8]!
  d8:	68692f4e 	stmdavs	r9!, {r1, r2, r3, r6, r8, r9, sl, fp, sp}^
  dc:	09034c30 	stmdbeq	r3, {r4, r5, sl, fp, lr}
  e0:	6767672e 	strbvs	r6, [r7, -lr, lsr #14]!
  e4:	83336767 	teqhi	r3, #27000832	; 0x19c0000
  e8:	672f6767 	strvs	r6, [pc, -r7, ror #14]!
  ec:	2f676784 	svccs	0x00676784
  f0:	63036e67 	movwvs	r6, #15975	; 0x3e67
  f4:	0402002e 	streq	r0, [r2], #-46	; 0x2e
  f8:	06660601 	strbteq	r0, [r6], -r1, lsl #12
  fc:	67822003 	strvs	r2, [r2, r3]
 100:	022f6867 	eoreq	r6, pc, #6750208	; 0x670000
 104:	01010004 	tsteq	r1, r4
 108:	0000005b 	andeq	r0, r0, fp, asr r0
 10c:	00400002 	subeq	r0, r0, r2
 110:	01020000 	mrseq	r0, (UNDEF: 2)
 114:	000d0efb 	strdeq	r0, [sp], -fp
 118:	01010101 	tsteq	r1, r1, lsl #2
 11c:	01000000 	mrseq	r0, (UNDEF: 0)
 120:	2e010000 	cdpcs	0, 0, cr0, cr1, cr0, {0}
 124:	2e2e2f2e 	cdpcs	15, 2, cr2, cr14, cr14, {1}
 128:	2f2e2e2f 	svccs	0x002e2e2f
 12c:	632f2e2e 	teqvs	pc, #736	; 0x2e0
 130:	6f6d6d6f 	svcvs	0x006d6d6f
 134:	75672f6e 	strbvc	r2, [r7, #-3950]!	; 0xf6e
 138:	2f747365 	svccs	0x00747365
 13c:	65726f63 	ldrbvs	r6, [r2, #-3939]!	; 0xf63
 140:	78650000 	stmdavc	r5!, {}^	; <UNPREDICTABLE>
 144:	74706563 	ldrbtvc	r6, [r0], #-1379	; 0x563
 148:	2e6e6f69 	cdpcs	15, 6, cr6, cr14, cr9, {3}
 14c:	00010063 	andeq	r0, r1, r3, rrx
 150:	05000000 	streq	r0, [r0, #-0]
 154:	0001bc02 	andeq	fp, r1, r2, lsl #24
 158:	010a0380 	smlabbeq	sl, r0, r3, r0
 15c:	69836983 	stmibvs	r3, {r0, r1, r7, r8, fp, sp, lr}
 160:	04026783 	streq	r6, [r2], #-1923	; 0x783
 164:	46010100 	strmi	r0, [r1], -r0, lsl #2
 168:	02000001 	andeq	r0, r0, #1
 16c:	00008700 	andeq	r8, r0, r0, lsl #14
 170:	fb010200 	blx	4097a <GUEST_OFFSET-0x7ffbf686>
 174:	01000d0e 	tsteq	r0, lr, lsl #26
 178:	00010101 	andeq	r0, r1, r1, lsl #2
 17c:	00010000 	andeq	r0, r1, r0
 180:	2e2e0100 	sufcse	f0, f6, f0
 184:	2f2e2e2f 	svccs	0x002e2e2f
 188:	2e2f2e2e 	cdpcs	14, 2, cr2, cr15, cr14, {1}
 18c:	6f632f2e 	svcvs	0x00632f2e
 190:	6e6f6d6d 	cdpvs	13, 6, cr6, cr15, cr13, {3}
 194:	636e692f 	cmnvs	lr, #770048	; 0xbc000
 198:	6564756c 	strbvs	r7, [r4, #-1388]!	; 0x56c
 19c:	2f2e2e00 	svccs	0x002e2e00
 1a0:	2e2f2e2e 	cdpcs	14, 2, cr2, cr15, cr14, {1}
 1a4:	2e2e2f2e 	cdpcs	15, 2, cr2, cr14, cr14, {1}
 1a8:	6d6f632f 	stclvs	3, cr6, [pc, #-188]!	; f4 <GUEST_OFFSET-0x7fffff0c>
 1ac:	2f6e6f6d 	svccs	0x006e6f6d
 1b0:	73657567 	cmnvc	r5, #432013312	; 0x19c00000
 1b4:	6f632f74 	svcvs	0x00632f74
 1b8:	00006572 	andeq	r6, r0, r2, ror r5
 1bc:	2e706d73 	mrccs	13, 3, r6, cr0, cr3, {3}
 1c0:	00010068 	andeq	r0, r1, r8, rrx
 1c4:	63696700 	cmnvs	r9, #0, 14
 1c8:	0200632e 	andeq	r6, r0, #-1207959552	; 0xb8000000
 1cc:	72610000 	rsbvc	r0, r1, #0
 1d0:	745f6863 	ldrbvc	r6, [pc], #-2147	; 1d8 <GUEST_OFFSET-0x7ffffe28>
 1d4:	73657079 	cmnvc	r5, #121	; 0x79
 1d8:	0100682e 	tsteq	r0, lr, lsr #16
 1dc:	76680000 	strbtvc	r0, [r8], -r0
 1e0:	745f6d6d 	ldrbvc	r6, [pc], #-3437	; 1e8 <GUEST_OFFSET-0x7ffffe18>
 1e4:	73657079 	cmnvc	r5, #121	; 0x79
 1e8:	0100682e 	tsteq	r0, lr, lsr #16
 1ec:	69670000 	stmdbvs	r7!, {}^	; <UNPREDICTABLE>
 1f0:	00682e63 	rsbeq	r2, r8, r3, ror #28
 1f4:	00000002 	andeq	r0, r0, r2
 1f8:	18020500 	stmdane	r2, {r8, sl}
 1fc:	03800002 	orreq	r0, r0, #2
 200:	83670115 	cmnhi	r7, #1073741829	; 0x40000005
 204:	22030204 	andcs	r0, r3, #4, 4	; 0x40000000
 208:	bbbb6982 	bllt	feeda818 <guest_stacklimit+0x6eeda818>
 20c:	bcbbbbbb 	fldmiaxlt	fp!, {d11-d103}	;@ Deprecated
 210:	67d7839f 	bfcvs	r8, #7, #17
 214:	68d7839f 	ldmvs	r7, {r0, r1, r2, r3, r4, r7, r8, r9, pc}^
 218:	6783694d 	strvs	r6, [r3, sp, asr #18]
 21c:	67bc674b 	ldrvs	r6, [ip, fp, asr #14]!
 220:	9f67679f 	svcls	0x0067679f
 224:	67d76767 	ldrbvs	r6, [r7, r7, ror #14]
 228:	67679f67 	strbvs	r9, [r7, -r7, ror #30]!
 22c:	d76767bb 			; <UNDEFINED> instruction: 0xd76767bb
 230:	67d76767 	ldrbvs	r6, [r7, r7, ror #14]
 234:	6767d767 	strbvs	sp, [r7, -r7, ror #14]!
 238:	d76767d7 			; <UNDEFINED> instruction: 0xd76767d7
 23c:	844d3168 	strbhi	r3, [sp], #-360	; 0x168
 240:	4b67834c 	blmi	19e0f78 <GUEST_OFFSET-0x7e61f088>
 244:	f383bb6d 			; <UNDEFINED> instruction: 0xf383bb6d
 248:	676768f3 			; <UNDEFINED> instruction: 0x676768f3
 24c:	2f4d679f 	svccs	0x004d679f
 250:	9108836b 	tstls	r8, fp, ror #6
 254:	0883852f 	stmeq	r3, {r0, r1, r2, r3, r5, r8, sl, pc}
 258:	bb862f91 	bllt	fe18c0a4 <guest_stacklimit+0x6e18c0a4>
 25c:	3d08674b 	stccc	7, cr6, [r8, #-300]	; 0xfffffed4
 260:	67852f4c 	strvs	r2, [r5, ip, asr #30]
 264:	0402004d 	streq	r0, [r2], #-77	; 0x4d
 268:	02006702 	andeq	r6, r0, #524288	; 0x80000
 26c:	3b080204 	blcc	200a84 <GUEST_OFFSET-0x7fdff57c>
 270:	01040200 	mrseq	r0, R12_usr
 274:	69066606 	stmdbvs	r6, {r1, r2, r9, sl, sp, lr}
 278:	bb3e0868 	bllt	f82420 <GUEST_OFFSET-0x7f07dbe0>
 27c:	4b833067 	blmi	fe0cc420 <guest_stacklimit+0x6e0cc420>
 280:	0200a067 	andeq	sl, r0, #103	; 0x67
 284:	00670204 	rsbeq	r0, r7, r4, lsl #4
 288:	08020402 	stmdaeq	r2, {r1, sl}
 28c:	0402001f 	streq	r0, [r2], #-31
 290:	06660601 	strbteq	r0, [r6], -r1, lsl #12
 294:	a6692f69 	strbtge	r2, [r9], -r9, ror #30
 298:	679f4d4c 	ldrvs	r4, [pc, ip, asr #26]
 29c:	9f6767bb 	svcls	0x006767bb
 2a0:	699f6767 	ldmibvs	pc, {r0, r1, r2, r5, r6, r8, r9, sl, sp, lr}	; <UNPREDICTABLE>
 2a4:	af085908 	svcge	0x00085908
 2a8:	ba0903bb 	blt	24119c <GUEST_OFFSET-0x7fdbee64>
 2ac:	01000402 	tsteq	r0, r2, lsl #8
 2b0:	0000ad01 	andeq	sl, r0, r1, lsl #26
 2b4:	72000200 	andvc	r0, r0, #0, 4
 2b8:	02000000 	andeq	r0, r0, #0
 2bc:	0d0efb01 	vstreq	d15, [lr, #-4]
 2c0:	01010100 	mrseq	r0, (UNDEF: 17)
 2c4:	00000001 	andeq	r0, r0, r1
 2c8:	01000001 	tsteq	r0, r1
 2cc:	2e2f2e2e 	cdpcs	14, 2, cr2, cr15, cr14, {1}
 2d0:	2e2e2f2e 	cdpcs	15, 2, cr2, cr14, cr14, {1}
 2d4:	2f2e2e2f 	svccs	0x002e2e2f
 2d8:	6d6d6f63 	stclvs	15, cr6, [sp, #-396]!	; 0xfffffe74
 2dc:	672f6e6f 	strvs	r6, [pc, -pc, ror #28]!
 2e0:	74736575 	ldrbtvc	r6, [r3], #-1397	; 0x575
 2e4:	7365742f 	cmnvc	r5, #788529152	; 0x2f000000
 2e8:	2e2e0074 	mcrcs	0, 1, r0, cr14, cr4, {3}
 2ec:	2f2e2e2f 	svccs	0x002e2e2f
 2f0:	2e2f2e2e 	cdpcs	14, 2, cr2, cr15, cr14, {1}
 2f4:	6f632f2e 	svcvs	0x00632f2e
 2f8:	6e6f6d6d 	cdpvs	13, 6, cr6, cr15, cr13, {3}
 2fc:	636e692f 	cmnvs	lr, #770048	; 0xbc000
 300:	6564756c 	strbvs	r7, [r4, #-1388]!	; 0x56c
 304:	65740000 	ldrbvs	r0, [r4, #-0]!
 308:	765f7473 			; <UNDEFINED> instruction: 0x765f7473
 30c:	5f766564 	svcpl	0x00766564
 310:	706d6173 	rsbvc	r6, sp, r3, ror r1
 314:	632e656c 	teqvs	lr, #108, 10	; 0x1b000000
 318:	00000100 	andeq	r0, r0, r0, lsl #2
 31c:	68637261 	stmdavs	r3!, {r0, r5, r6, r9, ip, sp, lr}^
 320:	7079745f 	rsbsvc	r7, r9, pc, asr r4
 324:	682e7365 	stmdavs	lr!, {r0, r2, r5, r6, r8, r9, ip, sp, lr}
 328:	00000200 	andeq	r0, r0, r0, lsl #4
 32c:	02050000 	andeq	r0, r5, #0
 330:	80000aa0 	andhi	r0, r0, r0, lsr #21
 334:	67010a03 	strvs	r0, [r1, -r3, lsl #20]
 338:	69674b67 	stmdbvs	r7!, {r0, r1, r2, r5, r6, r8, r9, fp, lr}^
 33c:	67676767 	strbvs	r6, [r7, -r7, ror #14]!
 340:	6767bb83 	strbvs	fp, [r7, -r3, lsl #23]!
 344:	67676767 	strbvs	r6, [r7, -r7, ror #14]!
 348:	67676767 	strbvs	r6, [r7, -r7, ror #14]!
 34c:	036884bb 	cmneq	r8, #-1157627904	; 0xbb000000
 350:	0200666e 	andeq	r6, r0, #115343360	; 0x6e00000
 354:	66060104 	strvs	r0, [r6], -r4, lsl #2
 358:	66140306 	ldrvs	r0, [r4], -r6, lsl #6
 35c:	00040267 	andeq	r0, r4, r7, ror #4
 360:	00820101 	addeq	r0, r2, r1, lsl #2
 364:	00020000 	andeq	r0, r2, r0
 368:	0000006d 	andeq	r0, r0, sp, rrx
 36c:	0efb0102 	cdpeq	1, 15, cr0, cr11, cr2, {0}
 370:	0101000d 	tsteq	r1, sp
 374:	00000101 	andeq	r0, r0, r1, lsl #2
 378:	00000100 	andeq	r0, r0, r0, lsl #2
 37c:	2f2e2e01 	svccs	0x002e2e01
 380:	2e2f2e2e 	cdpcs	14, 2, cr2, cr15, cr14, {1}
 384:	2e2e2f2e 	cdpcs	15, 2, cr2, cr14, cr14, {1}
 388:	6d6f632f 	stclvs	3, cr6, [pc, #-188]!	; 2d4 <GUEST_OFFSET-0x7ffffd2c>
 38c:	2f6e6f6d 	svccs	0x006e6f6d
 390:	73657567 	cmnvc	r5, #432013312	; 0x19c00000
 394:	65742f74 	ldrbvs	r2, [r4, #-3956]!	; 0xf74
 398:	2e007473 	mcrcs	4, 0, r7, cr0, cr3, {3}
 39c:	2e2e2f2e 	cdpcs	15, 2, cr2, cr14, cr14, {1}
 3a0:	2f2e2e2f 	svccs	0x002e2e2f
 3a4:	632f2e2e 	teqvs	pc, #736	; 0x2e0
 3a8:	6f6d6d6f 	svcvs	0x006d6d6f
 3ac:	6e692f6e 	cdpvs	15, 6, cr2, cr9, cr14, {3}
 3b0:	64756c63 	ldrbtvs	r6, [r5], #-3171	; 0xc63
 3b4:	74000065 	strvc	r0, [r0], #-101	; 0x65
 3b8:	5f747365 	svcpl	0x00747365
 3bc:	6d697476 	cfstrdvs	mvd7, [r9, #-472]!	; 0xfffffe28
 3c0:	632e7265 	teqvs	lr, #1342177286	; 0x50000006
 3c4:	00000100 	andeq	r0, r0, r0, lsl #2
 3c8:	68637261 	stmdavs	r3!, {r0, r5, r6, r9, ip, sp, lr}^
 3cc:	7079745f 	rsbsvc	r7, r9, pc, asr r4
 3d0:	682e7365 	stmdavs	lr!, {r0, r2, r5, r6, r8, r9, ip, sp, lr}
 3d4:	00000200 	andeq	r0, r0, r0, lsl #4
 3d8:	02050000 	andeq	r0, r5, #0
 3dc:	80000c14 	andhi	r0, r0, r4, lsl ip
 3e0:	029f831a 	addseq	r8, pc, #1744830464	; 0x68000000
 3e4:	01010006 	tsteq	r1, r6
 3e8:	00000254 	andeq	r0, r0, r4, asr r2
 3ec:	00d40002 	sbcseq	r0, r4, r2
 3f0:	01020000 	mrseq	r0, (UNDEF: 2)
 3f4:	000d0efb 	strdeq	r0, [sp], -fp
 3f8:	01010101 	tsteq	r1, r1, lsl #2
 3fc:	01000000 	mrseq	r0, (UNDEF: 0)
 400:	2e010000 	cdpcs	0, 0, cr0, cr1, cr0, {0}
 404:	2e2e2f2e 	cdpcs	15, 2, cr2, cr14, cr14, {1}
 408:	2f2e2e2f 	svccs	0x002e2e2f
 40c:	632f2e2e 	teqvs	pc, #736	; 0x2e0
 410:	6f6d6d6f 	svcvs	0x006d6d6f
 414:	6f6c2f6e 	svcvs	0x006c2f6e
 418:	752f0067 	strvc	r0, [pc, #-103]!	; 3b9 <GUEST_OFFSET-0x7ffffc47>
 41c:	6c2f7273 	sfmvs	f7, 4, [pc], #-460	; 258 <GUEST_OFFSET-0x7ffffda8>
 420:	672f6269 	strvs	r6, [pc, -r9, ror #4]!
 424:	632d6363 	teqvs	sp, #-1946157055	; 0x8c000001
 428:	73736f72 	cmnvc	r3, #456	; 0x1c8
 42c:	6d72612f 	ldfvse	f6, [r2, #-188]!	; 0xffffff44
 430:	6e696c2d 	cdpvs	12, 6, cr6, cr9, cr13, {1}
 434:	672d7875 			; <UNDEFINED> instruction: 0x672d7875
 438:	6165756e 	cmnvs	r5, lr, ror #10
 43c:	66686962 	strbtvs	r6, [r8], -r2, ror #18
 440:	372e342f 	strcc	r3, [lr, -pc, lsr #8]!
 444:	2f2e2e2f 	svccs	0x002e2e2f
 448:	2e2f2e2e 	cdpcs	14, 2, cr2, cr15, cr14, {1}
 44c:	2e2e2f2e 	cdpcs	15, 2, cr2, cr14, cr14, {1}
 450:	6d72612f 	ldfvse	f6, [r2, #-188]!	; 0xffffff44
 454:	6e696c2d 	cdpvs	12, 6, cr6, cr9, cr13, {1}
 458:	672d7875 			; <UNDEFINED> instruction: 0x672d7875
 45c:	6165756e 	cmnvs	r5, lr, ror #10
 460:	66686962 	strbtvs	r6, [r8], -r2, ror #18
 464:	636e692f 	cmnvs	lr, #770048	; 0xbc000
 468:	6564756c 	strbvs	r7, [r4, #-1388]!	; 0x56c
 46c:	73752f00 	cmnvc	r5, #0, 30
 470:	696c2f72 	stmdbvs	ip!, {r1, r4, r5, r6, r8, r9, sl, fp, sp}^
 474:	63672f62 	cmnvs	r7, #392	; 0x188
 478:	72632d63 	rsbvc	r2, r3, #6336	; 0x18c0
 47c:	2f73736f 	svccs	0x0073736f
 480:	2d6d7261 	sfmcs	f7, 2, [sp, #-388]!	; 0xfffffe7c
 484:	756e696c 	strbvc	r6, [lr, #-2412]!	; 0x96c
 488:	6e672d78 	mcrvs	13, 3, r2, cr7, cr8, {3}
 48c:	62616575 	rsbvs	r6, r1, #490733568	; 0x1d400000
 490:	2f666869 	svccs	0x00666869
 494:	2f372e34 	svccs	0x00372e34
 498:	6c636e69 	stclvs	14, cr6, [r3], #-420	; 0xfffffe5c
 49c:	00656475 	rsbeq	r6, r5, r5, ror r4
 4a0:	72747300 	rsbsvc	r7, r4, #0, 6
 4a4:	2e676e69 	cdpcs	14, 6, cr6, cr7, cr9, {3}
 4a8:	00010063 	andeq	r0, r1, r3, rrx
 4ac:	72747300 	rsbsvc	r7, r4, #0, 6
 4b0:	2e676e69 	cdpcs	14, 6, cr6, cr7, cr9, {3}
 4b4:	00020068 	andeq	r0, r2, r8, rrx
 4b8:	64747300 	ldrbtvs	r7, [r4], #-768	; 0x300
 4bc:	2e666564 	cdpcs	5, 6, cr6, cr6, cr4, {3}
 4c0:	00030068 	andeq	r0, r3, r8, rrx
 4c4:	05000000 	streq	r0, [r0, #-0]
 4c8:	000c4402 	andeq	r4, ip, r2, lsl #8
 4cc:	83bb1580 			; <UNDEFINED> instruction: 0x83bb1580
 4d0:	0402002f 	streq	r0, [r2], #-47	; 0x2f
 4d4:	083b0801 	ldmdaeq	fp!, {r0, fp}
 4d8:	bb852f3f 	bllt	fe14c1dc <guest_stacklimit+0x6e14c1dc>
 4dc:	2f68499f 	svccs	0x0068499f
 4e0:	01040200 	mrseq	r0, R12_usr
 4e4:	3f083b08 	svccc	0x00083b08
 4e8:	9fbb852f 	svcls	0x00bb852f
 4ec:	bc83bb69 	fstmiaxlt	r3, {d11-d62}	;@ Deprecated
 4f0:	4bbb699f 	blmi	feedab74 <guest_stacklimit+0x6eedab74>
 4f4:	0200672f 	andeq	r6, r0, #12320768	; 0xbc0000
 4f8:	00640104 	rsbeq	r0, r4, r4, lsl #2
 4fc:	06020402 	streq	r0, [r2], -r2, lsl #8
 500:	67be0666 	ldrvs	r0, [lr, r6, ror #12]!
 504:	83852f4c 	orrhi	r2, r5, #76, 30	; 0x130
 508:	02002f4b 	andeq	r2, r0, #300	; 0x12c
 50c:	84650104 	strbthi	r0, [r5], #-260	; 0x104
 510:	4bbb8567 	blmi	feee1ab4 <guest_stacklimit+0x6eee1ab4>
 514:	0402002f 	streq	r0, [r2], #-47	; 0x2f
 518:	3e08d501 	cfsh32cc	mvfx13, mvfx8, #1
 51c:	4bbb852f 	blmi	feee19e0 <guest_stacklimit+0x6eee19e0>
 520:	4bbb2f4b 	blmi	feecc254 <guest_stacklimit+0x6eecc254>
 524:	00674cbb 	strhteq	r4, [r7], #-203	; 0xffffff35
 528:	03010402 	movweq	r0, #5122	; 0x1402
 52c:	09036679 	stmdbeq	r3, {r0, r3, r4, r5, r6, r9, sl, sp, lr}
 530:	852f3c08 	strhi	r3, [pc, #-3080]!	; fffff930 <guest_stacklimit+0x6ffff930>
 534:	4bbb2f9f 	blmi	feecc3b8 <guest_stacklimit+0x6eecc3b8>
 538:	00674cbb 	strhteq	r4, [r7], #-203	; 0xffffff35
 53c:	03010402 	movweq	r0, #5122	; 0x1402
 540:	02006679 	andeq	r6, r0, #126877696	; 0x7900000
 544:	82060204 	andhi	r0, r6, #4, 4	; 0x40000000
 548:	82090306 	andhi	r0, r9, #402653184	; 0x18000000
 54c:	01040200 	mrseq	r0, R12_usr
 550:	83068206 	movwhi	r8, #25094	; 0x6206
 554:	2f4c834b 	svccs	0x004c834b
 558:	bb2fbb85 	bllt	bef374 <GUEST_OFFSET-0x7f410c8c>
 55c:	674bbb4b 	strbvs	fp, [fp, -fp, asr #22]
 560:	01040200 	mrseq	r0, R12_usr
 564:	00667a03 	rsbeq	r7, r6, r3, lsl #20
 568:	06020402 	streq	r0, [r2], -r2, lsl #8
 56c:	04020082 	streq	r0, [r2], #-130	; 0x82
 570:	08068201 	stmdaeq	r6, {r0, r9, pc}
 574:	04020044 	streq	r0, [r2], #-68	; 0x44
 578:	06660601 	strbteq	r0, [r6], -r1, lsl #12
 57c:	4c834bf3 	fstmiaxmi	r3, {d4-d124}	;@ Deprecated
 580:	4b9f852f 	blmi	fe7e1a44 <guest_stacklimit+0x6e7e1a44>
 584:	0402002f 	streq	r0, [r2], #-47	; 0x2f
 588:	02006501 	andeq	r6, r0, #4194304	; 0x400000
 58c:	82060204 	andhi	r0, r6, #4, 4	; 0x40000000
 590:	4c83bd06 	stcmi	13, cr11, [r3], {6}
 594:	00a0852f 	adceq	r8, r0, pc, lsr #10
 598:	67020402 	strvs	r0, [r2, -r2, lsl #8]
 59c:	02040200 	andeq	r0, r4, #0, 4
 5a0:	040200f1 	streq	r0, [r2], #-241	; 0xf1
 5a4:	06660601 	strbteq	r0, [r6], -r1, lsl #12
 5a8:	852f9fbd 	strhi	r9, [pc, #-4029]!	; fffff5f3 <guest_stacklimit+0x6ffff5f3>
 5ac:	004c4b83 	subeq	r4, ip, r3, lsl #23
 5b0:	06010402 	streq	r0, [r1], -r2, lsl #8
 5b4:	4c9f0682 	ldcmi	6, cr0, [pc], {130}	; 0x82
 5b8:	0402002f 	streq	r0, [r2], #-47	; 0x2f
 5bc:	06ba0601 	ldrteq	r0, [sl], r1, lsl #12
 5c0:	003d08bb 	ldrhteq	r0, [sp], -fp
 5c4:	06010402 	streq	r0, [r1], -r2, lsl #8
 5c8:	08bb06ba 	ldmeq	fp!, {r1, r3, r4, r5, r7, r9, sl}
 5cc:	0402003d 	streq	r0, [r2], #-61	; 0x3d
 5d0:	06ba0601 	ldrteq	r0, [sl], r1, lsl #12
 5d4:	032108bb 	teqeq	r1, #12255232	; 0xbb0000
 5d8:	02008279 	andeq	r8, r0, #-1879048185	; 0x90000007
 5dc:	2e060104 	adfcss	f0, f6, f4
 5e0:	ba0a0306 	blt	281200 <GUEST_OFFSET-0x7fd7ee00>
 5e4:	4d9f852f 	cfldr32mi	mvfx8, [pc, #188]	; 6a8 <GUEST_OFFSET-0x7ffff958>
 5e8:	04020067 	streq	r0, [r2], #-103	; 0x67
 5ec:	06660601 	strbteq	r0, [r6], -r1, lsl #12
 5f0:	842df3f6 	strthi	pc, [sp], #-1014	; 0x3f6
 5f4:	02002b7e 	andeq	r2, r0, #129024	; 0x1f800
 5f8:	66060104 	strvs	r0, [r6], -r4, lsl #2
 5fc:	66090306 	strvs	r0, [r9], -r6, lsl #6
 600:	9f689f67 	svcls	0x00689f67
 604:	002f9f69 	eoreq	r9, pc, r9, ror #30
 608:	65010402 	strvs	r0, [r1, #-1026]	; 0x402
 60c:	67832f85 	strvs	r2, [r3, r5, lsl #31]
 610:	01040200 	mrseq	r0, R12_usr
 614:	2f678763 	svccs	0x00678763
 618:	bbbc8385 	bllt	fef21434 <guest_stacklimit+0x6ef21434>
 61c:	082f694b 	stmdaeq	pc!, {r0, r1, r3, r6, r8, fp, sp, lr}	; <UNPREDICTABLE>
 620:	02008091 	andeq	r8, r0, #145	; 0x91
 624:	2e060104 	adfcss	f0, f6, f4
 628:	0200bf06 	andeq	fp, r0, #6, 30
 62c:	66060104 	strvs	r0, [r6], -r4, lsl #2
 630:	02040200 	andeq	r0, r4, #0, 4
 634:	04020066 	streq	r0, [r2], #-102	; 0x66
 638:	022f0603 	eoreq	r0, pc, #3145728	; 0x300000
 63c:	01010008 	tsteq	r1, r8
 640:	00000086 	andeq	r0, r0, r6, lsl #1
 644:	003c0002 	eorseq	r0, ip, r2
 648:	01020000 	mrseq	r0, (UNDEF: 2)
 64c:	000d0efb 	strdeq	r0, [sp], -fp
 650:	01010101 	tsteq	r1, r1, lsl #2
 654:	01000000 	mrseq	r0, (UNDEF: 0)
 658:	2e010000 	cdpcs	0, 0, cr0, cr1, cr0, {0}
 65c:	2e2e2f2e 	cdpcs	15, 2, cr2, cr14, cr14, {1}
 660:	2f2e2e2f 	svccs	0x002e2e2f
 664:	632f2e2e 	teqvs	pc, #736	; 0x2e0
 668:	6f6d6d6f 	svcvs	0x006d6d6f
 66c:	75672f6e 	strbvc	r2, [r7, #-3950]!	; 0xf6e
 670:	2f747365 	svccs	0x00747365
 674:	65726f63 	ldrbvs	r6, [r2, #-3939]!	; 0xf63
 678:	75670000 	strbvc	r0, [r7, #-0]!
 67c:	2e747365 	cdpcs	3, 7, cr7, cr4, cr5, {3}
 680:	00010053 	andeq	r0, r1, r3, asr r0
 684:	05000000 	streq	r0, [r0, #-0]
 688:	00174002 	andseq	r4, r7, r2
 68c:	010f0380 	smlabbeq	pc, r0, r3, r0	; <UNPREDICTABLE>
 690:	2f312f31 	svccs	0x00312f31
 694:	03312f31 	teqeq	r1, #49, 30	; 0xc4
 698:	f7302e0e 			; <UNDEFINED> instruction: 0xf7302e0e
 69c:	2f2f2f2f 	svccs	0x002f2f2f
 6a0:	2f322f2f 	svccs	0x00322f2f
 6a4:	312f302f 	teqcc	pc, pc, lsr #32
 6a8:	322f2f2f 	eorcc	r2, pc, #47, 30	; 0xbc
 6ac:	2f302f2f 	svccs	0x00302f2f
 6b0:	2f2f2f31 	svccs	0x002f2f31
 6b4:	302f2f32 	eorcc	r2, pc, r2, lsr pc	; <UNPREDICTABLE>
 6b8:	2f2f312f 	svccs	0x002f312f
 6bc:	a2033331 	andge	r3, r3, #-1006632960	; 0xc4000000
 6c0:	32322e7f 	eorscc	r2, r2, #2032	; 0x7f0
 6c4:	00020231 	andeq	r0, r2, r1, lsr r2
 6c8:	005d0101 	subseq	r0, sp, r1, lsl #2
 6cc:	00020000 	andeq	r0, r2, r0
 6d0:	00000025 	andeq	r0, r0, r5, lsr #32
 6d4:	0efb0102 	cdpeq	1, 15, cr0, cr11, cr2, {0}
 6d8:	0101000d 	tsteq	r1, sp
 6dc:	00000101 	andeq	r0, r0, r1, lsl #2
 6e0:	00000100 	andeq	r0, r0, r0, lsl #2
 6e4:	69726401 	ldmdbvs	r2!, {r0, sl, sp, lr}^
 6e8:	73726576 	cmnvc	r2, #494927872	; 0x1d800000
 6ec:	61750000 	cmnvs	r5, r0
 6f0:	632e7472 	teqvs	lr, #1912602624	; 0x72000000
 6f4:	00000100 	andeq	r0, r0, r0, lsl #2
 6f8:	02050000 	andeq	r0, r5, #0
 6fc:	80001820 	andhi	r1, r0, r0, lsr #16
 700:	4a090319 	bmi	24136c <GUEST_OFFSET-0x7fdbec94>
 704:	2f678369 	svccs	0x00678369
 708:	01040200 	mrseq	r0, R12_usr
 70c:	9f6984d5 	svcls	0x006984d5
 710:	83696767 	cmnhi	r9, #27000832	; 0x19c0000
 714:	d767674d 	strble	r6, [r7, -sp, asr #14]!
 718:	03678467 	cmneq	r7, #1728053248	; 0x67000000
 71c:	0200827a 	andeq	r8, r0, #-1610612729	; 0xa0000007
 720:	66060104 	strvs	r0, [r6], -r4, lsl #2
 724:	04026e06 	streq	r6, [r2], #-3590	; 0xe06
 728:	ab010100 	blge	40b30 <GUEST_OFFSET-0x7ffbf4d0>
 72c:	02000000 	andeq	r0, r0, #0
 730:	00006700 	andeq	r6, r0, r0, lsl #14
 734:	fb010200 	blx	40f3e <GUEST_OFFSET-0x7ffbf0c2>
 738:	01000d0e 	tsteq	r0, lr, lsl #26
 73c:	00010101 	andeq	r0, r1, r1, lsl #2
 740:	00010000 	andeq	r0, r1, r0
 744:	72640100 	rsbvc	r0, r4, #0, 2
 748:	72657669 	rsbvc	r7, r5, #110100480	; 0x6900000
 74c:	2e2e0073 	mcrcs	0, 1, r0, cr14, cr3, {3}
 750:	2f2e2e2f 	svccs	0x002e2e2f
 754:	2e2f2e2e 	cdpcs	14, 2, cr2, cr15, cr14, {1}
 758:	6f632f2e 	svcvs	0x00632f2e
 75c:	6e6f6d6d 	cdpvs	13, 6, cr6, cr15, cr13, {3}
 760:	636e692f 	cmnvs	lr, #770048	; 0xbc000
 764:	6564756c 	strbvs	r7, [r4, #-1388]!	; 0x56c
 768:	70730000 	rsbsvc	r0, r3, r0
 76c:	5f343038 	svcpl	0x00343038
 770:	656d6974 	strbvs	r6, [sp, #-2420]!	; 0x974
 774:	00632e72 	rsbeq	r2, r3, r2, ror lr
 778:	61000001 	tstvs	r0, r1
 77c:	5f686372 	svcpl	0x00686372
 780:	65707974 	ldrbvs	r7, [r0, #-2420]!	; 0x974
 784:	00682e73 	rsbeq	r2, r8, r3, ror lr
 788:	68000002 	stmdavs	r0, {r1}
 78c:	5f6d6d76 	svcpl	0x006d6d76
 790:	65707974 	ldrbvs	r7, [r0, #-2420]!	; 0x974
 794:	00682e73 	rsbeq	r2, r8, r3, ror lr
 798:	00000002 	andeq	r0, r0, r2
 79c:	68020500 	stmdavs	r2, {r8, sl}
 7a0:	03800019 	orreq	r0, r0, #25
 7a4:	679f012a 	ldrvs	r0, [pc, sl, lsr #2]
 7a8:	844ba169 	strbhi	sl, [fp], #-361	; 0x169
 7ac:	4d678467 	cfstrdmi	mvd8, [r7, #-412]!	; 0xfffffe64
 7b0:	83678483 	cmnhi	r7, #-2097152000	; 0x83000000
 7b4:	4b679f68 	blmi	19e855c <GUEST_OFFSET-0x7e617aa4>
 7b8:	6983834e 	stmibvs	r3, {r1, r2, r3, r6, r8, r9, pc}
 7bc:	83678383 	cmnhi	r7, #201326594	; 0xc000002
 7c0:	85678369 	strbhi	r8, [r7, #-873]!	; 0x369
 7c4:	be698383 	cdplt	3, 6, cr8, cr9, cr3, {4}
 7c8:	4b678368 	blmi	19e1570 <GUEST_OFFSET-0x7e61ea90>
 7cc:	4d676868 	stclmi	8, cr6, [r7, #-416]!	; 0xfffffe60
 7d0:	a04b9f4d 	subge	r9, fp, sp, asr #30
 7d4:	0004022f 	andeq	r0, r4, pc, lsr #4
 7d8:	Address 0x00000000000007d8 is out of bounds.


Disassembly of section .debug_info:

00000000 <.debug_info>:
       0:	00000077 	andeq	r0, r0, r7, ror r0
       4:	00000002 	andeq	r0, r0, r2
       8:	01040000 	mrseq	r0, (UNDEF: 4)
       c:	00000000 	andeq	r0, r0, r0
      10:	80000000 	andhi	r0, r0, r0
      14:	80000004 	andhi	r0, r0, r4
      18:	746f6f62 	strbtvc	r6, [pc], #-3938	; 20 <GUEST_OFFSET-0x7fffffe0>
      1c:	2f00532e 	svccs	0x0000532e
      20:	656d6f68 	strbvs	r6, [sp, #-3944]!	; 0xf68
      24:	7361632f 	cmnvc	r1, #-1140850688	; 0xbc000000
      28:	776e6f69 	strbvc	r6, [lr, -r9, ror #30]!
      2c:	6b2f6f6f 	blvs	bdbdf0 <GUEST_OFFSET-0x7f424210>
      30:	65707968 	ldrbvs	r7, [r0, #-2408]!	; 0x968
      34:	73697672 	cmnvc	r9, #119537664	; 0x7200000
      38:	702f726f 	eorvc	r7, pc, pc, ror #4
      3c:	6674616c 	ldrbtvs	r6, [r4], -ip, ror #2
      40:	2d6d726f 	sfmcs	f7, 2, [sp, #-444]!	; 0xfffffe44
      44:	69766564 	ldmdbvs	r6!, {r2, r5, r6, r8, sl, sp, lr}^
      48:	632f6563 	teqvs	pc, #415236096	; 0x18c00000
      4c:	6574726f 	ldrbvs	r7, [r4, #-623]!	; 0x26f
      50:	31615f78 	smccc	5624	; 0x15f8
      54:	5f327835 	svcpl	0x00327835
      58:	6d737472 	cfldrdvs	mvd7, [r3, #-456]!	; 0xfffffe38
      5c:	6575672f 	ldrbvs	r6, [r5, #-1839]!	; 0x72f
      60:	736f7473 	cmnvc	pc, #1929379840	; 0x73000000
      64:	676d622f 	strbvs	r6, [sp, -pc, lsr #4]!
      68:	74736575 	ldrbtvc	r6, [r3], #-1397	; 0x575
      6c:	554e4700 	strbpl	r4, [lr, #-1792]	; 0x700
      70:	20534120 	subscs	r4, r3, r0, lsr #2
      74:	34322e32 	ldrtcc	r2, [r2], #-3634	; 0xe32
      78:	6a800100 	bvs	fe000480 <guest_stacklimit+0x6e000480>
      7c:	02000000 	andeq	r0, r0, #0
      80:	00001400 	andeq	r1, r0, r0, lsl #8
      84:	07010400 	streq	r0, [r1, -r0, lsl #8]
      88:	01000000 	mrseq	r0, (UNDEF: 0)
      8c:	00000000 	andeq	r0, r0, r0
      90:	0000003d 	andeq	r0, r0, sp, lsr r0
      94:	80000004 	andhi	r0, r0, r4
      98:	80000028 	andhi	r0, r0, r8, lsr #32
      9c:	00000036 	andeq	r0, r0, r6, lsr r0
      a0:	69050402 	stmdbvs	r5, {r1, sl}
      a4:	0300746e 	movweq	r7, #1134	; 0x46e
      a8:	001d0704 	andseq	r0, sp, r4, lsl #14
      ac:	02030000 	andeq	r0, r3, #0
      b0:	00008b07 	andeq	r8, r0, r7, lsl #22
      b4:	07080300 	streq	r0, [r8, -r0, lsl #6]
      b8:	00000013 	andeq	r0, r0, r3, lsl r0
      bc:	2a080103 	bcs	2004d0 <GUEST_OFFSET-0x7fdffb30>
      c0:	04000000 	streq	r0, [r0], #-0
      c4:	00003801 	andeq	r3, r0, r1, lsl #16
      c8:	25130100 	ldrcs	r0, [r3, #-256]	; 0x100
      cc:	04000000 	streq	r0, [r0], #-0
      d0:	28800000 	stmcs	r0, {}	; <UNPREDICTABLE>
      d4:	00800000 	addeq	r0, r0, r0
      d8:	01000000 	mrseq	r0, (UNDEF: 0)
      dc:	6c617605 	stclvs	6, cr7, [r1], #-20	; 0xffffffec
      e0:	25150100 	ldrcs	r0, [r5, #-256]	; 0x100
      e4:	00000000 	andeq	r0, r0, r0
      e8:	0000a300 	andeq	sl, r0, r0, lsl #6
      ec:	63000200 	movwvs	r0, #512	; 0x200
      f0:	04000000 	streq	r0, [r0], #-0
      f4:	00000701 	andeq	r0, r0, r1, lsl #14
      f8:	009e0100 	addseq	r0, lr, r0, lsl #2
      fc:	003d0000 	eorseq	r0, sp, r0
     100:	00280000 	eoreq	r0, r8, r0
     104:	01bc8000 			; <UNDEFINED> instruction: 0x01bc8000
     108:	00758000 	rsbseq	r8, r5, r0
     10c:	04020000 	streq	r0, [r2], #-0
     110:	746e6905 	strbtvc	r6, [lr], #-2309	; 0x905
     114:	07040300 	streq	r0, [r4, -r0, lsl #6]
     118:	0000001d 	andeq	r0, r0, sp, lsl r0
     11c:	8b070203 	blhi	1c0930 <GUEST_OFFSET-0x7fe3f6d0>
     120:	03000000 	movweq	r0, #0
     124:	00130708 	andseq	r0, r3, r8, lsl #14
     128:	01030000 	mrseq	r0, (UNDEF: 3)
     12c:	00002a08 	andeq	r2, r0, r8, lsl #20
     130:	c6010400 	strgt	r0, [r1], -r0, lsl #8
     134:	01000000 	mrseq	r0, (UNDEF: 0)
     138:	00280133 	eoreq	r0, r8, r3, lsr r1
     13c:	00708000 	rsbseq	r8, r0, r0
     140:	002c8000 	eoreq	r8, ip, r0
     144:	6f010000 	svcvs	0x00010000
     148:	05000000 	streq	r0, [r0, #-0]
     14c:	35010069 	strcc	r0, [r1, #-105]	; 0x69
     150:	0000006f 	andeq	r0, r0, pc, rrx
     154:	00749102 	rsbseq	r9, r4, r2, lsl #2
     158:	00002506 	andeq	r2, r0, r6, lsl #10
     15c:	d0010700 	andle	r0, r1, r0, lsl #14
     160:	01000000 	mrseq	r0, (UNDEF: 0)
     164:	0070013a 	rsbseq	r0, r0, sl, lsr r1
     168:	01bc8000 			; <UNDEFINED> instruction: 0x01bc8000
     16c:	00588000 	subseq	r8, r8, r0
     170:	05010000 	streq	r0, [r1, #-0]
     174:	3c010069 	stccc	0, cr0, [r1], {105}	; 0x69
     178:	00000025 	andeq	r0, r0, r5, lsr #32
     17c:	08749102 	ldmdaeq	r4!, {r1, r8, ip, pc}^
     180:	00003801 	andeq	r3, r0, r1, lsl #16
     184:	25770100 	ldrbcs	r0, [r7, #-256]!	; 0x100
     188:	01000000 	mrseq	r0, (UNDEF: 0)
     18c:	00000009 	andeq	r0, r0, r9
     190:	0000010d 	andeq	r0, r0, sp, lsl #2
     194:	00eb0002 	rsceq	r0, fp, r2
     198:	01040000 	mrseq	r0, (UNDEF: 4)
     19c:	00000007 	andeq	r0, r0, r7
     1a0:	0000eb01 	andeq	lr, r0, r1, lsl #22
     1a4:	00003d00 	andeq	r3, r0, r0, lsl #26
     1a8:	0001bc00 	andeq	fp, r1, r0, lsl #24
     1ac:	00021880 	andeq	r1, r2, r0, lsl #17
     1b0:	00010880 	andeq	r0, r1, r0, lsl #17
     1b4:	011a0200 	tsteq	sl, r0, lsl #4
     1b8:	013c0000 	teqeq	ip, r0
     1bc:	00005b03 	andeq	r5, r0, r3, lsl #22
     1c0:	01150300 	tsteq	r5, r0, lsl #6
     1c4:	04010000 	streq	r0, [r1], #-0
     1c8:	0000005b 	andeq	r0, r0, fp, asr r0
     1cc:	04002302 	streq	r2, [r0], #-770	; 0x302
     1d0:	01006370 	tsteq	r0, r0, ror r3
     1d4:	00005b05 	andeq	r5, r0, r5, lsl #22
     1d8:	04230200 	strteq	r0, [r3], #-512	; 0x200
     1dc:	72706704 	rsbsvc	r6, r0, #4, 14	; 0x100000
     1e0:	62060100 	andvs	r0, r6, #0, 2
     1e4:	02000000 	andeq	r0, r0, #0
     1e8:	05000823 	streq	r0, [r0, #-2083]	; 0x823
     1ec:	001d0704 	andseq	r0, sp, r4, lsl #14
     1f0:	5b060000 	blpl	1801f8 <GUEST_OFFSET-0x7fe7fe08>
     1f4:	72000000 	andvc	r0, r0, #0
     1f8:	07000000 	streq	r0, [r0, -r0]
     1fc:	00000072 	andeq	r0, r0, r2, ror r0
     200:	0405000c 	streq	r0, [r5], #-12
     204:	00013007 	andeq	r3, r1, r7
     208:	d9010800 	stmdble	r1, {fp}
     20c:	01000000 	mrseq	r0, (UNDEF: 0)
     210:	01bc010a 			; <UNDEFINED> instruction: 0x01bc010a
     214:	01d88000 	bicseq	r8, r8, r0
     218:	00848000 	addeq	r8, r4, r0
     21c:	a2010000 	andge	r0, r1, #0
     220:	09000000 	stmdbeq	r0, {}	; <UNPREDICTABLE>
     224:	0000011f 	andeq	r0, r0, pc, lsl r1
     228:	00a20a01 	adceq	r0, r2, r1, lsl #20
     22c:	91020000 	mrsls	r0, (UNDEF: 2)
     230:	040a0074 	streq	r0, [sl], #-116	; 0x74
     234:	00000025 	andeq	r0, r0, r5, lsr #32
     238:	01470108 	cmpeq	r7, r8, lsl #2
     23c:	0e010000 	cdpeq	0, 0, cr0, cr1, cr0, {0}
     240:	0001d801 	andeq	sp, r1, r1, lsl #16
     244:	0001f480 	andeq	pc, r1, r0, lsl #9
     248:	0000b080 	andeq	fp, r0, r0, lsl #1
     24c:	00d10100 	sbcseq	r0, r1, r0, lsl #2
     250:	1f090000 	svcne	0x00090000
     254:	01000001 	tsteq	r0, r1
     258:	0000a20e 	andeq	sl, r0, lr, lsl #4
     25c:	74910200 	ldrvc	r0, [r1], #512	; 0x200
     260:	24010b00 	strcs	r0, [r1], #-2816	; 0xb00
     264:	01000001 	tsteq	r0, r1
     268:	01f40112 	mvnseq	r0, r2, lsl r1
     26c:	02188000 	andseq	r8, r8, #0
     270:	00dc8000 	sbcseq	r8, ip, r0
     274:	09010000 	stmdbeq	r1, {}	; <UNPREDICTABLE>
     278:	09000001 	stmdbeq	r0, {r0}
     27c:	0000011f 	andeq	r0, r0, pc, lsl r1
     280:	00a21201 	adceq	r1, r2, r1, lsl #4
     284:	91020000 	mrsls	r0, (UNDEF: 2)
     288:	39010c74 	stmdbcc	r1, {r2, r4, r5, r6, sl, fp}
     28c:	01000001 	tsteq	r0, r1
     290:	00010914 	andeq	r0, r1, r4, lsl r9
     294:	000d0100 	andeq	r0, sp, r0, lsl #2
     298:	05040e00 	streq	r0, [r4, #-3584]	; 0xe00
     29c:	00746e69 	rsbseq	r6, r4, r9, ror #28
     2a0:	0003f700 	andeq	pc, r3, r0, lsl #14
     2a4:	b6000200 	strlt	r0, [r0], -r0, lsl #4
     2a8:	04000001 	streq	r0, [r0], #-1
     2ac:	00000701 	andeq	r0, r0, r1, lsl #14
     2b0:	02100100 	andseq	r0, r0, #0, 2
     2b4:	003d0000 	eorseq	r0, sp, r0
     2b8:	02180000 	andseq	r0, r8, #0
     2bc:	0aa08000 	beq	fe8202c4 <guest_stacklimit+0x6e8202c4>
     2c0:	01678000 	cmneq	r7, r0
     2c4:	04020000 	streq	r0, [r2], #-0
     2c8:	746e6905 	strbtvc	r6, [lr], #-2309	; 0x905
     2cc:	03070300 	movweq	r0, #29440	; 0x7300
     2d0:	05030000 	streq	r0, [r3, #-0]
     2d4:	00000037 	andeq	r0, r0, r7, lsr r0
     2d8:	1d070404 	cfstrsne	mvf0, [r7, #-16]
     2dc:	04000000 	streq	r0, [r0], #-0
     2e0:	008b0702 	addeq	r0, fp, r2, lsl #14
     2e4:	08040000 	stmdaeq	r4, {}	; <UNPREDICTABLE>
     2e8:	00001307 	andeq	r1, r0, r7, lsl #6
     2ec:	02590300 	subseq	r0, r9, #0, 6
     2f0:	08030000 	stmdaeq	r3, {}	; <UNPREDICTABLE>
     2f4:	00000057 	andeq	r0, r0, r7, asr r0
     2f8:	2a080104 	bcs	200710 <GUEST_OFFSET-0x7fdff8f0>
     2fc:	05000000 	streq	r0, [r0, #-0]
     300:	0000031b 	andeq	r0, r0, fp, lsl r3
     304:	95090404 	strls	r0, [r9, #-1028]	; 0x404
     308:	06000000 	streq	r0, [r0], -r0
     30c:	000001c2 	andeq	r0, r0, r2, asr #3
     310:	02cd0600 	sbceq	r0, sp, #0, 12
     314:	067f0000 	ldrbteq	r0, [pc], -r0
     318:	000002e7 	andeq	r0, r0, r7, ror #5
     31c:	02bc067e 	adcseq	r0, ip, #132120576	; 0x7e00000
     320:	067d0000 	ldrbteq	r0, [sp], -r0
     324:	000001f4 	strdeq	r0, [r0], -r4
     328:	019c067c 	orrseq	r0, ip, ip, ror r6
     32c:	067b0000 	ldrbteq	r0, [fp], -r0
     330:	000002a8 	andeq	r0, r0, r8, lsr #5
     334:	7303007a 	movwvc	r0, #12410	; 0x307a
     338:	04000002 	streq	r0, [r0], #-2
     33c:	00005e11 	andeq	r5, r0, r1, lsl lr
     340:	02810300 	addeq	r0, r1, #0, 6
     344:	0e050000 	cdpeq	0, 0, cr0, cr5, cr0, {0}
     348:	000000ab 	andeq	r0, r0, fp, lsr #1
     34c:	00b10407 	adcseq	r0, r1, r7, lsl #8
     350:	01080000 	mrseq	r0, (UNDEF: 8)
     354:	000000c7 	andeq	r0, r0, r7, asr #1
     358:	00002509 	andeq	r2, r0, r9, lsl #10
     35c:	00c70900 	sbceq	r0, r7, r0, lsl #18
     360:	c7090000 	strgt	r0, [r9, -r0]
     364:	00000000 	andeq	r0, r0, r0
     368:	670b040a 	strvs	r0, [fp, -sl, lsl #8]
     36c:	b0006369 	andlt	r6, r0, r9, ror #6
     370:	3a2d0201 	bcc	b40b7c <GUEST_OFFSET-0x7f4bf484>
     374:	0c000001 	stceq	0, cr0, [r0], {1}
     378:	0000026a 	andeq	r0, r0, sl, ror #4
     37c:	002c2e02 	eoreq	r2, ip, r2, lsl #28
     380:	23020000 	movwcs	r0, #8192	; 0x2000
     384:	015b0c00 	cmpeq	fp, r0, lsl #24
     388:	2f020000 	svccs	0x00020000
     38c:	0000013a 	andeq	r0, r0, sl, lsr r1
     390:	0c042302 	stceq	3, cr2, [r4], {2}
     394:	00000153 	andeq	r0, r0, r3, asr r1
     398:	013a3002 	teqeq	sl, r2
     39c:	23020000 	movwcs	r0, #8192	; 0x2000
     3a0:	01e90c08 	mvneq	r0, r8, lsl #24
     3a4:	31020000 	mrscc	r0, (UNDEF: 2)
     3a8:	0000002c 	andeq	r0, r0, ip, lsr #32
     3ac:	0c0c2302 	stceq	3, cr2, [ip], {2}
     3b0:	00000316 	andeq	r0, r0, r6, lsl r3
     3b4:	002c3202 	eoreq	r3, ip, r2, lsl #4
     3b8:	23020000 	movwcs	r0, #8192	; 0x2000
     3bc:	02930c10 	addseq	r0, r3, #16, 24	; 0x1000
     3c0:	33020000 	movwcc	r0, #8192	; 0x2000
     3c4:	00000145 	andeq	r0, r0, r5, asr #2
     3c8:	0c142302 	ldceq	3, cr2, [r4], {2}
     3cc:	00000190 	muleq	r0, r0, r1
     3d0:	002c3402 	eoreq	r3, ip, r2, lsl #8
     3d4:	23030000 	movwcs	r0, #12288	; 0x3000
     3d8:	070003ac 	streq	r0, [r0, -ip, lsr #7]
     3dc:	00014004 	andeq	r4, r1, r4
     3e0:	002c0d00 	eoreq	r0, ip, r0, lsl #26
     3e4:	a00e0000 	andge	r0, lr, r0
     3e8:	55000000 	strpl	r0, [r0, #-0]
     3ec:	0f000001 	svceq	0x00000001
     3f0:	00000155 	andeq	r0, r0, r5, asr r1
     3f4:	04040065 	streq	r0, [r4], #-101	; 0x65
     3f8:	00013007 	andeq	r3, r1, r7
     3fc:	01691000 	cmneq	r9, r0
     400:	15010000 	strne	r0, [r1, #-0]
     404:	00002c01 	andeq	r2, r0, r1, lsl #24
     408:	00021800 	andeq	r1, r2, r0, lsl #16
     40c:	00024480 	andeq	r4, r2, r0, lsl #9
     410:	00010880 	andeq	r0, r1, r0, lsl #17
     414:	01920100 	orrseq	r0, r2, r0, lsl #2
     418:	24110000 	ldrcs	r0, [r1], #-0
     41c:	30800002 	addcc	r0, r0, r2
     420:	12800002 	addne	r0, r0, #2
     424:	000001ef 	andeq	r0, r0, pc, ror #3
     428:	002c1701 	eoreq	r1, ip, r1, lsl #14
     42c:	91020000 	mrsls	r0, (UNDEF: 2)
     430:	13000074 	movwne	r0, #116	; 0x74
     434:	00000327 	andeq	r0, r0, r7, lsr #6
     438:	44013902 	strmi	r3, [r1], #-2306	; 0x902
     43c:	80800002 	addhi	r0, r0, r2
     440:	34800003 	strcc	r0, [r0], #3
     444:	01000001 	tsteq	r0, r1
     448:	000001ba 			; <UNDEFINED> instruction: 0x000001ba
     44c:	00029c12 	andeq	r9, r2, r2, lsl ip
     450:	ba3b0200 	blt	ec0c58 <GUEST_OFFSET-0x7f13f3a8>
     454:	02000001 	andeq	r0, r0, #1
     458:	07007491 			; <UNDEFINED> instruction: 0x07007491
     45c:	0001c004 	andeq	ip, r1, r4
     460:	004c0d00 	subeq	r0, ip, r0, lsl #26
     464:	d6130000 	ldrle	r0, [r3], -r0
     468:	02000001 	andeq	r0, r0, #1
     46c:	0380014f 	orreq	r0, r0, #-1073741805	; 0xc0000013
     470:	05cc8000 	strbeq	r8, [ip]
     474:	01608000 	cmneq	r0, r0
     478:	1e010000 	cdpne	0, 0, cr0, cr1, cr0, {0}
     47c:	12000002 	andne	r0, r0, #2
     480:	000002a3 	andeq	r0, r0, r3, lsr #5
     484:	002c5102 	eoreq	r5, ip, r2, lsl #2
     488:	91020000 	mrsls	r0, (UNDEF: 2)
     48c:	038c1468 	orreq	r1, ip, #104, 8	; 0x68000000
     490:	03988000 	orrseq	r8, r8, #0
     494:	02088000 	andeq	r8, r8, #0
     498:	ef120000 	svc	0x00120000
     49c:	02000001 	andeq	r0, r0, #1
     4a0:	00002c53 	andeq	r2, r0, r3, asr ip
     4a4:	6c910200 	lfmvs	f0, 4, [r1], {0}
     4a8:	03d41100 	bicseq	r1, r4, #0, 2
     4ac:	05c48000 	strbeq	r8, [r4]
     4b0:	36158000 	ldrcc	r8, [r5], -r0
     4b4:	02000005 	andeq	r0, r0, #5
     4b8:	00002c58 	andeq	r2, r0, r8, asr ip
     4bc:	16000000 	strne	r0, [r0], -r0
     4c0:	00000261 	andeq	r0, r0, r1, ror #4
     4c4:	95017d02 	strls	r7, [r1, #-3330]	; 0xd02
     4c8:	cc000000 	stcgt	0, cr0, [r0], {-0}
     4cc:	d8800005 	stmle	r0, {r0, r2}
     4d0:	8c800006 	stchi	0, cr0, [r0], {6}
     4d4:	01000001 	tsteq	r0, r1
     4d8:	0000027e 	andeq	r0, r0, lr, ror r2
     4dc:	00025117 	andeq	r5, r2, r7, lsl r1
     4e0:	7e7d0200 	cdpvc	2, 7, cr0, cr13, cr0, {0}
     4e4:	02000002 	andeq	r0, r0, #2
     4e8:	a3125c91 	tstge	r2, #37120	; 0x9100
     4ec:	02000002 	andeq	r0, r0, #2
     4f0:	00002c7f 	andeq	r2, r0, pc, ror ip
     4f4:	64910200 	ldrvs	r0, [r1], #512	; 0x200
     4f8:	00017a12 	andeq	r7, r1, r2, lsl sl
     4fc:	95800200 	strls	r0, [r0, #512]	; 0x200
     500:	02000000 	andeq	r0, r0, #0
     504:	e4116c91 	ldr	r6, [r1], #-3217	; 0xc91
     508:	f0800005 			; <UNDEFINED> instruction: 0xf0800005
     50c:	12800005 	addne	r0, r0, #5
     510:	000001ef 	andeq	r0, r0, pc, ror #3
     514:	002c8202 	eoreq	r8, ip, r2, lsl #4
     518:	91020000 	mrsls	r0, (UNDEF: 2)
     51c:	07000068 	streq	r0, [r0, -r8, rrx]
     520:	00002c04 	andeq	r2, r0, r4, lsl #24
     524:	81011800 	tsthi	r1, r0, lsl #16
     528:	02000001 	andeq	r0, r0, #1
     52c:	0095019e 	umullseq	r0, r5, lr, r1
     530:	06d80000 	ldrbeq	r0, [r8], r0
     534:	07308000 	ldreq	r8, [r0, -r0]!
     538:	01b88000 			; <UNDEFINED> instruction: 0x01b88000
     53c:	b1010000 	mrslt	r0, (UNDEF: 1)
     540:	19000002 	stmdbne	r0, {r1}
     544:	00717269 	rsbseq	r7, r1, r9, ror #4
     548:	002c9e02 	eoreq	r9, ip, r2, lsl #28
     54c:	91020000 	mrsls	r0, (UNDEF: 2)
     550:	01180074 	tsteq	r8, r4, ror r0
     554:	000001b2 			; <UNDEFINED> instruction: 0x000001b2
     558:	9501a402 	strls	sl, [r1, #-1026]	; 0x402
     55c:	30000000 	andcc	r0, r0, r0
     560:	88800007 	stmhi	r0, {r0, r1, r2}
     564:	e4800007 	str	r0, [r0], #7
     568:	01000001 	tsteq	r0, r1
     56c:	000002de 	ldrdeq	r0, [r0], -lr
     570:	71726919 	cmnvc	r2, r9, lsl r9
     574:	2ca40200 	sfmcs	f0, 4, [r4]
     578:	02000000 	andeq	r0, r0, #0
     57c:	18007491 	stmdane	r0, {r0, r4, r7, sl, ip, sp, lr}
     580:	00023d01 	andeq	r3, r2, r1, lsl #26
     584:	01aa0200 			; <UNDEFINED> instruction: 0x01aa0200
     588:	00000095 	muleq	r0, r5, r0
     58c:	80000788 	andhi	r0, r0, r8, lsl #15
     590:	800007f8 	strdhi	r0, [r0], -r8
     594:	00000210 	andeq	r0, r0, r0, lsl r2
     598:	00033501 	andeq	r3, r3, r1, lsl #10
     59c:	72691900 	rsbvc	r1, r9, #0, 18
     5a0:	aa020071 	bge	8076c <GUEST_OFFSET-0x7ff7f894>
     5a4:	00000025 	andeq	r0, r0, r5, lsr #32
     5a8:	176c9102 	strbne	r9, [ip, -r2, lsl #2]!
     5ac:	00000249 	andeq	r0, r0, r9, asr #4
     5b0:	00a0aa02 	adceq	sl, r0, r2, lsl #20
     5b4:	91020000 	mrsls	r0, (UNDEF: 2)
     5b8:	01631768 	cmneq	r3, r8, ror #14
     5bc:	ab020000 	blge	805c4 <GUEST_OFFSET-0x7ff7fa3c>
     5c0:	000000c7 	andeq	r0, r0, r7, asr #1
     5c4:	12649102 	rsbne	r9, r4, #-2147483648	; 0x80000000
     5c8:	0000017a 	andeq	r0, r0, sl, ror r1
     5cc:	0095ad02 	addseq	sl, r5, r2, lsl #26
     5d0:	91020000 	mrsls	r0, (UNDEF: 2)
     5d4:	011a0074 	tsteq	sl, r4, ror r0
     5d8:	00000234 	andeq	r0, r0, r4, lsr r2
     5dc:	9501b502 	strls	fp, [r1, #-1282]	; 0x502
     5e0:	f8000000 			; <UNDEFINED> instruction: 0xf8000000
     5e4:	44800007 	strmi	r0, [r0], #7
     5e8:	3c800009 	stccc	0, cr0, [r0], {9}
     5ec:	01000002 	tsteq	r0, r2
     5f0:	0000036e 	andeq	r0, r0, lr, ror #6
     5f4:	00017a12 	andeq	r7, r1, r2, lsl sl
     5f8:	95b70200 	ldrls	r0, [r7, #512]!	; 0x200
     5fc:	02000000 	andeq	r0, r0, #0
     600:	691b7091 	ldmdbvs	fp, {r0, r4, r7, ip, sp, lr}
     604:	25b80200 	ldrcs	r0, [r8, #512]!	; 0x200
     608:	02000000 	andeq	r0, r0, #0
     60c:	1c007491 	cfstrsne	mvf7, [r0], {145}	; 0x91
     610:	00013901 	andeq	r3, r1, r1, lsl #18
     614:	01d00200 	bicseq	r0, r0, r0, lsl #4
     618:	80000944 	andhi	r0, r0, r4, asr #18
     61c:	80000aa0 	andhi	r0, r0, r0, lsr #21
     620:	00000268 	andeq	r0, r0, r8, ror #4
     624:	0003e301 	andeq	lr, r3, r1, lsl #6
     628:	69661900 	stmdbvs	r6!, {r8, fp, ip}^
     62c:	d0020071 	andle	r0, r2, r1, ror r0
     630:	00000025 	andeq	r0, r0, r5, lsr #32
     634:	17649102 	strbne	r9, [r4, -r2, lsl #2]!
     638:	00000310 	andeq	r0, r0, r0, lsl r3
     63c:	00c7d002 	sbceq	sp, r7, r2
     640:	91020000 	mrsls	r0, (UNDEF: 2)
     644:	61691b60 	cmnvs	r9, r0, ror #22
     648:	d7020072 	smlsdxle	r2, r2, r0, r0
     64c:	0000002c 	andeq	r0, r0, ip, lsr #32
     650:	1b6c9102 	blne	1b24a60 <GUEST_OFFSET-0x7e4db5a0>
     654:	00717269 	rsbseq	r7, r1, r9, ror #4
     658:	002cd802 	eoreq	sp, ip, r2, lsl #16
     65c:	91020000 	mrsls	r0, (UNDEF: 2)
     660:	011a1d68 	tsteq	sl, r8, ror #26
     664:	12010000 	andne	r0, r1, #0
     668:	0000011f 	andeq	r0, r0, pc, lsl r1
     66c:	03e3d902 	mvneq	sp, #32768	; 0x8000
     670:	91020000 	mrsls	r0, (UNDEF: 2)
     674:	70631b74 	rsbvc	r1, r3, r4, ror fp
     678:	db020075 	blle	80854 <GUEST_OFFSET-0x7ff7f7ac>
     67c:	0000002c 	andeq	r0, r0, ip, lsr #32
     680:	00709102 	rsbseq	r9, r0, r2, lsl #2
     684:	03c00407 	biceq	r0, r0, #117440512	; 0x7000000
     688:	0b120000 	bleq	480690 <GUEST_OFFSET-0x7fb7f970>
     68c:	02000002 	andeq	r0, r0, #2
     690:	0000c937 	andeq	ip, r0, r7, lsr r9
     694:	6c030500 	cfstr32vs	mvfx0, [r3], {-0}
     698:	0080001e 	addeq	r0, r0, lr, lsl r0
     69c:	000000df 	ldrdeq	r0, [r0], -pc	; <UNPREDICTABLE>
     6a0:	03600002 	cmneq	r0, #2
     6a4:	01040000 	mrseq	r0, (UNDEF: 4)
     6a8:	00000007 	andeq	r0, r0, r7
     6ac:	00035f01 	andeq	r5, r3, r1, lsl #30
     6b0:	00003d00 	andeq	r3, r0, r0, lsl #26
     6b4:	000aa000 	andeq	sl, sl, r0
     6b8:	000c1480 	andeq	r1, ip, r0, lsl #9
     6bc:	0002b180 	andeq	fp, r2, r0, lsl #3
     6c0:	05040200 	streq	r0, [r4, #-512]	; 0x200
     6c4:	00746e69 	rsbseq	r6, r4, r9, ror #28
     6c8:	00030703 	andeq	r0, r3, r3, lsl #14
     6cc:	37050200 	strcc	r0, [r5, -r0, lsl #4]
     6d0:	04000000 	streq	r0, [r0], #-0
     6d4:	001d0704 	andseq	r0, sp, r4, lsl #14
     6d8:	02040000 	andeq	r0, r4, #0
     6dc:	00008b07 	andeq	r8, r0, r7, lsl #22
     6e0:	07080400 	streq	r0, [r8, -r0, lsl #8]
     6e4:	00000013 	andeq	r0, r0, r3, lsl r0
     6e8:	2a080104 	bcs	200b00 <GUEST_OFFSET-0x7fdff500>
     6ec:	05000000 	streq	r0, [r0, #-0]
     6f0:	00034801 	andeq	r4, r3, r1, lsl #16
     6f4:	a00a0100 	andge	r0, sl, r0, lsl #2
     6f8:	1480000a 	strne	r0, [r0], #10
     6fc:	9480000c 	strls	r0, [r0], #12
     700:	01000002 	tsteq	r0, r2
     704:	000000d7 	ldrdeq	r0, [r0], -r7
     708:	00052c06 	andeq	r2, r5, r6, lsl #24
     70c:	d70c0100 	strle	r0, [ip, -r0, lsl #2]
     710:	02000000 	andeq	r0, r0, #0
     714:	59067091 	stmdbpl	r6, {r0, r4, r7, ip, sp, lr}
     718:	01000003 	tsteq	r0, r3
     71c:	0000d70d 	andeq	sp, r0, sp, lsl #14
     720:	6c910200 	lfmvs	f0, 4, [r1], {0}
     724:	00033c06 	andeq	r3, r3, r6, lsl #24
     728:	d70e0100 	strle	r0, [lr, -r0, lsl #2]
     72c:	02000000 	andeq	r0, r0, #0
     730:	42066891 	andmi	r6, r6, #9502720	; 0x910000
     734:	01000003 	tsteq	r0, r3
     738:	0000d70f 	andeq	sp, r0, pc, lsl #14
     73c:	64910200 	ldrvs	r0, [r1], #512	; 0x200
     740:	01006907 	tsteq	r0, r7, lsl #18
     744:	00002510 	andeq	r2, r0, r0, lsl r5
     748:	74910200 	ldrvc	r0, [r1], #512	; 0x200
     74c:	00317607 	eorseq	r7, r1, r7, lsl #12
     750:	00251101 	eoreq	r1, r5, r1, lsl #2
     754:	91020000 	mrsls	r0, (UNDEF: 2)
     758:	32760760 	rsbscc	r0, r6, #96, 14	; 0x1800000
     75c:	25110100 	ldrcs	r0, [r1, #-256]	; 0x100
     760:	02000000 	andeq	r0, r0, #0
     764:	72075c91 	andvc	r5, r7, #37120	; 0x9100
     768:	25110100 	ldrcs	r0, [r1, #-256]	; 0x100
     76c:	02000000 	andeq	r0, r0, #0
     770:	08005891 	stmdaeq	r0, {r0, r4, r7, fp, ip, lr}
     774:	0000dd04 	andeq	sp, r0, r4, lsl #26
     778:	002c0900 	eoreq	r0, ip, r0, lsl #18
     77c:	96000000 	strls	r0, [r0], -r0
     780:	02000000 	andeq	r0, r0, #0
     784:	0003dd00 	andeq	sp, r3, r0, lsl #26
     788:	07010400 	streq	r0, [r1, -r0, lsl #8]
     78c:	01000000 	mrseq	r0, (UNDEF: 0)
     790:	0000039c 	muleq	r0, ip, r3
     794:	0000003d 	andeq	r0, r0, sp, lsr r0
     798:	80000c14 	andhi	r0, r0, r4, lsl ip
     79c:	80000c44 	andhi	r0, r0, r4, asr #24
     7a0:	00000362 	andeq	r0, r0, r2, ror #6
     7a4:	69050402 	stmdbvs	r5, {r1, sl}
     7a8:	0300746e 	movweq	r7, #1134	; 0x46e
     7ac:	00000307 	andeq	r0, r0, r7, lsl #6
     7b0:	00370502 	eorseq	r0, r7, r2, lsl #10
     7b4:	04040000 	streq	r0, [r4], #-0
     7b8:	00001d07 	andeq	r1, r0, r7, lsl #26
     7bc:	07020400 	streq	r0, [r2, -r0, lsl #8]
     7c0:	0000008b 	andeq	r0, r0, fp, lsl #1
     7c4:	13070804 	movwne	r0, #30724	; 0x7804
     7c8:	04000000 	streq	r0, [r0], #-0
     7cc:	002a0801 	eoreq	r0, sl, r1, lsl #16
     7d0:	01050000 	mrseq	r0, (UNDEF: 5)
     7d4:	00000390 	muleq	r0, r0, r3
     7d8:	14010801 	strne	r0, [r1], #-2049	; 0x801
     7dc:	4480000c 	strmi	r0, [r0], #12
     7e0:	c080000c 	addgt	r0, r0, ip
     7e4:	01000002 	tsteq	r0, r2
     7e8:	0000007c 	andeq	r0, r0, ip, ror r0
     7ec:	00053606 	andeq	r3, r5, r6, lsl #12
     7f0:	2c080100 	stfcss	f0, [r8], {-0}
     7f4:	02000000 	andeq	r0, r0, #0
     7f8:	07007491 			; <UNDEFINED> instruction: 0x07007491
     7fc:	0000052c 	andeq	r0, r0, ip, lsr #10
     800:	008e0601 	addeq	r0, lr, r1, lsl #12
     804:	05010000 	streq	r0, [r1, #-0]
     808:	001e6803 	andseq	r6, lr, r3, lsl #16
     80c:	94040880 	strls	r0, [r4], #-2176	; 0x880
     810:	09000000 	stmdbeq	r0, {}	; <UNPREDICTABLE>
     814:	0000002c 	andeq	r0, r0, ip, lsr #32
     818:	00056900 	andeq	r6, r5, r0, lsl #18
     81c:	5e000200 	cdppl	2, 0, cr0, cr0, cr0, {0}
     820:	04000004 	streq	r0, [r0], #-4
     824:	00000701 	andeq	r0, r0, r1, lsl #14
     828:	04880100 	streq	r0, [r8], #256	; 0x100
     82c:	003d0000 	eorseq	r0, sp, r0
     830:	0c440000 	mareq	acc0, r0, r4
     834:	17408000 	strbne	r8, [r0, -r0]
     838:	03e88000 	mvneq	r8, #0
     83c:	ce020000 	cdpgt	0, 0, cr0, cr2, cr0, {0}
     840:	03000003 	movweq	r0, #3
     844:	000030d5 	ldrdeq	r3, [r0], -r5
     848:	07040300 	streq	r0, [r4, -r0, lsl #6]
     84c:	0000001d 	andeq	r0, r0, sp, lsl r0
     850:	30070403 	andcc	r0, r7, r3, lsl #8
     854:	03000001 	movweq	r0, #1
     858:	008b0702 	addeq	r0, fp, r2, lsl #14
     85c:	04040000 	streq	r0, [r4], #-0
     860:	746e6905 	strbtvc	r6, [lr], #-2309	; 0x905
     864:	52040500 	andpl	r0, r4, #0, 10
     868:	06000000 	streq	r0, [r0], -r0
     86c:	00000057 	andeq	r0, r0, r7, asr r0
     870:	33080103 	movwcc	r0, #33027	; 0x8103
     874:	07000000 	streq	r0, [r0, -r0]
     878:	00000425 	andeq	r0, r0, r5, lsr #8
     87c:	be010301 	cdplt	3, 0, cr0, cr1, cr1, {0}
     880:	44000000 	strmi	r0, [r0], #-0
     884:	d480000c 	strle	r0, [r0], #12
     888:	ec80000c 	stc	0, cr0, [r0], {12}
     88c:	01000002 	tsteq	r0, r2
     890:	000000be 	strheq	r0, [r0], -lr
     894:	0003e408 	andeq	lr, r3, r8, lsl #8
     898:	be030100 	adflts	f0, f3, f0
     89c:	02000000 	andeq	r0, r0, #0
     8a0:	c8086c91 	stmdagt	r8, {r0, r4, r7, sl, fp, sp, lr}
     8a4:	01000003 	tsteq	r0, r3
     8a8:	0000c003 	andeq	ip, r0, r3
     8ac:	68910200 	ldmvs	r1, {r9}
     8b0:	6e5f5f09 	cdpvs	15, 5, cr5, cr15, cr9, {0}
     8b4:	25030100 	strcs	r0, [r3, #-256]	; 0x100
     8b8:	02000000 	andeq	r0, r0, #0
     8bc:	640a6491 	strvs	r6, [sl], #-1169	; 0x491
     8c0:	c7050100 	strgt	r0, [r5, -r0, lsl #2]
     8c4:	02000000 	andeq	r0, r0, #0
     8c8:	730a7491 	movwvc	r7, #42129	; 0xa491
     8cc:	c7050100 	strgt	r0, [r5, -r0, lsl #2]
     8d0:	02000000 	andeq	r0, r0, #0
     8d4:	0b007091 	bleq	1cb20 <GUEST_OFFSET-0x7ffe34e0>
     8d8:	c6040504 	strgt	r0, [r4], -r4, lsl #10
     8dc:	0c000000 	stceq	0, cr0, [r0], {-0}
     8e0:	00cd0405 	sbceq	r0, sp, r5, lsl #8
     8e4:	01030000 	mrseq	r0, (UNDEF: 3)
     8e8:	00002a08 	andeq	r2, r0, r8, lsl #20
     8ec:	045f0700 	ldrbeq	r0, [pc], #-1792	; 8f4 <GUEST_OFFSET-0x7ffff70c>
     8f0:	0c010000 	stceq	0, cr0, [r1], {-0}
     8f4:	0000be01 	andeq	fp, r0, r1, lsl #28
     8f8:	000cd400 	andeq	sp, ip, r0, lsl #8
     8fc:	000d7c80 	andeq	r7, sp, r0, lsl #25
     900:	00031880 	andeq	r1, r3, r0, lsl #17
     904:	01340100 	teqeq	r4, r0, lsl #2
     908:	e4080000 	str	r0, [r8], #-0
     90c:	01000003 	tsteq	r0, r3
     910:	0000be0c 	andeq	fp, r0, ip, lsl #28
     914:	6c910200 	lfmvs	f0, 4, [r1], {0}
     918:	0003c808 	andeq	ip, r3, r8, lsl #16
     91c:	c00c0100 	andgt	r0, ip, r0, lsl #2
     920:	02000000 	andeq	r0, r0, #0
     924:	5f096891 	svcpl	0x00096891
     928:	01006e5f 	tsteq	r0, pc, asr lr
     92c:	0000250c 	andeq	r2, r0, ip, lsl #10
     930:	64910200 	ldrvs	r0, [r1], #512	; 0x200
     934:	0100640a 	tsteq	r0, sl, lsl #8
     938:	0000c70e 	andeq	ip, r0, lr, lsl #14
     93c:	74910200 	ldrvc	r0, [r1], #512	; 0x200
     940:	0100730a 	tsteq	r0, sl, lsl #6
     944:	0000c70e 	andeq	ip, r0, lr, lsl #14
     948:	70910200 	addsvc	r0, r1, r0, lsl #4
     94c:	73010d00 	movwvc	r0, #7424	; 0x1d00
     950:	02000004 	andeq	r0, r0, #4
     954:	00be012e 	adcseq	r0, lr, lr, lsr #2
     958:	0d7c0000 	ldcleq	0, cr0, [ip, #-0]
     95c:	0db48000 	ldceq	0, cr8, [r4]
     960:	03448000 	movteq	r8, #16384	; 0x4000
     964:	7d010000 	stcvc	0, cr0, [r1, #-0]
     968:	08000001 	stmdaeq	r0, {r0}
     96c:	000003e4 	andeq	r0, r0, r4, ror #7
     970:	00be1601 	adcseq	r1, lr, r1, lsl #12
     974:	91020000 	mrsls	r0, (UNDEF: 2)
     978:	03c80874 	biceq	r0, r8, #116, 16	; 0x740000
     97c:	16010000 	strne	r0, [r1], -r0
     980:	000000c0 	andeq	r0, r0, r0, asr #1
     984:	09709102 	ldmdbeq	r0!, {r1, r8, ip, pc}^
     988:	006e5f5f 	rsbeq	r5, lr, pc, asr pc
     98c:	00251601 	eoreq	r1, r5, r1, lsl #12
     990:	91020000 	mrsls	r0, (UNDEF: 2)
     994:	010d006c 	tsteq	sp, ip, rrx
     998:	000003dc 	ldrdeq	r0, [r0], -ip
     99c:	be013202 	cdplt	2, 0, cr3, cr1, cr2, {0}
     9a0:	b4000000 	strlt	r0, [r0], #-0
     9a4:	1480000d 	strne	r0, [r0], #13
     9a8:	7080000e 	addvc	r0, r0, lr
     9ac:	01000003 	tsteq	r0, r3
     9b0:	000001c6 	andeq	r0, r0, r6, asr #3
     9b4:	0003e408 	andeq	lr, r3, r8, lsl #8
     9b8:	be1b0100 	muflte	f0, f3, f0
     9bc:	02000000 	andeq	r0, r0, #0
     9c0:	c8087491 	stmdagt	r8, {r0, r4, r7, sl, ip, sp, lr}
     9c4:	01000003 	tsteq	r0, r3
     9c8:	0000c01b 	andeq	ip, r0, fp, lsl r0
     9cc:	70910200 	addsvc	r0, r1, r0, lsl #4
     9d0:	6e5f5f09 	cdpvs	15, 5, cr5, cr15, cr9, {0}
     9d4:	251b0100 	ldrcs	r0, [fp, #-256]	; 0x100
     9d8:	02000000 	andeq	r0, r0, #0
     9dc:	0e006c91 	mcreq	12, 0, r6, cr0, cr1, {4}
     9e0:	0003eb01 	andeq	lr, r3, r1, lsl #22
     9e4:	01600200 	cmneq	r0, r0, lsl #4
     9e8:	000000be 	strheq	r0, [r0], -lr
     9ec:	80000e14 	andhi	r0, r0, r4, lsl lr
     9f0:	80000e9c 	mulhi	r0, ip, lr
     9f4:	0000039c 	muleq	r0, ip, r3
     9f8:	00021601 	andeq	r1, r2, r1, lsl #12
     9fc:	00730900 	rsbseq	r0, r3, r0, lsl #18
     a00:	00c02301 	sbceq	r2, r0, r1, lsl #6
     a04:	91020000 	mrsls	r0, (UNDEF: 2)
     a08:	0063096c 	rsbeq	r0, r3, ip, ror #18
     a0c:	00452301 	subeq	r2, r5, r1, lsl #6
     a10:	91020000 	mrsls	r0, (UNDEF: 2)
     a14:	006e0968 	rsbeq	r0, lr, r8, ror #18
     a18:	00252301 	eoreq	r2, r5, r1, lsl #6
     a1c:	91020000 	mrsls	r0, (UNDEF: 2)
     a20:	735f0a64 	cmpvc	pc, #100, 20	; 0x64000
     a24:	16250100 	strtne	r0, [r5], -r0, lsl #2
     a28:	02000002 	andeq	r0, r0, #2
     a2c:	05007491 	streq	r7, [r0, #-1169]	; 0x491
     a30:	00021c04 	andeq	r1, r2, r4, lsl #24
     a34:	00cd0600 	sbceq	r0, sp, r0, lsl #12
     a38:	010f0000 	mrseq	r0, CPSR
     a3c:	000003f9 	strdeq	r0, [r0], -r9
     a40:	01018f02 	tsteq	r1, r2, lsl #30
     a44:	00000025 	andeq	r0, r0, r5, lsr #32
     a48:	80000e9c 	mulhi	r0, ip, lr
     a4c:	80000ef0 	strdhi	r0, [r0], -r0	; <UNPREDICTABLE>
     a50:	000003c8 	andeq	r0, r0, r8, asr #7
     a54:	00025a01 	andeq	r5, r2, r1, lsl #20
     a58:	00730900 	rsbseq	r0, r3, r0, lsl #18
     a5c:	004c3001 	subeq	r3, ip, r1
     a60:	91020000 	mrsls	r0, (UNDEF: 2)
     a64:	63730a6c 	cmnvs	r3, #108, 20	; 0x6c000
     a68:	4c320100 	ldfmis	f0, [r2], #-0
     a6c:	02000000 	andeq	r0, r0, #0
     a70:	0e007491 	mcreq	4, 0, r7, cr0, cr1, {4}
     a74:	00041e01 	andeq	r1, r4, r1, lsl #28
     a78:	01420200 	mrseq	r0, (UNDEF: 98)
     a7c:	000000be 	strheq	r0, [r0], -lr
     a80:	80000ef0 	strdhi	r0, [r0], -r0	; <UNPREDICTABLE>
     a84:	80000f6c 	andhi	r0, r0, ip, ror #30
     a88:	000003f4 	strdeq	r0, [r0], -r4
     a8c:	0002ac01 	andeq	sl, r2, r1, lsl #24
     a90:	00730900 	rsbseq	r0, r3, r0, lsl #18
     a94:	00be3801 	adcseq	r3, lr, r1, lsl #16
     a98:	91020000 	mrsls	r0, (UNDEF: 2)
     a9c:	0063096c 	rsbeq	r0, r3, ip, ror #18
     aa0:	00453801 	subeq	r3, r5, r1, lsl #16
     aa4:	91020000 	mrsls	r0, (UNDEF: 2)
     aa8:	04820868 	streq	r0, [r2], #2152	; 0x868
     aac:	38010000 	stmdacc	r1, {}	; <UNPREDICTABLE>
     ab0:	00000025 	andeq	r0, r0, r5, lsr #32
     ab4:	0a649102 	beq	1924ec4 <GUEST_OFFSET-0x7e6db13c>
     ab8:	01007378 	tsteq	r0, r8, ror r3
     abc:	0002ac3a 	andeq	sl, r2, sl, lsr ip
     ac0:	74910200 	ldrvc	r0, [r1], #512	; 0x200
     ac4:	57040500 	strpl	r0, [r4, -r0, lsl #10]
     ac8:	0e000000 	cdpeq	0, 0, cr0, cr0, cr0, {0}
     acc:	0003d501 	andeq	sp, r3, r1, lsl #10
     ad0:	01450200 	mrseq	r0, (UNDEF: 101)
     ad4:	00000045 	andeq	r0, r0, r5, asr #32
     ad8:	80000f6c 	andhi	r0, r0, ip, ror #30
     adc:	8000102c 	andhi	r1, r0, ip, lsr #32
     ae0:	00000420 	andeq	r0, r0, r0, lsr #8
     ae4:	00031301 	andeq	r1, r3, r1, lsl #6
     ae8:	31700900 	cmncc	r0, r0, lsl #18
     aec:	c0400100 	subgt	r0, r0, r0, lsl #2
     af0:	02000000 	andeq	r0, r0, #0
     af4:	70096c91 	mulvc	r9, r1, ip
     af8:	40010032 	andmi	r0, r1, r2, lsr r0
     afc:	000000c0 	andeq	r0, r0, r0, asr #1
     b00:	09689102 	stmdbeq	r8!, {r1, r8, ip, pc}^
     b04:	4001006e 	andmi	r0, r1, lr, rrx
     b08:	00000025 	andeq	r0, r0, r5, lsr #32
     b0c:	0a649102 	beq	1924f1c <GUEST_OFFSET-0x7e6db0e4>
     b10:	0031705f 	eorseq	r7, r1, pc, asr r0
     b14:	02164201 	andseq	r4, r6, #268435456	; 0x10000000
     b18:	91020000 	mrsls	r0, (UNDEF: 2)
     b1c:	705f0a74 	subsvc	r0, pc, r4, ror sl	; <UNPREDICTABLE>
     b20:	43010032 	movwmi	r0, #4146	; 0x1032
     b24:	00000216 	andeq	r0, r0, r6, lsl r2
     b28:	00709102 	rsbseq	r9, r0, r2, lsl #2
     b2c:	046c010e 	strbteq	r0, [ip], #-270	; 0x10e
     b30:	90020000 	andls	r0, r2, r0
     b34:	00004501 	andeq	r4, r0, r1, lsl #10
     b38:	00102c00 	andseq	r2, r0, r0, lsl #24
     b3c:	00111080 	andseq	r1, r1, r0, lsl #1
     b40:	00044c80 	andeq	r4, r4, r0, lsl #25
     b44:	034c0100 	movteq	r0, #49408	; 0xc100
     b48:	73090000 	movwvc	r0, #36864	; 0x9000
     b4c:	50010031 	andpl	r0, r1, r1, lsr r0
     b50:	0000004c 	andeq	r0, r0, ip, asr #32
     b54:	09749102 	ldmdbeq	r4!, {r1, r8, ip, pc}^
     b58:	01003273 	tsteq	r0, r3, ror r2
     b5c:	00004c50 	andeq	r4, r0, r0, asr ip
     b60:	70910200 	addsvc	r0, r1, r0, lsl #4
     b64:	7a010e00 	bvc	4436c <GUEST_OFFSET-0x7ffbbc94>
     b68:	02000004 	andeq	r0, r0, #4
     b6c:	00450193 	umaaleq	r0, r5, r3, r1
     b70:	11100000 	tstne	r0, r0
     b74:	122c8000 	eorne	r8, ip, #0
     b78:	04788000 	ldrbteq	r8, [r8], #-0
     b7c:	91010000 	mrsls	r0, (UNDEF: 1)
     b80:	09000003 	stmdbeq	r0, {r0, r1}
     b84:	01003173 	tsteq	r0, r3, ror r1
     b88:	00004c63 	andeq	r4, r0, r3, ror #24
     b8c:	74910200 	ldrvc	r0, [r1], #512	; 0x200
     b90:	00327309 	eorseq	r7, r2, r9, lsl #6
     b94:	004c6301 	subeq	r6, ip, r1, lsl #6
     b98:	91020000 	mrsls	r0, (UNDEF: 2)
     b9c:	006e0970 	rsbeq	r0, lr, r0, ror r9
     ba0:	00256301 	eoreq	r6, r5, r1, lsl #6
     ba4:	91020000 	mrsls	r0, (UNDEF: 2)
     ba8:	010e006c 	tsteq	lr, ip, rrx
     bac:	000003f2 	strdeq	r0, [r0], -r2
     bb0:	ac01ec02 	stcge	12, cr14, [r1], {2}
     bb4:	2c000002 	stccs	0, cr0, [r0], {2}
     bb8:	ac800012 	stcge	0, cr0, [r0], {18}
     bbc:	a4800012 	strge	r0, [r0], #18
     bc0:	01000004 	tsteq	r0, r4
     bc4:	000003d5 	ldrdeq	r0, [r0], -r5
     bc8:	01007309 	tsteq	r0, r9, lsl #6
     bcc:	00004c75 	andeq	r4, r0, r5, ror ip
     bd0:	6c910200 	lfmvs	f0, 4, [r1], {0}
     bd4:	01006309 	tsteq	r0, r9, lsl #6
     bd8:	00004575 	andeq	r4, r0, r5, ror r5
     bdc:	68910200 	ldmvs	r1, {r9}
     be0:	00735f0a 	rsbseq	r5, r3, sl, lsl #30
     be4:	02167701 	andseq	r7, r6, #262144	; 0x40000
     be8:	91020000 	mrsls	r0, (UNDEF: 2)
     bec:	010e0074 	tsteq	lr, r4, ror r0
     bf0:	00000410 	andeq	r0, r0, r0, lsl r4
     bf4:	ac018102 	stfged	f0, [r1], {2}
     bf8:	ac000002 	stcge	0, cr0, [r0], {2}
     bfc:	38800012 	stmcc	r0, {r1, r4}
     c00:	d0800013 	addle	r0, r0, r3, lsl r0
     c04:	01000004 	tsteq	r0, r4
     c08:	0000041c 	andeq	r0, r0, ip, lsl r4
     c0c:	0003e608 	andeq	lr, r3, r8, lsl #12
     c10:	ac810100 	stfges	f0, [r1], {0}
     c14:	02000002 	andeq	r0, r0, #2
     c18:	73096c91 	movwvc	r6, #40081	; 0x9c91
     c1c:	01006372 	tsteq	r0, r2, ror r3
     c20:	00004c81 	andeq	r4, r0, r1, lsl #25
     c24:	68910200 	ldmvs	r1, {r9}
     c28:	0100690a 	tsteq	r0, sl, lsl #18
     c2c:	00003083 	andeq	r3, r0, r3, lsl #1
     c30:	74910200 	ldrvc	r0, [r1], #512	; 0x200
     c34:	00010e00 	andeq	r0, r1, r0, lsl #28
     c38:	01000004 	tsteq	r0, r4
     c3c:	0030018b 	eorseq	r0, r0, fp, lsl #3
     c40:	13380000 	teqne	r8, #0
     c44:	14cc8000 	strbne	r8, [ip], #0
     c48:	04fc8000 	ldrbteq	r8, [ip], #0
     c4c:	65010000 	strvs	r0, [r1, #-0]
     c50:	09000004 	stmdbeq	r0, {r2}
     c54:	00637273 	rsbeq	r7, r3, r3, ror r2
     c58:	02ac8b01 	adceq	r8, ip, #1024	; 0x400
     c5c:	91020000 	mrsls	r0, (UNDEF: 2)
     c60:	61760a6c 	cmnvs	r6, ip, ror #20
     c64:	8d01006c 	stchi	0, cr0, [r1, #-432]	; 0xfffffe50
     c68:	00000030 	andeq	r0, r0, r0, lsr r0
     c6c:	0a749102 	beq	1d2507c <GUEST_OFFSET-0x7e2daf84>
     c70:	00736f70 	rsbseq	r6, r3, r0, ror pc
     c74:	00458e01 	subeq	r8, r5, r1, lsl #28
     c78:	91020000 	mrsls	r0, (UNDEF: 2)
     c7c:	01100070 	tsteq	r0, r0, ror r0
     c80:	00000434 	andeq	r0, r0, r4, lsr r4
     c84:	cc01a001 	stcgt	0, cr10, [r1], {1}
     c88:	cc800014 	stcgt	0, cr0, [r0], {20}
     c8c:	28800015 	stmcs	r0, {r0, r2, r4}
     c90:	01000005 	tsteq	r0, r5
     c94:	000004c9 	andeq	r0, r0, r9, asr #9
     c98:	74736409 	ldrbtvc	r6, [r3], #-1033	; 0x409
     c9c:	aca00100 	stfges	f0, [r0]
     ca0:	02000002 	andeq	r0, r0, #2
     ca4:	73096c91 	movwvc	r6, #40081	; 0x9c91
     ca8:	01006372 	tsteq	r0, r2, ror r3
     cac:	000030a0 	andeq	r3, r0, r0, lsr #1
     cb0:	68910200 	ldmvs	r1, {r9}
     cb4:	6574690a 	ldrbvs	r6, [r4, #-2314]!	; 0x90a
     cb8:	45a20100 	strmi	r0, [r2, #256]!	; 0x100
     cbc:	02000000 	andeq	r0, r0, #0
     cc0:	700a7491 	mulvc	sl, r1, r4
     cc4:	0100736f 	tsteq	r0, pc, ror #6
     cc8:	000045a2 	andeq	r4, r0, r2, lsr #11
     ccc:	70910200 	addsvc	r0, r1, r0, lsl #4
     cd0:	00044a11 	andeq	r4, r4, r1, lsl sl
     cd4:	d9a30100 	stmible	r3!, {r8}
     cd8:	05000004 	streq	r0, [r0, #-4]
     cdc:	001e1803 	andseq	r1, lr, r3, lsl #16
     ce0:	57120080 	ldrpl	r0, [r2, -r0, lsl #1]
     ce4:	d9000000 	stmdble	r0, {}	; <UNPREDICTABLE>
     ce8:	13000004 	movwne	r0, #4
     cec:	00000037 	andeq	r0, r0, r7, lsr r0
     cf0:	c9060010 	stmdbgt	r6, {r4}
     cf4:	0e000004 	cdpeq	0, 0, cr0, cr0, cr4, {0}
     cf8:	00041701 	andeq	r1, r4, r1, lsl #14
     cfc:	01890200 	orreq	r0, r9, r0, lsl #4
     d00:	000002ac 	andeq	r0, r0, ip, lsr #5
     d04:	800015cc 	andhi	r1, r0, ip, asr #11
     d08:	8000165c 	andhi	r1, r0, ip, asr r6
     d0c:	00000554 	andeq	r0, r0, r4, asr r5
     d10:	00051901 	andeq	r1, r5, r1, lsl #18
     d14:	03e60800 	mvneq	r0, #0, 16
     d18:	b5010000 	strlt	r0, [r1, #-0]
     d1c:	000002ac 	andeq	r0, r0, ip, lsr #5
     d20:	09749102 	ldmdbeq	r4!, {r1, r8, ip, pc}^
     d24:	00637273 	rsbeq	r7, r3, r3, ror r2
     d28:	004cb501 	subeq	fp, ip, r1, lsl #10
     d2c:	91020000 	mrsls	r0, (UNDEF: 2)
     d30:	01140070 	tsteq	r4, r0, ror r0
     d34:	00000453 	andeq	r0, r0, r3, asr r4
     d38:	4501c301 	strmi	ip, [r1, #-769]	; 0x301
     d3c:	5c000000 	stcpl	0, cr0, [r0], {-0}
     d40:	40800016 	addmi	r0, r0, r6, lsl r0
     d44:	80800017 	addhi	r0, r0, r7, lsl r0
     d48:	01000005 	tsteq	r0, r5
     d4c:	63727309 	cmnvs	r2, #603979776	; 0x24000000
     d50:	acc30100 	stfgee	f0, [r3], {0}
     d54:	02000002 	andeq	r0, r0, #2
     d58:	760a6491 			; <UNDEFINED> instruction: 0x760a6491
     d5c:	01006c61 	tsteq	r0, r1, ror #24
     d60:	000045c5 	andeq	r4, r0, r5, asr #11
     d64:	74910200 	ldrvc	r0, [r1], #512	; 0x200
     d68:	736f700a 	cmnvc	pc, #10
     d6c:	45c50100 	strbmi	r0, [r5, #256]	; 0x100
     d70:	02000000 	andeq	r0, r0, #0
     d74:	44117091 	ldrmi	r7, [r1], #-145	; 0x91
     d78:	01000004 	tsteq	r0, r4
     d7c:	000045c5 	andeq	r4, r0, r5, asr #11
     d80:	6c910200 	lfmvs	f0, 4, [r1], {0}
     d84:	00960000 	addseq	r0, r6, r0
     d88:	00020000 	andeq	r0, r2, r0
     d8c:	000005a1 	andeq	r0, r0, r1, lsr #11
     d90:	06400104 	strbeq	r0, [r0], -r4, lsl #2
     d94:	17400000 	strbne	r0, [r0, -r0]
     d98:	18208000 	stmdane	r0!, {pc}
     d9c:	2e2e8000 	cdpcs	0, 2, cr8, cr14, cr0, {0}
     da0:	2f2e2e2f 	svccs	0x002e2e2f
     da4:	2e2f2e2e 	cdpcs	14, 2, cr2, cr15, cr14, {1}
     da8:	6f632f2e 	svcvs	0x00632f2e
     dac:	6e6f6d6d 	cdpvs	13, 6, cr6, cr15, cr13, {3}
     db0:	6575672f 	ldrbvs	r6, [r5, #-1839]!	; 0x72f
     db4:	632f7473 	teqvs	pc, #1929379840	; 0x73000000
     db8:	2f65726f 	svccs	0x0065726f
     dbc:	73657567 	cmnvc	r5, #432013312	; 0x19c00000
     dc0:	00532e74 	subseq	r2, r3, r4, ror lr
     dc4:	6d6f682f 	stclvs	8, cr6, [pc, #-188]!	; d10 <GUEST_OFFSET-0x7ffff2f0>
     dc8:	61632f65 	cmnvs	r3, r5, ror #30
     dcc:	6e6f6973 	mcrvs	9, 3, r6, cr15, cr3, {3}
     dd0:	2f6f6f77 	svccs	0x006f6f77
     dd4:	7079686b 	rsbsvc	r6, r9, fp, ror #16
     dd8:	69767265 	ldmdbvs	r6!, {r0, r2, r5, r6, r9, ip, sp, lr}^
     ddc:	2f726f73 	svccs	0x00726f73
     de0:	74616c70 	strbtvc	r6, [r1], #-3184	; 0xc70
     de4:	6d726f66 	ldclvs	15, cr6, [r2, #-408]!	; 0xfffffe68
     de8:	7665642d 	strbtvc	r6, [r5], -sp, lsr #8
     dec:	2f656369 	svccs	0x00656369
     df0:	74726f63 	ldrbtvc	r6, [r2], #-3939	; 0xf63
     df4:	615f7865 	cmpvs	pc, r5, ror #16
     df8:	32783531 	rsbscc	r3, r8, #205520896	; 0xc400000
     dfc:	7374725f 	cmnvc	r4, #-268435451	; 0xf0000005
     e00:	75672f6d 	strbvc	r2, [r7, #-3949]!	; 0xf6d
     e04:	6f747365 	svcvs	0x00747365
     e08:	6d622f73 	stclvs	15, cr2, [r2, #-460]!	; 0xfffffe34
     e0c:	73657567 	cmnvc	r5, #432013312	; 0x19c00000
     e10:	4e470074 	mcrmi	0, 2, r0, cr7, cr4, {3}
     e14:	53412055 	movtpl	r2, #4181	; 0x1055
     e18:	322e3220 	eorcc	r3, lr, #32, 4
     e1c:	80010034 	andhi	r0, r1, r4, lsr r0
     e20:	00000128 	andeq	r0, r0, r8, lsr #2
     e24:	05b50002 	ldreq	r0, [r5, #2]!
     e28:	01040000 	mrseq	r0, (UNDEF: 4)
     e2c:	00000007 	andeq	r0, r0, r7
     e30:	0004cd01 	andeq	ip, r4, r1, lsl #26
     e34:	00003d00 	andeq	r3, r0, r0, lsl #26
     e38:	00182000 	andseq	r2, r8, r0
     e3c:	00196880 	andseq	r6, r9, r0, lsl #17
     e40:	0006ca80 	andeq	ip, r6, r0, lsl #21
     e44:	b3010200 	movwlt	r0, #4608	; 0x1200
     e48:	01000004 	tsteq	r0, r4
     e4c:	18200107 	stmdane	r0!, {r0, r1, r2, r8}
     e50:	18348000 	ldmdane	r4!, {pc}
     e54:	05ac8000 	streq	r8, [ip, #0]!
     e58:	03010000 	movweq	r0, #4096	; 0x1000
     e5c:	0004a801 	andeq	sl, r4, r1, lsl #16
     e60:	01130100 	tsteq	r3, r0, lsl #2
     e64:	80001834 	andhi	r1, r0, r4, lsr r8
     e68:	8000188c 	andhi	r1, r0, ip, lsl #17
     e6c:	000005d8 	ldrdeq	r0, [r0], -r8
     e70:	00007201 	andeq	r7, r0, r1, lsl #4
     e74:	74730400 	ldrbtvc	r0, [r3], #-1024	; 0x400
     e78:	13010072 	movwne	r0, #4210	; 0x1072
     e7c:	00000072 	andeq	r0, r0, r2, ror r0
     e80:	056c9102 	strbeq	r9, [ip, #-258]!	; 0x102
     e84:	000004bd 			; <UNDEFINED> instruction: 0x000004bd
     e88:	00721501 	rsbseq	r1, r2, r1, lsl #10
     e8c:	91020000 	mrsls	r0, (UNDEF: 2)
     e90:	04060074 	streq	r0, [r6], #-116	; 0x74
     e94:	00000078 	andeq	r0, r0, r8, ror r0
     e98:	33080107 	movwcc	r0, #33031	; 0x8107
     e9c:	03000000 	movweq	r0, #0
     ea0:	0004c301 	andeq	ip, r4, r1, lsl #6
     ea4:	011a0100 	tsteq	sl, r0, lsl #2
     ea8:	8000188c 	andhi	r1, r0, ip, lsl #17
     eac:	800018c4 	andhi	r1, r0, r4, asr #17
     eb0:	00000604 	andeq	r0, r0, r4, lsl #12
     eb4:	0000b401 	andeq	fp, r0, r1, lsl #8
     eb8:	00630400 	rsbeq	r0, r3, r0, lsl #8
     ebc:	00781a01 	rsbseq	r1, r8, r1, lsl #20
     ec0:	91020000 	mrsls	r0, (UNDEF: 2)
     ec4:	04bd056f 	ldrteq	r0, [sp], #1391	; 0x56f
     ec8:	1c010000 	stcne	0, cr0, [r1], {-0}
     ecc:	000000b4 	strheq	r0, [r0], -r4
     ed0:	00749102 	rsbseq	r9, r4, r2, lsl #2
     ed4:	00ba0406 	adcseq	r0, sl, r6, lsl #8
     ed8:	78080000 	stmdavc	r8, {}	; <UNPREDICTABLE>
     edc:	09000000 	stmdbeq	r0, {}	; <UNPREDICTABLE>
     ee0:	0004e801 	andeq	lr, r4, r1, lsl #16
     ee4:	01200100 	teqeq	r0, r0, lsl #2
     ee8:	800018c4 	andhi	r1, r0, r4, asr #17
     eec:	80001968 	andhi	r1, r0, r8, ror #18
     ef0:	00000630 	andeq	r0, r0, r0, lsr r6
     ef4:	00010c01 	andeq	r0, r1, r1, lsl #24
     ef8:	00760400 	rsbseq	r0, r6, r0, lsl #8
     efc:	010c2001 	tsteq	ip, r1
     f00:	91020000 	mrsls	r0, (UNDEF: 2)
     f04:	04f90564 	ldrbteq	r0, [r9], #1380	; 0x564
     f08:	22010000 	andcs	r0, r1, #0
     f0c:	0000010c 	andeq	r0, r0, ip, lsl #2
     f10:	0a6c9102 	beq	1b25320 <GUEST_OFFSET-0x7e4dace0>
     f14:	23010063 	movwcs	r0, #4195	; 0x1063
     f18:	0000010c 	andeq	r0, r0, ip, lsl #2
     f1c:	0a749102 	beq	1d2532c <GUEST_OFFSET-0x7e2dacd4>
     f20:	24010069 	strcs	r0, [r1], #-105	; 0x69
     f24:	00000113 	andeq	r0, r0, r3, lsl r1
     f28:	00709102 	rsbseq	r9, r0, r2, lsl #2
     f2c:	1d070407 	cfstrsne	mvf0, [r7, #-28]	; 0xffffffe4
     f30:	0b000000 	bleq	f38 <GUEST_OFFSET-0x7ffff0c8>
     f34:	6e690504 	cdpvs	5, 6, cr0, cr9, cr4, {0}
     f38:	dc050074 	stcle	0, cr0, [r5], {116}	; 0x74
     f3c:	01000004 	tsteq	r0, r4
     f40:	00007805 	andeq	r7, r0, r5, lsl #16
     f44:	1c030500 	cfstr32ne	mvfx0, [r3], {-0}
     f48:	00800020 	addeq	r0, r0, r0, lsr #32
     f4c:	000002d2 	ldrdeq	r0, [r0], -r2
     f50:	06680002 	strbteq	r0, [r8], -r2
     f54:	01040000 	mrseq	r0, (UNDEF: 4)
     f58:	00000007 	andeq	r0, r0, r7
     f5c:	00053c01 	andeq	r3, r5, r1, lsl #24
     f60:	00003d00 	andeq	r3, r0, r0, lsl #26
     f64:	00196800 	andseq	r6, r9, r0, lsl #16
     f68:	001bec80 	andseq	lr, fp, r0, lsl #25
     f6c:	00072b80 	andeq	r2, r7, r0, lsl #23
     f70:	05040200 	streq	r0, [r4, #-512]	; 0x200
     f74:	00746e69 	rsbseq	r6, r4, r9, ror #28
     f78:	00030703 	andeq	r0, r3, r3, lsl #14
     f7c:	37050200 	strcc	r0, [r5, -r0, lsl #4]
     f80:	04000000 	streq	r0, [r0], #-0
     f84:	001d0704 	andseq	r0, sp, r4, lsl #14
     f88:	02040000 	andeq	r0, r4, #0
     f8c:	00008b07 	andeq	r8, r0, r7, lsl #22
     f90:	07080400 	streq	r0, [r8, -r0, lsl #8]
     f94:	00000013 	andeq	r0, r0, r3, lsl r0
     f98:	00025903 	andeq	r5, r2, r3, lsl #18
     f9c:	57080200 	strpl	r0, [r8, -r0, lsl #4]
     fa0:	04000000 	streq	r0, [r0], #-0
     fa4:	002a0801 	eoreq	r0, sl, r1, lsl #16
     fa8:	1b050000 	blne	140fb0 <GUEST_OFFSET-0x7febf050>
     fac:	04000003 	streq	r0, [r0], #-3
     fb0:	00950903 	addseq	r0, r5, r3, lsl #18
     fb4:	c2060000 	andgt	r0, r6, #0
     fb8:	00000001 	andeq	r0, r0, r1
     fbc:	0002cd06 	andeq	ip, r2, r6, lsl #26
     fc0:	e7067f00 	str	r7, [r6, -r0, lsl #30]
     fc4:	7e000002 	cdpvc	0, 0, cr0, cr0, cr2, {0}
     fc8:	0002bc06 	andeq	fp, r2, r6, lsl #24
     fcc:	f4067d00 			; <UNDEFINED> instruction: 0xf4067d00
     fd0:	7c000001 	stcvc	0, cr0, [r0], {1}
     fd4:	00019c06 	andeq	r9, r1, r6, lsl #24
     fd8:	a8067b00 	stmdage	r6, {r8, r9, fp, ip, sp, lr}
     fdc:	7a000002 	bvc	fec <GUEST_OFFSET-0x7ffff014>
     fe0:	02730300 	rsbseq	r0, r3, #0, 6
     fe4:	11030000 	mrsne	r0, (UNDEF: 3)
     fe8:	0000005e 	andeq	r0, r0, lr, asr r0
     fec:	0005d403 	andeq	sp, r5, r3, lsl #8
     ff0:	4c1b0300 	ldcmi	3, cr0, [fp], {-0}
     ff4:	07000000 	streq	r0, [r0, -r0]
     ff8:	c1010804 	tstgt	r1, r4, lsl #16
     ffc:	01000005 	tsteq	r0, r5
    1000:	1968012a 	stmdbne	r8!, {r1, r3, r5, r8}^
    1004:	19948000 	ldmibne	r4, {pc}
    1008:	065c8000 	ldrbeq	r8, [ip], -r0
    100c:	e4010000 	str	r0, [r1], #-0
    1010:	09000000 	stmdbeq	r0, {}	; <UNPREDICTABLE>
    1014:	000005cc 	andeq	r0, r0, ip, asr #11
    1018:	002c2a01 	eoreq	r2, ip, r1, lsl #20
    101c:	91020000 	mrsls	r0, (UNDEF: 2)
    1020:	05260974 	streq	r0, [r6, #-2420]!	; 0x974
    1024:	2a010000 	bcs	4102c <GUEST_OFFSET-0x7ffbefd4>
    1028:	0000002c 	andeq	r0, r0, ip, lsr #32
    102c:	00709102 	rsbseq	r9, r0, r2, lsl #2
    1030:	05ad010a 	streq	r0, [sp, #266]!	; 0x10a
    1034:	2f010000 	svccs	0x00010000
    1038:	00199401 	andseq	r9, r9, r1, lsl #8
    103c:	0019f080 	andseq	pc, r9, r0, lsl #1
    1040:	00068880 	andeq	r8, r6, r0, lsl #17
    1044:	01290100 	teqeq	r9, r0, lsl #2
    1048:	26090000 	strcs	r0, [r9], -r0
    104c:	01000005 	tsteq	r0, r5
    1050:	00002c2f 	andeq	r2, r0, pc, lsr #24
    1054:	6c910200 	lfmvs	f0, 4, [r1], {0}
    1058:	00053109 	andeq	r3, r5, r9, lsl #2
    105c:	2c2f0100 	stfcss	f0, [pc], #-0	; 1064 <GUEST_OFFSET-0x7fffef9c>
    1060:	02000000 	andeq	r0, r0, #0
    1064:	720b6891 	andvc	r6, fp, #9502720	; 0x910000
    1068:	01006765 	tsteq	r0, r5, ror #14
    106c:	00012931 	andeq	r2, r1, r1, lsr r9
    1070:	74910200 	ldrvc	r0, [r1], #512	; 0x200
    1074:	002c0c00 	eoreq	r0, ip, r0, lsl #24
    1078:	01080000 	mrseq	r0, (UNDEF: 8)
    107c:	00000552 	andeq	r0, r0, r2, asr r5
    1080:	f0013c01 			; <UNDEFINED> instruction: 0xf0013c01
    1084:	38800019 	stmcc	r0, {r0, r3, r4}
    1088:	b480001a 	strlt	r0, [r0], #26
    108c:	01000006 	tsteq	r0, r6
    1090:	00000165 	andeq	r0, r0, r5, ror #2
    1094:	00052609 	andeq	r2, r5, r9, lsl #12
    1098:	2c3c0100 	ldfcss	f0, [ip], #-0
    109c:	02000000 	andeq	r0, r0, #0
    10a0:	720b6c91 	andvc	r6, fp, #37120	; 0x9100
    10a4:	01006765 	tsteq	r0, r5, ror #14
    10a8:	0001293e 	andeq	r2, r1, lr, lsr r9
    10ac:	74910200 	ldrvc	r0, [r1], #512	; 0x200
    10b0:	ff010a00 			; <UNDEFINED> instruction: 0xff010a00
    10b4:	01000004 	tsteq	r0, r4
    10b8:	1a380143 	bne	e015cc <GUEST_OFFSET-0x7f1fea34>
    10bc:	1a688000 	bne	1a210c4 <GUEST_OFFSET-0x7e5def3c>
    10c0:	06e08000 	strbteq	r8, [r0], r0
    10c4:	9c010000 	stcls	0, cr0, [r1], {-0}
    10c8:	09000001 	stmdbeq	r0, {r0}
    10cc:	00000526 	andeq	r0, r0, r6, lsr #10
    10d0:	002c4301 	eoreq	r4, ip, r1, lsl #6
    10d4:	91020000 	mrsls	r0, (UNDEF: 2)
    10d8:	05310974 	ldreq	r0, [r1, #-2420]!	; 0x974
    10dc:	43010000 	movwmi	r0, #4096	; 0x1000
    10e0:	0000002c 	andeq	r0, r0, ip, lsr #32
    10e4:	00709102 	rsbseq	r9, r0, r2, lsl #2
    10e8:	05650108 	strbeq	r0, [r5, #-264]!	; 0x108
    10ec:	4a010000 	bmi	410f4 <GUEST_OFFSET-0x7ffbef0c>
    10f0:	001a6801 	andseq	r6, sl, r1, lsl #16
    10f4:	001a9480 	andseq	r9, sl, r0, lsl #9
    10f8:	00070c80 	andeq	r0, r7, r0, lsl #25
    10fc:	01c50100 	biceq	r0, r5, r0, lsl #2
    1100:	26090000 	strcs	r0, [r9], -r0
    1104:	01000005 	tsteq	r0, r5
    1108:	00002c4a 	andeq	r2, r0, sl, asr #24
    110c:	74910200 	ldrvc	r0, [r1], #512	; 0x200
    1110:	0a010800 	beq	43118 <GUEST_OFFSET-0x7ffbcee8>
    1114:	01000005 	tsteq	r0, r5
    1118:	1a94014f 	bne	fe50165c <guest_stacklimit+0x6e50165c>
    111c:	1adc8000 	bne	ff721124 <guest_stacklimit+0x6f721124>
    1120:	07388000 	ldreq	r8, [r8, -r0]!
    1124:	fc010000 	stc2	0, cr0, [r1], {-0}
    1128:	09000001 	stmdbeq	r0, {r0}
    112c:	00000526 	andeq	r0, r0, r6, lsr #10
    1130:	002c4f01 	eoreq	r4, ip, r1, lsl #30
    1134:	91020000 	mrsls	r0, (UNDEF: 2)
    1138:	65720b6c 	ldrbvs	r0, [r2, #-2924]!	; 0xb6c
    113c:	51010067 	tstpl	r1, r7, rrx
    1140:	00000129 	andeq	r0, r0, r9, lsr #2
    1144:	00749102 	rsbseq	r9, r4, r2, lsl #2
    1148:	058b010d 	streq	r0, [fp, #269]	; 0x10d
    114c:	56010000 	strpl	r0, [r1], -r0
    1150:	00002c01 	andeq	r2, r0, r1, lsl #24
    1154:	001adc00 	andseq	sp, sl, r0, lsl #24
    1158:	001b0880 	andseq	r0, fp, r0, lsl #17
    115c:	00076480 	andeq	r6, r7, r0, lsl #9
    1160:	02290100 	eoreq	r0, r9, #0, 2
    1164:	26090000 	strcs	r0, [r9], -r0
    1168:	01000005 	tsteq	r0, r5
    116c:	00002c56 	andeq	r2, r0, r6, asr ip
    1170:	74910200 	ldrvc	r0, [r1], #512	; 0x200
    1174:	16010800 	strne	r0, [r1], -r0, lsl #16
    1178:	01000005 	tsteq	r0, r5
    117c:	1b08015b 	blne	2016f0 <GUEST_OFFSET-0x7fdfe910>
    1180:	1b348000 	blne	d21188 <GUEST_OFFSET-0x7f2dee78>
    1184:	07908000 	ldreq	r8, [r0, r0]
    1188:	52010000 	andpl	r0, r1, #0
    118c:	09000002 	stmdbeq	r0, {r1}
    1190:	00000526 	andeq	r0, r0, r6, lsr #10
    1194:	002c5b01 	eoreq	r5, ip, r1, lsl #22
    1198:	91020000 	mrsls	r0, (UNDEF: 2)
    119c:	010a0074 	tsteq	sl, r4, ror r0
    11a0:	00000575 	andeq	r0, r0, r5, ror r5
    11a4:	34016001 	strcc	r6, [r1], #-1
    11a8:	a880001b 	stmge	r0, {r0, r1, r3, r4}
    11ac:	bc80001b 	stclt	0, cr0, [r0], {27}
    11b0:	01000007 	tsteq	r0, r7
    11b4:	000002bb 			; <UNDEFINED> instruction: 0x000002bb
    11b8:	7172690e 	cmnvc	r2, lr, lsl #18
    11bc:	25600100 	strbcs	r0, [r0, #-256]!	; 0x100
    11c0:	02000000 	andeq	r0, r0, #0
    11c4:	10096c91 	mulne	r9, r1, ip
    11c8:	01000003 	tsteq	r0, r3
    11cc:	0000ab60 	andeq	sl, r0, r0, ror #22
    11d0:	68910200 	ldmvs	r1, {r9}
    11d4:	00016309 	andeq	r6, r1, r9, lsl #6
    11d8:	ab600100 	blge	18015e0 <GUEST_OFFSET-0x7e7fea20>
    11dc:	02000000 	andeq	r0, r0, #0
    11e0:	630f6491 	movwvs	r6, #62609	; 0xf491
    11e4:	01006c74 	tsteq	r0, r4, ror ip
    11e8:	00002c62 	andeq	r2, r0, r2, ror #24
    11ec:	61760b00 	cmnvs	r6, r0, lsl #22
    11f0:	6301006c 	movwvs	r0, #4204	; 0x106c
    11f4:	0000002c 	andeq	r0, r0, ip, lsr #32
    11f8:	10749102 	rsbsne	r9, r4, r2, lsl #2
    11fc:	00000570 	andeq	r0, r0, r0, ror r5
    1200:	00a06401 	adceq	r6, r0, r1, lsl #8
    1204:	11000000 	mrsne	r0, (UNDEF: 0)
    1208:	00059601 	andeq	r9, r5, r1, lsl #12
    120c:	01710100 	cmneq	r1, r0, lsl #2
    1210:	00000095 	muleq	r0, r5, r0
    1214:	80001ba8 	andhi	r1, r0, r8, lsr #23
    1218:	80001bec 	andhi	r1, r0, ip, ror #23
    121c:	000007e8 	andeq	r0, r0, r8, ror #15
    1220:	Address 0x0000000000001220 is out of bounds.


Disassembly of section .debug_abbrev:

00000000 <.debug_abbrev>:
   0:	10001101 	andne	r1, r0, r1, lsl #2
   4:	12011106 	andne	r1, r1, #-2147483647	; 0x80000001
   8:	1b080301 	blne	200c14 <GUEST_OFFSET-0x7fdff3ec>
   c:	13082508 	movwne	r2, #34056	; 0x8508
  10:	00000005 	andeq	r0, r0, r5
  14:	25011101 	strcs	r1, [r1, #-257]	; 0x101
  18:	030b130e 	movweq	r1, #45838	; 0xb30e
  1c:	110e1b0e 	tstne	lr, lr, lsl #22
  20:	10011201 	andne	r1, r1, r1, lsl #4
  24:	02000006 	andeq	r0, r0, #6
  28:	0b0b0024 	bleq	2c00c0 <GUEST_OFFSET-0x7fd3ff40>
  2c:	08030b3e 	stmdaeq	r3, {r1, r2, r3, r4, r5, r8, r9, fp}
  30:	24030000 	strcs	r0, [r3], #-0
  34:	3e0b0b00 	vmlacc.f64	d0, d11, d0
  38:	000e030b 	andeq	r0, lr, fp, lsl #6
  3c:	012e0400 	teqeq	lr, r0, lsl #8
  40:	0e030c3f 	mcreq	12, 0, r0, cr3, cr15, {1}
  44:	0b3b0b3a 	bleq	ec2d34 <GUEST_OFFSET-0x7f13d2cc>
  48:	01111349 	tsteq	r1, r9, asr #6
  4c:	06400112 			; <UNDEFINED> instruction: 0x06400112
  50:	000c4296 	muleq	ip, r6, r2
  54:	00340500 	eorseq	r0, r4, r0, lsl #10
  58:	0b3a0803 	bleq	e8206c <GUEST_OFFSET-0x7f17df94>
  5c:	13490b3b 	movtne	r0, #39739	; 0x9b3b
  60:	01000000 	mrseq	r0, (UNDEF: 0)
  64:	0e250111 	mcreq	1, 1, r0, cr5, cr1, {0}
  68:	0e030b13 	vmoveq.32	d3[0], r0
  6c:	01110e1b 	tsteq	r1, fp, lsl lr
  70:	06100112 			; <UNDEFINED> instruction: 0x06100112
  74:	24020000 	strcs	r0, [r2], #-0
  78:	3e0b0b00 	vmlacc.f64	d0, d11, d0
  7c:	0008030b 	andeq	r0, r8, fp, lsl #6
  80:	00240300 	eoreq	r0, r4, r0, lsl #6
  84:	0b3e0b0b 	bleq	f82cb8 <GUEST_OFFSET-0x7f07d348>
  88:	00000e03 	andeq	r0, r0, r3, lsl #28
  8c:	3f012e04 	svccc	0x00012e04
  90:	3a0e030c 	bcc	380cc8 <GUEST_OFFSET-0x7fc7f338>
  94:	270b3b0b 	strcs	r3, [fp, -fp, lsl #22]
  98:	1201110c 	andne	r1, r1, #12, 2
  9c:	97064001 	strls	r4, [r6, -r1]
  a0:	13010c42 	movwne	r0, #7234	; 0x1c42
  a4:	34050000 	strcc	r0, [r5], #-0
  a8:	3a080300 	bcc	200cb0 <GUEST_OFFSET-0x7fdff350>
  ac:	490b3b0b 	stmdbmi	fp, {r0, r1, r3, r8, r9, fp, ip, sp}
  b0:	000a0213 	andeq	r0, sl, r3, lsl r2
  b4:	00350600 	eorseq	r0, r5, r0, lsl #12
  b8:	00001349 	andeq	r1, r0, r9, asr #6
  bc:	3f012e07 	svccc	0x00012e07
  c0:	3a0e030c 	bcc	380cf8 <GUEST_OFFSET-0x7fc7f308>
  c4:	270b3b0b 	strcs	r3, [fp, -fp, lsl #22]
  c8:	1201110c 	andne	r1, r1, #12, 2
  cc:	96064001 	strls	r4, [r6], -r1
  d0:	00000c42 	andeq	r0, r0, r2, asr #24
  d4:	3f012e08 	svccc	0x00012e08
  d8:	3a0e030c 	bcc	380d10 <GUEST_OFFSET-0x7fc7f2f0>
  dc:	490b3b0b 	stmdbmi	fp, {r0, r1, r3, r8, r9, fp, ip, sp}
  e0:	000c3c13 	andeq	r3, ip, r3, lsl ip
  e4:	00180900 	andseq	r0, r8, r0, lsl #18
  e8:	01000000 	mrseq	r0, (UNDEF: 0)
  ec:	0e250111 	mcreq	1, 1, r0, cr5, cr1, {0}
  f0:	0e030b13 	vmoveq.32	d3[0], r0
  f4:	01110e1b 	tsteq	r1, fp, lsl lr
  f8:	06100112 			; <UNDEFINED> instruction: 0x06100112
  fc:	13020000 	movwne	r0, #8192	; 0x2000
 100:	0b0e0301 	bleq	380d0c <GUEST_OFFSET-0x7fc7f2f4>
 104:	3b0b3a0b 	blcc	2ce938 <GUEST_OFFSET-0x7fd316c8>
 108:	0013010b 	andseq	r0, r3, fp, lsl #2
 10c:	000d0300 	andeq	r0, sp, r0, lsl #6
 110:	0b3a0e03 	bleq	e83924 <GUEST_OFFSET-0x7f17c6dc>
 114:	13490b3b 	movtne	r0, #39739	; 0x9b3b
 118:	00000a38 	andeq	r0, r0, r8, lsr sl
 11c:	03000d04 	movweq	r0, #3332	; 0xd04
 120:	3b0b3a08 	blcc	2ce948 <GUEST_OFFSET-0x7fd316b8>
 124:	3813490b 	ldmdacc	r3, {r0, r1, r3, r8, fp, lr}
 128:	0500000a 	streq	r0, [r0, #-10]
 12c:	0b0b0024 	bleq	2c01c4 <GUEST_OFFSET-0x7fd3fe3c>
 130:	0e030b3e 	vmoveq.16	d3[0], r0
 134:	01060000 	mrseq	r0, (UNDEF: 6)
 138:	01134901 	tsteq	r3, r1, lsl #18
 13c:	07000013 	smladeq	r0, r3, r0, r0
 140:	13490021 	movtne	r0, #36897	; 0x9021
 144:	00000b2f 	andeq	r0, r0, pc, lsr #22
 148:	3f012e08 	svccc	0x00012e08
 14c:	3a0e030c 	bcc	380d84 <GUEST_OFFSET-0x7fc7f27c>
 150:	270b3b0b 	strcs	r3, [fp, -fp, lsl #22]
 154:	1201110c 	andne	r1, r1, #12, 2
 158:	97064001 	strls	r4, [r6, -r1]
 15c:	13010c42 	movwne	r0, #7234	; 0x1c42
 160:	05090000 	streq	r0, [r9, #-0]
 164:	3a0e0300 	bcc	380d6c <GUEST_OFFSET-0x7fc7f294>
 168:	490b3b0b 	stmdbmi	fp, {r0, r1, r3, r8, r9, fp, ip, sp}
 16c:	000a0213 	andeq	r0, sl, r3, lsl r2
 170:	000f0a00 	andeq	r0, pc, r0, lsl #20
 174:	13490b0b 	movtne	r0, #39691	; 0x9b0b
 178:	2e0b0000 	cdpcs	0, 0, cr0, cr11, cr0, {0}
 17c:	030c3f01 	movweq	r3, #52993	; 0xcf01
 180:	3b0b3a0e 	blcc	2ce9c0 <GUEST_OFFSET-0x7fd31640>
 184:	110c270b 	tstne	ip, fp, lsl #14
 188:	40011201 	andmi	r1, r1, r1, lsl #4
 18c:	0c429606 	mcrreq	6, 0, r9, r2, cr6
 190:	00001301 	andeq	r1, r0, r1, lsl #6
 194:	3f012e0c 	svccc	0x00012e0c
 198:	3a0e030c 	bcc	380dd0 <GUEST_OFFSET-0x7fc7f230>
 19c:	490b3b0b 	stmdbmi	fp, {r0, r1, r3, r8, r9, fp, ip, sp}
 1a0:	000c3c13 	andeq	r3, ip, r3, lsl ip
 1a4:	00180d00 	andseq	r0, r8, r0, lsl #26
 1a8:	240e0000 	strcs	r0, [lr], #-0
 1ac:	3e0b0b00 	vmlacc.f64	d0, d11, d0
 1b0:	0008030b 	andeq	r0, r8, fp, lsl #6
 1b4:	11010000 	mrsne	r0, (UNDEF: 1)
 1b8:	130e2501 	movwne	r2, #58625	; 0xe501
 1bc:	1b0e030b 	blne	380df0 <GUEST_OFFSET-0x7fc7f210>
 1c0:	1201110e 	andne	r1, r1, #-2147483645	; 0x80000003
 1c4:	00061001 	andeq	r1, r6, r1
 1c8:	00240200 	eoreq	r0, r4, r0, lsl #4
 1cc:	0b3e0b0b 	bleq	f82e00 <GUEST_OFFSET-0x7f07d200>
 1d0:	00000803 	andeq	r0, r0, r3, lsl #16
 1d4:	03001603 	movweq	r1, #1539	; 0x603
 1d8:	3b0b3a0e 	blcc	2cea18 <GUEST_OFFSET-0x7fd315e8>
 1dc:	0013490b 	andseq	r4, r3, fp, lsl #18
 1e0:	00240400 	eoreq	r0, r4, r0, lsl #8
 1e4:	0b3e0b0b 	bleq	f82e18 <GUEST_OFFSET-0x7f07d1e8>
 1e8:	00000e03 	andeq	r0, r0, r3, lsl #28
 1ec:	03010405 	movweq	r0, #5125	; 0x1405
 1f0:	3a0b0b0e 	bcc	2c2e30 <GUEST_OFFSET-0x7fd3d1d0>
 1f4:	010b3b0b 	tsteq	fp, fp, lsl #22
 1f8:	06000013 			; <UNDEFINED> instruction: 0x06000013
 1fc:	0e030028 	cdpeq	0, 0, cr0, cr3, cr8, {1}
 200:	00000d1c 	andeq	r0, r0, ip, lsl sp
 204:	0b000f07 	bleq	3e28 <GUEST_OFFSET-0x7fffc1d8>
 208:	0013490b 	andseq	r4, r3, fp, lsl #18
 20c:	01150800 	tsteq	r5, r0, lsl #16
 210:	13010c27 	movwne	r0, #7207	; 0x1c27
 214:	05090000 	streq	r0, [r9, #-0]
 218:	00134900 	andseq	r4, r3, r0, lsl #18
 21c:	000f0a00 	andeq	r0, pc, r0, lsl #20
 220:	00000b0b 	andeq	r0, r0, fp, lsl #22
 224:	0301130b 	movweq	r1, #4875	; 0x130b
 228:	3a050b08 	bcc	142e50 <GUEST_OFFSET-0x7febd1b0>
 22c:	010b3b0b 	tsteq	fp, fp, lsl #22
 230:	0c000013 	stceq	0, cr0, [r0], {19}
 234:	0e03000d 	cdpeq	0, 0, cr0, cr3, cr13, {0}
 238:	0b3b0b3a 	bleq	ec2f28 <GUEST_OFFSET-0x7f13d0d8>
 23c:	0a381349 	beq	e04f68 <GUEST_OFFSET-0x7f1fb098>
 240:	350d0000 	strcc	r0, [sp, #-0]
 244:	00134900 	andseq	r4, r3, r0, lsl #18
 248:	01010e00 	tsteq	r1, r0, lsl #28
 24c:	13011349 	movwne	r1, #4937	; 0x1349
 250:	210f0000 	mrscs	r0, CPSR
 254:	2f134900 	svccs	0x00134900
 258:	1000000b 	andne	r0, r0, fp
 25c:	0e03012e 	adfeqsp	f0, f3, #0.5
 260:	0b3b0b3a 	bleq	ec2f50 <GUEST_OFFSET-0x7f13d0b0>
 264:	13490c27 	movtne	r0, #39975	; 0x9c27
 268:	01120111 	tsteq	r2, r1, lsl r1
 26c:	42970640 	addsmi	r0, r7, #64, 12	; 0x4000000
 270:	0013010c 	andseq	r0, r3, ip, lsl #2
 274:	010b1100 	mrseq	r1, (UNDEF: 27)
 278:	01120111 	tsteq	r2, r1, lsl r1
 27c:	34120000 	ldrcc	r0, [r2], #-0
 280:	3a0e0300 	bcc	380e88 <GUEST_OFFSET-0x7fc7f178>
 284:	490b3b0b 	stmdbmi	fp, {r0, r1, r3, r8, r9, fp, ip, sp}
 288:	000a0213 	andeq	r0, sl, r3, lsl r2
 28c:	012e1300 	teqeq	lr, r0, lsl #6
 290:	0b3a0e03 	bleq	e83aa4 <GUEST_OFFSET-0x7f17c55c>
 294:	0c270b3b 	stceq	11, cr0, [r7], #-236	; 0xffffff14
 298:	01120111 	tsteq	r2, r1, lsl r1
 29c:	42960640 	addsmi	r0, r6, #64, 12	; 0x4000000
 2a0:	0013010c 	andseq	r0, r3, ip, lsl #2
 2a4:	010b1400 	tsteq	fp, r0, lsl #8
 2a8:	01120111 	tsteq	r2, r1, lsl r1
 2ac:	00001301 	andeq	r1, r0, r1, lsl #6
 2b0:	03003415 	movweq	r3, #1045	; 0x415
 2b4:	3b0b3a0e 	blcc	2ceaf4 <GUEST_OFFSET-0x7fd3150c>
 2b8:	0013490b 	andseq	r4, r3, fp, lsl #18
 2bc:	012e1600 	teqeq	lr, r0, lsl #12
 2c0:	0b3a0e03 	bleq	e83ad4 <GUEST_OFFSET-0x7f17c52c>
 2c4:	0c270b3b 	stceq	11, cr0, [r7], #-236	; 0xffffff14
 2c8:	01111349 	tsteq	r1, r9, asr #6
 2cc:	06400112 			; <UNDEFINED> instruction: 0x06400112
 2d0:	010c4296 			; <UNDEFINED> instruction: 0x010c4296
 2d4:	17000013 	smladne	r0, r3, r0, r0
 2d8:	0e030005 	cdpeq	0, 0, cr0, cr3, cr5, {0}
 2dc:	0b3b0b3a 	bleq	ec2fcc <GUEST_OFFSET-0x7f13d034>
 2e0:	0a021349 	beq	8500c <GUEST_OFFSET-0x7ff7aff4>
 2e4:	2e180000 	cdpcs	0, 1, cr0, cr8, cr0, {0}
 2e8:	030c3f01 	movweq	r3, #52993	; 0xcf01
 2ec:	3b0b3a0e 	blcc	2ceb2c <GUEST_OFFSET-0x7fd314d4>
 2f0:	490c270b 	stmdbmi	ip, {r0, r1, r3, r8, r9, sl, sp}
 2f4:	12011113 	andne	r1, r1, #-1073741820	; 0xc0000004
 2f8:	97064001 	strls	r4, [r6, -r1]
 2fc:	13010c42 	movwne	r0, #7234	; 0x1c42
 300:	05190000 	ldreq	r0, [r9, #-0]
 304:	3a080300 	bcc	200f0c <GUEST_OFFSET-0x7fdff0f4>
 308:	490b3b0b 	stmdbmi	fp, {r0, r1, r3, r8, r9, fp, ip, sp}
 30c:	000a0213 	andeq	r0, sl, r3, lsl r2
 310:	012e1a00 	teqeq	lr, r0, lsl #20
 314:	0e030c3f 	mcreq	12, 0, r0, cr3, cr15, {1}
 318:	0b3b0b3a 	bleq	ec3008 <GUEST_OFFSET-0x7f13cff8>
 31c:	13490c27 	movtne	r0, #39975	; 0x9c27
 320:	01120111 	tsteq	r2, r1, lsl r1
 324:	42960640 	addsmi	r0, r6, #64, 12	; 0x4000000
 328:	0013010c 	andseq	r0, r3, ip, lsl #2
 32c:	00341b00 	eorseq	r1, r4, r0, lsl #22
 330:	0b3a0803 	bleq	e82344 <GUEST_OFFSET-0x7f17dcbc>
 334:	13490b3b 	movtne	r0, #39739	; 0x9b3b
 338:	00000a02 	andeq	r0, r0, r2, lsl #20
 33c:	3f012e1c 	svccc	0x00012e1c
 340:	3a0e030c 	bcc	380f78 <GUEST_OFFSET-0x7fc7f088>
 344:	270b3b0b 	strcs	r3, [fp, -fp, lsl #22]
 348:	1201110c 	andne	r1, r1, #12, 2
 34c:	96064001 	strls	r4, [r6], -r1
 350:	13010c42 	movwne	r0, #7234	; 0x1c42
 354:	131d0000 	tstne	sp, #0
 358:	3c0e0300 	stccc	3, cr0, [lr], {-0}
 35c:	0000000c 	andeq	r0, r0, ip
 360:	25011101 	strcs	r1, [r1, #-257]	; 0x101
 364:	030b130e 	movweq	r1, #45838	; 0xb30e
 368:	110e1b0e 	tstne	lr, lr, lsl #22
 36c:	10011201 	andne	r1, r1, r1, lsl #4
 370:	02000006 	andeq	r0, r0, #6
 374:	0b0b0024 	bleq	2c040c <GUEST_OFFSET-0x7fd3fbf4>
 378:	08030b3e 	stmdaeq	r3, {r1, r2, r3, r4, r5, r8, r9, fp}
 37c:	16030000 	strne	r0, [r3], -r0
 380:	3a0e0300 	bcc	380f88 <GUEST_OFFSET-0x7fc7f078>
 384:	490b3b0b 	stmdbmi	fp, {r0, r1, r3, r8, r9, fp, ip, sp}
 388:	04000013 	streq	r0, [r0], #-19
 38c:	0b0b0024 	bleq	2c0424 <GUEST_OFFSET-0x7fd3fbdc>
 390:	0e030b3e 	vmoveq.16	d3[0], r0
 394:	2e050000 	cdpcs	0, 0, cr0, cr5, cr0, {0}
 398:	030c3f01 	movweq	r3, #52993	; 0xcf01
 39c:	3b0b3a0e 	blcc	2cebdc <GUEST_OFFSET-0x7fd31424>
 3a0:	1201110b 	andne	r1, r1, #-1073741822	; 0xc0000002
 3a4:	96064001 	strls	r4, [r6], -r1
 3a8:	13010c42 	movwne	r0, #7234	; 0x1c42
 3ac:	34060000 	strcc	r0, [r6], #-0
 3b0:	3a0e0300 	bcc	380fb8 <GUEST_OFFSET-0x7fc7f048>
 3b4:	490b3b0b 	stmdbmi	fp, {r0, r1, r3, r8, r9, fp, ip, sp}
 3b8:	000a0213 	andeq	r0, sl, r3, lsl r2
 3bc:	00340700 	eorseq	r0, r4, r0, lsl #14
 3c0:	0b3a0803 	bleq	e823d4 <GUEST_OFFSET-0x7f17dc2c>
 3c4:	13490b3b 	movtne	r0, #39739	; 0x9b3b
 3c8:	00000a02 	andeq	r0, r0, r2, lsl #20
 3cc:	0b000f08 	bleq	3ff4 <GUEST_OFFSET-0x7fffc00c>
 3d0:	0013490b 	andseq	r4, r3, fp, lsl #18
 3d4:	00350900 	eorseq	r0, r5, r0, lsl #18
 3d8:	00001349 	andeq	r1, r0, r9, asr #6
 3dc:	01110100 	tsteq	r1, r0, lsl #2
 3e0:	0b130e25 	bleq	4c3c7c <GUEST_OFFSET-0x7fb3c384>
 3e4:	0e1b0e03 	cdpeq	14, 1, cr0, cr11, cr3, {0}
 3e8:	01120111 	tsteq	r2, r1, lsl r1
 3ec:	00000610 	andeq	r0, r0, r0, lsl r6
 3f0:	0b002402 	bleq	9400 <GUEST_OFFSET-0x7fff6c00>
 3f4:	030b3e0b 	movweq	r3, #48651	; 0xbe0b
 3f8:	03000008 	movweq	r0, #8
 3fc:	0e030016 	mcreq	0, 0, r0, cr3, cr6, {0}
 400:	0b3b0b3a 	bleq	ec30f0 <GUEST_OFFSET-0x7f13cf10>
 404:	00001349 	andeq	r1, r0, r9, asr #6
 408:	0b002404 	bleq	9420 <GUEST_OFFSET-0x7fff6be0>
 40c:	030b3e0b 	movweq	r3, #48651	; 0xbe0b
 410:	0500000e 	streq	r0, [r0, #-14]
 414:	0c3f012e 	ldfeqs	f0, [pc], #-184	; 364 <GUEST_OFFSET-0x7ffffc9c>
 418:	0b3a0e03 	bleq	e83c2c <GUEST_OFFSET-0x7f17c3d4>
 41c:	0c270b3b 	stceq	11, cr0, [r7], #-236	; 0xffffff14
 420:	01120111 	tsteq	r2, r1, lsl r1
 424:	42970640 	addsmi	r0, r7, #64, 12	; 0x4000000
 428:	0013010c 	andseq	r0, r3, ip, lsl #2
 42c:	00050600 	andeq	r0, r5, r0, lsl #12
 430:	0b3a0e03 	bleq	e83c44 <GUEST_OFFSET-0x7f17c3bc>
 434:	13490b3b 	movtne	r0, #39739	; 0x9b3b
 438:	00000a02 	andeq	r0, r0, r2, lsl #20
 43c:	03003407 	movweq	r3, #1031	; 0x407
 440:	3b0b3a0e 	blcc	2cec80 <GUEST_OFFSET-0x7fd31380>
 444:	3f13490b 	svccc	0x0013490b
 448:	000a020c 	andeq	r0, sl, ip, lsl #4
 44c:	000f0800 	andeq	r0, pc, r0, lsl #16
 450:	13490b0b 	movtne	r0, #39691	; 0x9b0b
 454:	35090000 	strcc	r0, [r9, #-0]
 458:	00134900 	andseq	r4, r3, r0, lsl #18
 45c:	11010000 	mrsne	r0, (UNDEF: 1)
 460:	130e2501 	movwne	r2, #58625	; 0xe501
 464:	1b0e030b 	blne	381098 <GUEST_OFFSET-0x7fc7ef68>
 468:	1201110e 	andne	r1, r1, #-2147483645	; 0x80000003
 46c:	00061001 	andeq	r1, r6, r1
 470:	00160200 	andseq	r0, r6, r0, lsl #4
 474:	0b3a0e03 	bleq	e83c88 <GUEST_OFFSET-0x7f17c378>
 478:	13490b3b 	movtne	r0, #39739	; 0x9b3b
 47c:	24030000 	strcs	r0, [r3], #-0
 480:	3e0b0b00 	vmlacc.f64	d0, d11, d0
 484:	000e030b 	andeq	r0, lr, fp, lsl #6
 488:	00240400 	eoreq	r0, r4, r0, lsl #8
 48c:	0b3e0b0b 	bleq	f830c0 <GUEST_OFFSET-0x7f07cf40>
 490:	00000803 	andeq	r0, r0, r3, lsl #16
 494:	0b000f05 	bleq	40b0 <GUEST_OFFSET-0x7fffbf50>
 498:	0013490b 	andseq	r4, r3, fp, lsl #18
 49c:	00260600 	eoreq	r0, r6, r0, lsl #12
 4a0:	00001349 	andeq	r1, r0, r9, asr #6
 4a4:	03012e07 	movweq	r2, #7687	; 0x1e07
 4a8:	3b0b3a0e 	blcc	2cece8 <GUEST_OFFSET-0x7fd31318>
 4ac:	490c270b 	stmdbmi	ip, {r0, r1, r3, r8, r9, sl, sp}
 4b0:	12011113 	andne	r1, r1, #-1073741820	; 0xc0000004
 4b4:	97064001 	strls	r4, [r6, -r1]
 4b8:	13010c42 	movwne	r0, #7234	; 0x1c42
 4bc:	05080000 	streq	r0, [r8, #-0]
 4c0:	3a0e0300 	bcc	3810c8 <GUEST_OFFSET-0x7fc7ef38>
 4c4:	490b3b0b 	stmdbmi	fp, {r0, r1, r3, r8, r9, fp, ip, sp}
 4c8:	000a0213 	andeq	r0, sl, r3, lsl r2
 4cc:	00050900 	andeq	r0, r5, r0, lsl #18
 4d0:	0b3a0803 	bleq	e824e4 <GUEST_OFFSET-0x7f17db1c>
 4d4:	13490b3b 	movtne	r0, #39739	; 0x9b3b
 4d8:	00000a02 	andeq	r0, r0, r2, lsl #20
 4dc:	0300340a 	movweq	r3, #1034	; 0x40a
 4e0:	3b0b3a08 	blcc	2ced08 <GUEST_OFFSET-0x7fd312f8>
 4e4:	0213490b 	andseq	r4, r3, #180224	; 0x2c000
 4e8:	0b00000a 	bleq	518 <GUEST_OFFSET-0x7ffffae8>
 4ec:	0b0b000f 	bleq	2c0530 <GUEST_OFFSET-0x7fd3fad0>
 4f0:	260c0000 	strcs	r0, [ip], -r0
 4f4:	0d000000 	stceq	0, cr0, [r0, #-0]
 4f8:	0c3f012e 	ldfeqs	f0, [pc], #-184	; 448 <GUEST_OFFSET-0x7ffffbb8>
 4fc:	0b3a0e03 	bleq	e83d10 <GUEST_OFFSET-0x7f17c2f0>
 500:	0c270b3b 	stceq	11, cr0, [r7], #-236	; 0xffffff14
 504:	01111349 	tsteq	r1, r9, asr #6
 508:	06400112 			; <UNDEFINED> instruction: 0x06400112
 50c:	010c4296 			; <UNDEFINED> instruction: 0x010c4296
 510:	0e000013 	mcreq	0, 0, r0, cr0, cr3, {0}
 514:	0c3f012e 	ldfeqs	f0, [pc], #-184	; 464 <GUEST_OFFSET-0x7ffffb9c>
 518:	0b3a0e03 	bleq	e83d2c <GUEST_OFFSET-0x7f17c2d4>
 51c:	0c270b3b 	stceq	11, cr0, [r7], #-236	; 0xffffff14
 520:	01111349 	tsteq	r1, r9, asr #6
 524:	06400112 			; <UNDEFINED> instruction: 0x06400112
 528:	010c4297 			; <UNDEFINED> instruction: 0x010c4297
 52c:	0f000013 	svceq	0x00000013
 530:	0c3f012e 	ldfeqs	f0, [pc], #-184	; 480 <GUEST_OFFSET-0x7ffffb80>
 534:	0b3a0e03 	bleq	e83d48 <GUEST_OFFSET-0x7f17c2b8>
 538:	0c27053b 	cfstr32eq	mvfx0, [r7], #-236	; 0xffffff14
 53c:	01111349 	tsteq	r1, r9, asr #6
 540:	06400112 			; <UNDEFINED> instruction: 0x06400112
 544:	010c4297 			; <UNDEFINED> instruction: 0x010c4297
 548:	10000013 	andne	r0, r0, r3, lsl r0
 54c:	0c3f012e 	ldfeqs	f0, [pc], #-184	; 49c <GUEST_OFFSET-0x7ffffb64>
 550:	0b3a0e03 	bleq	e83d64 <GUEST_OFFSET-0x7f17c29c>
 554:	0c270b3b 	stceq	11, cr0, [r7], #-236	; 0xffffff14
 558:	01120111 	tsteq	r2, r1, lsl r1
 55c:	42970640 	addsmi	r0, r7, #64, 12	; 0x4000000
 560:	0013010c 	andseq	r0, r3, ip, lsl #2
 564:	00341100 	eorseq	r1, r4, r0, lsl #2
 568:	0b3a0e03 	bleq	e83d7c <GUEST_OFFSET-0x7f17c284>
 56c:	13490b3b 	movtne	r0, #39739	; 0x9b3b
 570:	00000a02 	andeq	r0, r0, r2, lsl #20
 574:	49010112 	stmdbmi	r1, {r1, r4, r8}
 578:	00130113 	andseq	r0, r3, r3, lsl r1
 57c:	00211300 	eoreq	r1, r1, r0, lsl #6
 580:	0b2f1349 	bleq	bc52ac <GUEST_OFFSET-0x7f43ad54>
 584:	2e140000 	cdpcs	0, 1, cr0, cr4, cr0, {0}
 588:	030c3f01 	movweq	r3, #52993	; 0xcf01
 58c:	3b0b3a0e 	blcc	2cedcc <GUEST_OFFSET-0x7fd31234>
 590:	490c270b 	stmdbmi	ip, {r0, r1, r3, r8, r9, sl, sp}
 594:	12011113 	andne	r1, r1, #-1073741820	; 0xc0000004
 598:	97064001 	strls	r4, [r6, -r1]
 59c:	00000c42 	andeq	r0, r0, r2, asr #24
 5a0:	00110100 	andseq	r0, r1, r0, lsl #2
 5a4:	01110610 	tsteq	r1, r0, lsl r6
 5a8:	08030112 	stmdaeq	r3, {r1, r4, r8}
 5ac:	0825081b 	stmdaeq	r5!, {r0, r1, r3, r4, fp}
 5b0:	00000513 	andeq	r0, r0, r3, lsl r5
 5b4:	01110100 	tsteq	r1, r0, lsl #2
 5b8:	0b130e25 	bleq	4c3e54 <GUEST_OFFSET-0x7fb3c1ac>
 5bc:	0e1b0e03 	cdpeq	14, 1, cr0, cr11, cr3, {0}
 5c0:	01120111 	tsteq	r2, r1, lsl r1
 5c4:	00000610 	andeq	r0, r0, r0, lsl r6
 5c8:	3f002e02 	svccc	0x00002e02
 5cc:	3a0e030c 	bcc	381204 <GUEST_OFFSET-0x7fc7edfc>
 5d0:	270b3b0b 	strcs	r3, [fp, -fp, lsl #22]
 5d4:	1201110c 	andne	r1, r1, #12, 2
 5d8:	97064001 	strls	r4, [r6, -r1]
 5dc:	00000c42 	andeq	r0, r0, r2, asr #24
 5e0:	3f012e03 	svccc	0x00012e03
 5e4:	3a0e030c 	bcc	38121c <GUEST_OFFSET-0x7fc7ede4>
 5e8:	270b3b0b 	strcs	r3, [fp, -fp, lsl #22]
 5ec:	1201110c 	andne	r1, r1, #12, 2
 5f0:	97064001 	strls	r4, [r6, -r1]
 5f4:	13010c42 	movwne	r0, #7234	; 0x1c42
 5f8:	05040000 	streq	r0, [r4, #-0]
 5fc:	3a080300 	bcc	201204 <GUEST_OFFSET-0x7fdfedfc>
 600:	490b3b0b 	stmdbmi	fp, {r0, r1, r3, r8, r9, fp, ip, sp}
 604:	000a0213 	andeq	r0, sl, r3, lsl r2
 608:	00340500 	eorseq	r0, r4, r0, lsl #10
 60c:	0b3a0e03 	bleq	e83e20 <GUEST_OFFSET-0x7f17c1e0>
 610:	13490b3b 	movtne	r0, #39739	; 0x9b3b
 614:	00000a02 	andeq	r0, r0, r2, lsl #20
 618:	0b000f06 	bleq	4238 <GUEST_OFFSET-0x7fffbdc8>
 61c:	0013490b 	andseq	r4, r3, fp, lsl #18
 620:	00240700 	eoreq	r0, r4, r0, lsl #14
 624:	0b3e0b0b 	bleq	f83258 <GUEST_OFFSET-0x7f07cda8>
 628:	00000e03 	andeq	r0, r0, r3, lsl #28
 62c:	49003508 	stmdbmi	r0, {r3, r8, sl, ip, sp}
 630:	09000013 	stmdbeq	r0, {r0, r1, r4}
 634:	0c3f012e 	ldfeqs	f0, [pc], #-184	; 584 <GUEST_OFFSET-0x7ffffa7c>
 638:	0b3a0e03 	bleq	e83e4c <GUEST_OFFSET-0x7f17c1b4>
 63c:	0c270b3b 	stceq	11, cr0, [r7], #-236	; 0xffffff14
 640:	01120111 	tsteq	r2, r1, lsl r1
 644:	42960640 	addsmi	r0, r6, #64, 12	; 0x4000000
 648:	0013010c 	andseq	r0, r3, ip, lsl #2
 64c:	00340a00 	eorseq	r0, r4, r0, lsl #20
 650:	0b3a0803 	bleq	e82664 <GUEST_OFFSET-0x7f17d99c>
 654:	13490b3b 	movtne	r0, #39739	; 0x9b3b
 658:	00000a02 	andeq	r0, r0, r2, lsl #20
 65c:	0b00240b 	bleq	9690 <GUEST_OFFSET-0x7fff6970>
 660:	030b3e0b 	movweq	r3, #48651	; 0xbe0b
 664:	00000008 	andeq	r0, r0, r8
 668:	25011101 	strcs	r1, [r1, #-257]	; 0x101
 66c:	030b130e 	movweq	r1, #45838	; 0xb30e
 670:	110e1b0e 	tstne	lr, lr, lsl #22
 674:	10011201 	andne	r1, r1, r1, lsl #4
 678:	02000006 	andeq	r0, r0, #6
 67c:	0b0b0024 	bleq	2c0714 <GUEST_OFFSET-0x7fd3f8ec>
 680:	08030b3e 	stmdaeq	r3, {r1, r2, r3, r4, r5, r8, r9, fp}
 684:	16030000 	strne	r0, [r3], -r0
 688:	3a0e0300 	bcc	381290 <GUEST_OFFSET-0x7fc7ed70>
 68c:	490b3b0b 	stmdbmi	fp, {r0, r1, r3, r8, r9, fp, ip, sp}
 690:	04000013 	streq	r0, [r0], #-19
 694:	0b0b0024 	bleq	2c072c <GUEST_OFFSET-0x7fd3f8d4>
 698:	0e030b3e 	vmoveq.16	d3[0], r0
 69c:	04050000 	streq	r0, [r5], #-0
 6a0:	0b0e0301 	bleq	3812ac <GUEST_OFFSET-0x7fc7ed54>
 6a4:	3b0b3a0b 	blcc	2ceed8 <GUEST_OFFSET-0x7fd31128>
 6a8:	0013010b 	andseq	r0, r3, fp, lsl #2
 6ac:	00280600 	eoreq	r0, r8, r0, lsl #12
 6b0:	0d1c0e03 	ldceq	14, cr0, [ip, #-12]
 6b4:	0f070000 	svceq	0x00070000
 6b8:	000b0b00 	andeq	r0, fp, r0, lsl #22
 6bc:	012e0800 	teqeq	lr, r0, lsl #16
 6c0:	0e030c3f 	mcreq	12, 0, r0, cr3, cr15, {1}
 6c4:	0b3b0b3a 	bleq	ec33b4 <GUEST_OFFSET-0x7f13cc4c>
 6c8:	01110c27 	tsteq	r1, r7, lsr #24
 6cc:	06400112 			; <UNDEFINED> instruction: 0x06400112
 6d0:	010c4297 			; <UNDEFINED> instruction: 0x010c4297
 6d4:	09000013 	stmdbeq	r0, {r0, r1, r4}
 6d8:	0e030005 	cdpeq	0, 0, cr0, cr3, cr5, {0}
 6dc:	0b3b0b3a 	bleq	ec33cc <GUEST_OFFSET-0x7f13cc34>
 6e0:	0a021349 	beq	8540c <GUEST_OFFSET-0x7ff7abf4>
 6e4:	2e0a0000 	cdpcs	0, 0, cr0, cr10, cr0, {0}
 6e8:	030c3f01 	movweq	r3, #52993	; 0xcf01
 6ec:	3b0b3a0e 	blcc	2cef2c <GUEST_OFFSET-0x7fd310d4>
 6f0:	110c270b 	tstne	ip, fp, lsl #14
 6f4:	40011201 	andmi	r1, r1, r1, lsl #4
 6f8:	0c429606 	mcrreq	6, 0, r9, r2, cr6
 6fc:	00001301 	andeq	r1, r0, r1, lsl #6
 700:	0300340b 	movweq	r3, #1035	; 0x40b
 704:	3b0b3a08 	blcc	2cef2c <GUEST_OFFSET-0x7fd310d4>
 708:	0213490b 	andseq	r4, r3, #180224	; 0x2c000
 70c:	0c00000a 	stceq	0, cr0, [r0], {10}
 710:	13490035 	movtne	r0, #36917	; 0x9035
 714:	2e0d0000 	cdpcs	0, 0, cr0, cr13, cr0, {0}
 718:	030c3f01 	movweq	r3, #52993	; 0xcf01
 71c:	3b0b3a0e 	blcc	2cef5c <GUEST_OFFSET-0x7fd310a4>
 720:	490c270b 	stmdbmi	ip, {r0, r1, r3, r8, r9, sl, sp}
 724:	12011113 	andne	r1, r1, #-1073741820	; 0xc0000004
 728:	97064001 	strls	r4, [r6, -r1]
 72c:	13010c42 	movwne	r0, #7234	; 0x1c42
 730:	050e0000 	streq	r0, [lr, #-0]
 734:	3a080300 	bcc	20133c <GUEST_OFFSET-0x7fdfecc4>
 738:	490b3b0b 	stmdbmi	fp, {r0, r1, r3, r8, r9, fp, ip, sp}
 73c:	000a0213 	andeq	r0, sl, r3, lsl r2
 740:	00340f00 	eorseq	r0, r4, r0, lsl #30
 744:	0b3a0803 	bleq	e82758 <GUEST_OFFSET-0x7f17d8a8>
 748:	13490b3b 	movtne	r0, #39739	; 0x9b3b
 74c:	34100000 	ldrcc	r0, [r0], #-0
 750:	3a0e0300 	bcc	381358 <GUEST_OFFSET-0x7fc7eca8>
 754:	490b3b0b 	stmdbmi	fp, {r0, r1, r3, r8, r9, fp, ip, sp}
 758:	11000013 	tstne	r0, r3, lsl r0
 75c:	0c3f002e 	ldceq	0, cr0, [pc], #-184	; 6ac <GUEST_OFFSET-0x7ffff954>
 760:	0b3a0e03 	bleq	e83f74 <GUEST_OFFSET-0x7f17c08c>
 764:	0c270b3b 	stceq	11, cr0, [r7], #-236	; 0xffffff14
 768:	01111349 	tsteq	r1, r9, asr #6
 76c:	06400112 			; <UNDEFINED> instruction: 0x06400112
 770:	000c4296 	muleq	ip, r6, r2
	...

Disassembly of section .debug_aranges:

00000000 <.debug_aranges>:
   0:	0000001c 	andeq	r0, r0, ip, lsl r0
   4:	00000002 	andeq	r0, r0, r2
   8:	00040000 	andeq	r0, r4, r0
   c:	00000000 	andeq	r0, r0, r0
  10:	80000000 	andhi	r0, r0, r0
  14:	00000004 	andeq	r0, r0, r4
	...
  20:	0000001c 	andeq	r0, r0, ip, lsl r0
  24:	007b0002 	rsbseq	r0, fp, r2
  28:	00040000 	andeq	r0, r4, r0
  2c:	00000000 	andeq	r0, r0, r0
  30:	80000004 	andhi	r0, r0, r4
  34:	00000024 	andeq	r0, r0, r4, lsr #32
	...
  40:	0000001c 	andeq	r0, r0, ip, lsl r0
  44:	00e90002 	rsceq	r0, r9, r2
  48:	00040000 	andeq	r0, r4, r0
  4c:	00000000 	andeq	r0, r0, r0
  50:	80000028 	andhi	r0, r0, r8, lsr #32
  54:	00000194 	muleq	r0, r4, r1
	...
  60:	0000001c 	andeq	r0, r0, ip, lsl r0
  64:	01900002 	orrseq	r0, r0, r2
  68:	00040000 	andeq	r0, r4, r0
  6c:	00000000 	andeq	r0, r0, r0
  70:	800001bc 			; <UNDEFINED> instruction: 0x800001bc
  74:	0000005c 	andeq	r0, r0, ip, asr r0
	...
  80:	0000001c 	andeq	r0, r0, ip, lsl r0
  84:	02a10002 	adceq	r0, r1, #2
  88:	00040000 	andeq	r0, r4, r0
  8c:	00000000 	andeq	r0, r0, r0
  90:	80000218 	andhi	r0, r0, r8, lsl r2
  94:	00000888 	andeq	r0, r0, r8, lsl #17
	...
  a0:	0000001c 	andeq	r0, r0, ip, lsl r0
  a4:	069c0002 	ldreq	r0, [ip], r2
  a8:	00040000 	andeq	r0, r4, r0
  ac:	00000000 	andeq	r0, r0, r0
  b0:	80000aa0 	andhi	r0, r0, r0, lsr #21
  b4:	00000174 	andeq	r0, r0, r4, ror r1
	...
  c0:	0000001c 	andeq	r0, r0, ip, lsl r0
  c4:	077f0002 	ldrbeq	r0, [pc, -r2]!
  c8:	00040000 	andeq	r0, r4, r0
  cc:	00000000 	andeq	r0, r0, r0
  d0:	80000c14 	andhi	r0, r0, r4, lsl ip
  d4:	00000030 	andeq	r0, r0, r0, lsr r0
	...
  e0:	0000001c 	andeq	r0, r0, ip, lsl r0
  e4:	08190002 	ldmdaeq	r9, {r1}
  e8:	00040000 	andeq	r0, r4, r0
  ec:	00000000 	andeq	r0, r0, r0
  f0:	80000c44 	andhi	r0, r0, r4, asr #24
  f4:	00000afc 	strdeq	r0, [r0], -ip
	...
 100:	0000001c 	andeq	r0, r0, ip, lsl r0
 104:	0d860002 	stceq	0, cr0, [r6, #8]
 108:	00040000 	andeq	r0, r4, r0
 10c:	00000000 	andeq	r0, r0, r0
 110:	80001740 	andhi	r1, r0, r0, asr #14
 114:	000000e0 	andeq	r0, r0, r0, ror #1
	...
 120:	0000001c 	andeq	r0, r0, ip, lsl r0
 124:	0e200002 	cdpeq	0, 2, cr0, cr0, cr2, {0}
 128:	00040000 	andeq	r0, r4, r0
 12c:	00000000 	andeq	r0, r0, r0
 130:	80001820 	andhi	r1, r0, r0, lsr #16
 134:	00000148 	andeq	r0, r0, r8, asr #2
	...
 140:	0000001c 	andeq	r0, r0, ip, lsl r0
 144:	0f4c0002 	svceq	0x004c0002
 148:	00040000 	andeq	r0, r4, r0
 14c:	00000000 	andeq	r0, r0, r0
 150:	80001968 	andhi	r1, r0, r8, ror #18
 154:	00000284 	andeq	r0, r0, r4, lsl #5
	...

Disassembly of section .debug_loc:

00000000 <.debug_loc>:
   0:	00000000 	andeq	r0, r0, r0
   4:	00000004 	andeq	r0, r0, r4
   8:	007d0002 	rsbseq	r0, sp, r2
   c:	00000004 	andeq	r0, r0, r4
  10:	00000008 	andeq	r0, r0, r8
  14:	087d0002 	ldmdaeq	sp!, {r1}^
  18:	00000008 	andeq	r0, r0, r8
  1c:	00000024 	andeq	r0, r0, r4, lsr #32
  20:	047b0002 	ldrbteq	r0, [fp], #-2
	...
  30:	00000004 	andeq	r0, r0, r4
  34:	007d0002 	rsbseq	r0, sp, r2
  38:	00000004 	andeq	r0, r0, r4
  3c:	00000008 	andeq	r0, r0, r8
  40:	047d0002 	ldrbteq	r0, [sp], #-2
  44:	00000008 	andeq	r0, r0, r8
  48:	00000048 	andeq	r0, r0, r8, asr #32
  4c:	047b0002 	ldrbteq	r0, [fp], #-2
	...
  58:	00000048 	andeq	r0, r0, r8, asr #32
  5c:	0000004c 	andeq	r0, r0, ip, asr #32
  60:	007d0002 	rsbseq	r0, sp, r2
  64:	0000004c 	andeq	r0, r0, ip, asr #32
  68:	00000050 	andeq	r0, r0, r0, asr r0
  6c:	087d0002 	ldmdaeq	sp!, {r1}^
  70:	00000050 	andeq	r0, r0, r0, asr r0
  74:	00000194 	muleq	r0, r4, r1
  78:	047b0002 	ldrbteq	r0, [fp], #-2
	...
  88:	00000004 	andeq	r0, r0, r4
  8c:	007d0002 	rsbseq	r0, sp, r2
  90:	00000004 	andeq	r0, r0, r4
  94:	00000008 	andeq	r0, r0, r8
  98:	047d0002 	ldrbteq	r0, [sp], #-2
  9c:	00000008 	andeq	r0, r0, r8
  a0:	0000001c 	andeq	r0, r0, ip, lsl r0
  a4:	047b0002 	ldrbteq	r0, [fp], #-2
	...
  b0:	0000001c 	andeq	r0, r0, ip, lsl r0
  b4:	00000020 	andeq	r0, r0, r0, lsr #32
  b8:	007d0002 	rsbseq	r0, sp, r2
  bc:	00000020 	andeq	r0, r0, r0, lsr #32
  c0:	00000024 	andeq	r0, r0, r4, lsr #32
  c4:	047d0002 	ldrbteq	r0, [sp], #-2
  c8:	00000024 	andeq	r0, r0, r4, lsr #32
  cc:	00000038 	andeq	r0, r0, r8, lsr r0
  d0:	047b0002 	ldrbteq	r0, [fp], #-2
	...
  dc:	00000038 	andeq	r0, r0, r8, lsr r0
  e0:	0000003c 	andeq	r0, r0, ip, lsr r0
  e4:	007d0002 	rsbseq	r0, sp, r2
  e8:	0000003c 	andeq	r0, r0, ip, lsr r0
  ec:	00000040 	andeq	r0, r0, r0, asr #32
  f0:	087d0002 	ldmdaeq	sp!, {r1}^
  f4:	00000040 	andeq	r0, r0, r0, asr #32
  f8:	0000005c 	andeq	r0, r0, ip, asr r0
  fc:	047b0002 	ldrbteq	r0, [fp], #-2
	...
 10c:	00000004 	andeq	r0, r0, r4
 110:	007d0002 	rsbseq	r0, sp, r2
 114:	00000004 	andeq	r0, r0, r4
 118:	00000008 	andeq	r0, r0, r8
 11c:	087d0002 	ldmdaeq	sp!, {r1}^
 120:	00000008 	andeq	r0, r0, r8
 124:	0000002c 	andeq	r0, r0, ip, lsr #32
 128:	047b0002 	ldrbteq	r0, [fp], #-2
	...
 134:	0000002c 	andeq	r0, r0, ip, lsr #32
 138:	00000030 	andeq	r0, r0, r0, lsr r0
 13c:	007d0002 	rsbseq	r0, sp, r2
 140:	00000030 	andeq	r0, r0, r0, lsr r0
 144:	00000034 	andeq	r0, r0, r4, lsr r0
 148:	087d0002 	ldmdaeq	sp!, {r1}^
 14c:	00000034 	andeq	r0, r0, r4, lsr r0
 150:	00000168 	andeq	r0, r0, r8, ror #2
 154:	047b0002 	ldrbteq	r0, [fp], #-2
	...
 160:	00000168 	andeq	r0, r0, r8, ror #2
 164:	0000016c 	andeq	r0, r0, ip, ror #2
 168:	007d0002 	rsbseq	r0, sp, r2
 16c:	0000016c 	andeq	r0, r0, ip, ror #2
 170:	00000170 	andeq	r0, r0, r0, ror r1
 174:	0c7d0002 	ldcleq	0, cr0, [sp], #-8
 178:	00000170 	andeq	r0, r0, r0, ror r1
 17c:	000003b4 			; <UNDEFINED> instruction: 0x000003b4
 180:	047b0002 	ldrbteq	r0, [fp], #-2
	...
 18c:	000003b4 			; <UNDEFINED> instruction: 0x000003b4
 190:	000003b8 			; <UNDEFINED> instruction: 0x000003b8
 194:	007d0002 	rsbseq	r0, sp, r2
 198:	000003b8 			; <UNDEFINED> instruction: 0x000003b8
 19c:	000003bc 			; <UNDEFINED> instruction: 0x000003bc
 1a0:	0c7d0002 	ldcleq	0, cr0, [sp], #-8
 1a4:	000003bc 			; <UNDEFINED> instruction: 0x000003bc
 1a8:	000004c0 	andeq	r0, r0, r0, asr #9
 1ac:	047b0002 	ldrbteq	r0, [fp], #-2
	...
 1b8:	000004c0 	andeq	r0, r0, r0, asr #9
 1bc:	000004c4 	andeq	r0, r0, r4, asr #9
 1c0:	007d0002 	rsbseq	r0, sp, r2
 1c4:	000004c4 	andeq	r0, r0, r4, asr #9
 1c8:	000004c8 	andeq	r0, r0, r8, asr #9
 1cc:	047d0002 	ldrbteq	r0, [sp], #-2
 1d0:	000004c8 	andeq	r0, r0, r8, asr #9
 1d4:	00000518 	andeq	r0, r0, r8, lsl r5
 1d8:	047b0002 	ldrbteq	r0, [fp], #-2
	...
 1e4:	00000518 	andeq	r0, r0, r8, lsl r5
 1e8:	0000051c 	andeq	r0, r0, ip, lsl r5
 1ec:	007d0002 	rsbseq	r0, sp, r2
 1f0:	0000051c 	andeq	r0, r0, ip, lsl r5
 1f4:	00000520 	andeq	r0, r0, r0, lsr #10
 1f8:	047d0002 	ldrbteq	r0, [sp], #-2
 1fc:	00000520 	andeq	r0, r0, r0, lsr #10
 200:	00000570 	andeq	r0, r0, r0, ror r5
 204:	047b0002 	ldrbteq	r0, [fp], #-2
	...
 210:	00000570 	andeq	r0, r0, r0, ror r5
 214:	00000574 	andeq	r0, r0, r4, ror r5
 218:	007d0002 	rsbseq	r0, sp, r2
 21c:	00000574 	andeq	r0, r0, r4, ror r5
 220:	00000578 	andeq	r0, r0, r8, ror r5
 224:	047d0002 	ldrbteq	r0, [sp], #-2
 228:	00000578 	andeq	r0, r0, r8, ror r5
 22c:	000005e0 	andeq	r0, r0, r0, ror #11
 230:	047b0002 	ldrbteq	r0, [fp], #-2
	...
 23c:	000005e0 	andeq	r0, r0, r0, ror #11
 240:	000005e4 	andeq	r0, r0, r4, ror #11
 244:	007d0002 	rsbseq	r0, sp, r2
 248:	000005e4 	andeq	r0, r0, r4, ror #11
 24c:	000005e8 	andeq	r0, r0, r8, ror #11
 250:	087d0002 	ldmdaeq	sp!, {r1}^
 254:	000005e8 	andeq	r0, r0, r8, ror #11
 258:	0000072c 	andeq	r0, r0, ip, lsr #14
 25c:	047b0002 	ldrbteq	r0, [fp], #-2
	...
 268:	0000072c 	andeq	r0, r0, ip, lsr #14
 26c:	00000730 	andeq	r0, r0, r0, lsr r7
 270:	007d0002 	rsbseq	r0, sp, r2
 274:	00000730 	andeq	r0, r0, r0, lsr r7
 278:	00000734 	andeq	r0, r0, r4, lsr r7
 27c:	087d0002 	ldmdaeq	sp!, {r1}^
 280:	00000734 	andeq	r0, r0, r4, lsr r7
 284:	00000888 	andeq	r0, r0, r8, lsl #17
 288:	047b0002 	ldrbteq	r0, [fp], #-2
	...
 298:	00000004 	andeq	r0, r0, r4
 29c:	007d0002 	rsbseq	r0, sp, r2
 2a0:	00000004 	andeq	r0, r0, r4
 2a4:	00000008 	andeq	r0, r0, r8
 2a8:	087d0002 	ldmdaeq	sp!, {r1}^
 2ac:	00000008 	andeq	r0, r0, r8
 2b0:	00000174 	andeq	r0, r0, r4, ror r1
 2b4:	047b0002 	ldrbteq	r0, [fp], #-2
	...
 2c4:	00000004 	andeq	r0, r0, r4
 2c8:	007d0002 	rsbseq	r0, sp, r2
 2cc:	00000004 	andeq	r0, r0, r4
 2d0:	00000008 	andeq	r0, r0, r8
 2d4:	047d0002 	ldrbteq	r0, [sp], #-2
 2d8:	00000008 	andeq	r0, r0, r8
 2dc:	00000030 	andeq	r0, r0, r0, lsr r0
 2e0:	047b0002 	ldrbteq	r0, [fp], #-2
	...
 2f0:	00000004 	andeq	r0, r0, r4
 2f4:	007d0002 	rsbseq	r0, sp, r2
 2f8:	00000004 	andeq	r0, r0, r4
 2fc:	00000008 	andeq	r0, r0, r8
 300:	047d0002 	ldrbteq	r0, [sp], #-2
 304:	00000008 	andeq	r0, r0, r8
 308:	00000090 	muleq	r0, r0, r0
 30c:	047b0002 	ldrbteq	r0, [fp], #-2
	...
 318:	00000090 	muleq	r0, r0, r0
 31c:	00000094 	muleq	r0, r4, r0
 320:	007d0002 	rsbseq	r0, sp, r2
 324:	00000094 	muleq	r0, r4, r0
 328:	00000098 	muleq	r0, r8, r0
 32c:	047d0002 	ldrbteq	r0, [sp], #-2
 330:	00000098 	muleq	r0, r8, r0
 334:	00000138 	andeq	r0, r0, r8, lsr r1
 338:	047b0002 	ldrbteq	r0, [fp], #-2
	...
 344:	00000138 	andeq	r0, r0, r8, lsr r1
 348:	0000013c 	andeq	r0, r0, ip, lsr r1
 34c:	007d0002 	rsbseq	r0, sp, r2
 350:	0000013c 	andeq	r0, r0, ip, lsr r1
 354:	00000140 	andeq	r0, r0, r0, asr #2
 358:	087d0002 	ldmdaeq	sp!, {r1}^
 35c:	00000140 	andeq	r0, r0, r0, asr #2
 360:	00000170 	andeq	r0, r0, r0, ror r1
 364:	047b0002 	ldrbteq	r0, [fp], #-2
	...
 370:	00000170 	andeq	r0, r0, r0, ror r1
 374:	00000174 	andeq	r0, r0, r4, ror r1
 378:	007d0002 	rsbseq	r0, sp, r2
 37c:	00000174 	andeq	r0, r0, r4, ror r1
 380:	00000178 	andeq	r0, r0, r8, ror r1
 384:	087d0002 	ldmdaeq	sp!, {r1}^
 388:	00000178 	andeq	r0, r0, r8, ror r1
 38c:	000001d0 	ldrdeq	r0, [r0], -r0	; <UNPREDICTABLE>
 390:	047b0002 	ldrbteq	r0, [fp], #-2
	...
 39c:	000001d0 	ldrdeq	r0, [r0], -r0	; <UNPREDICTABLE>
 3a0:	000001d4 	ldrdeq	r0, [r0], -r4
 3a4:	007d0002 	rsbseq	r0, sp, r2
 3a8:	000001d4 	ldrdeq	r0, [r0], -r4
 3ac:	000001d8 	ldrdeq	r0, [r0], -r8
 3b0:	047d0002 	ldrbteq	r0, [sp], #-2
 3b4:	000001d8 	ldrdeq	r0, [r0], -r8
 3b8:	00000258 	andeq	r0, r0, r8, asr r2
 3bc:	047b0002 	ldrbteq	r0, [fp], #-2
	...
 3c8:	00000258 	andeq	r0, r0, r8, asr r2
 3cc:	0000025c 	andeq	r0, r0, ip, asr r2
 3d0:	007d0002 	rsbseq	r0, sp, r2
 3d4:	0000025c 	andeq	r0, r0, ip, asr r2
 3d8:	00000260 	andeq	r0, r0, r0, ror #4
 3dc:	047d0002 	ldrbteq	r0, [sp], #-2
 3e0:	00000260 	andeq	r0, r0, r0, ror #4
 3e4:	000002ac 	andeq	r0, r0, ip, lsr #5
 3e8:	047b0002 	ldrbteq	r0, [fp], #-2
	...
 3f4:	000002ac 	andeq	r0, r0, ip, lsr #5
 3f8:	000002b0 			; <UNDEFINED> instruction: 0x000002b0
 3fc:	007d0002 	rsbseq	r0, sp, r2
 400:	000002b0 			; <UNDEFINED> instruction: 0x000002b0
 404:	000002b4 			; <UNDEFINED> instruction: 0x000002b4
 408:	047d0002 	ldrbteq	r0, [sp], #-2
 40c:	000002b4 			; <UNDEFINED> instruction: 0x000002b4
 410:	00000328 	andeq	r0, r0, r8, lsr #6
 414:	047b0002 	ldrbteq	r0, [fp], #-2
	...
 420:	00000328 	andeq	r0, r0, r8, lsr #6
 424:	0000032c 	andeq	r0, r0, ip, lsr #6
 428:	007d0002 	rsbseq	r0, sp, r2
 42c:	0000032c 	andeq	r0, r0, ip, lsr #6
 430:	00000330 	andeq	r0, r0, r0, lsr r3
 434:	047d0002 	ldrbteq	r0, [sp], #-2
 438:	00000330 	andeq	r0, r0, r0, lsr r3
 43c:	000003e8 	andeq	r0, r0, r8, ror #7
 440:	047b0002 	ldrbteq	r0, [fp], #-2
	...
 44c:	000003e8 	andeq	r0, r0, r8, ror #7
 450:	000003ec 	andeq	r0, r0, ip, ror #7
 454:	007d0002 	rsbseq	r0, sp, r2
 458:	000003ec 	andeq	r0, r0, ip, ror #7
 45c:	000003f0 	strdeq	r0, [r0], -r0	; <UNPREDICTABLE>
 460:	047d0002 	ldrbteq	r0, [sp], #-2
 464:	000003f0 	strdeq	r0, [r0], -r0	; <UNPREDICTABLE>
 468:	000004cc 	andeq	r0, r0, ip, asr #9
 46c:	047b0002 	ldrbteq	r0, [fp], #-2
	...
 478:	000004cc 	andeq	r0, r0, ip, asr #9
 47c:	000004d0 	ldrdeq	r0, [r0], -r0	; <UNPREDICTABLE>
 480:	007d0002 	rsbseq	r0, sp, r2
 484:	000004d0 	ldrdeq	r0, [r0], -r0	; <UNPREDICTABLE>
 488:	000004d4 	ldrdeq	r0, [r0], -r4
 48c:	047d0002 	ldrbteq	r0, [sp], #-2
 490:	000004d4 	ldrdeq	r0, [r0], -r4
 494:	000005e8 	andeq	r0, r0, r8, ror #11
 498:	047b0002 	ldrbteq	r0, [fp], #-2
	...
 4a4:	000005e8 	andeq	r0, r0, r8, ror #11
 4a8:	000005ec 	andeq	r0, r0, ip, ror #11
 4ac:	007d0002 	rsbseq	r0, sp, r2
 4b0:	000005ec 	andeq	r0, r0, ip, ror #11
 4b4:	000005f0 	strdeq	r0, [r0], -r0	; <UNPREDICTABLE>
 4b8:	047d0002 	ldrbteq	r0, [sp], #-2
 4bc:	000005f0 	strdeq	r0, [r0], -r0	; <UNPREDICTABLE>
 4c0:	00000668 	andeq	r0, r0, r8, ror #12
 4c4:	047b0002 	ldrbteq	r0, [fp], #-2
	...
 4d0:	00000668 	andeq	r0, r0, r8, ror #12
 4d4:	0000066c 	andeq	r0, r0, ip, ror #12
 4d8:	007d0002 	rsbseq	r0, sp, r2
 4dc:	0000066c 	andeq	r0, r0, ip, ror #12
 4e0:	00000670 	andeq	r0, r0, r0, ror r6
 4e4:	047d0002 	ldrbteq	r0, [sp], #-2
 4e8:	00000670 	andeq	r0, r0, r0, ror r6
 4ec:	000006f4 	strdeq	r0, [r0], -r4
 4f0:	047b0002 	ldrbteq	r0, [fp], #-2
	...
 4fc:	000006f4 	strdeq	r0, [r0], -r4
 500:	000006f8 	strdeq	r0, [r0], -r8
 504:	007d0002 	rsbseq	r0, sp, r2
 508:	000006f8 	strdeq	r0, [r0], -r8
 50c:	000006fc 	strdeq	r0, [r0], -ip
 510:	047d0002 	ldrbteq	r0, [sp], #-2
 514:	000006fc 	strdeq	r0, [r0], -ip
 518:	00000888 	andeq	r0, r0, r8, lsl #17
 51c:	047b0002 	ldrbteq	r0, [fp], #-2
	...
 528:	00000888 	andeq	r0, r0, r8, lsl #17
 52c:	0000088c 	andeq	r0, r0, ip, lsl #17
 530:	007d0002 	rsbseq	r0, sp, r2
 534:	0000088c 	andeq	r0, r0, ip, lsl #17
 538:	00000890 	muleq	r0, r0, r8
 53c:	047d0002 	ldrbteq	r0, [sp], #-2
 540:	00000890 	muleq	r0, r0, r8
 544:	00000988 	andeq	r0, r0, r8, lsl #19
 548:	047b0002 	ldrbteq	r0, [fp], #-2
	...
 554:	00000988 	andeq	r0, r0, r8, lsl #19
 558:	0000098c 	andeq	r0, r0, ip, lsl #19
 55c:	007d0002 	rsbseq	r0, sp, r2
 560:	0000098c 	andeq	r0, r0, ip, lsl #19
 564:	00000990 	muleq	r0, r0, r9
 568:	047d0002 	ldrbteq	r0, [sp], #-2
 56c:	00000990 	muleq	r0, r0, r9
 570:	00000a18 	andeq	r0, r0, r8, lsl sl
 574:	047b0002 	ldrbteq	r0, [fp], #-2
	...
 580:	00000a18 	andeq	r0, r0, r8, lsl sl
 584:	00000a1c 	andeq	r0, r0, ip, lsl sl
 588:	007d0002 	rsbseq	r0, sp, r2
 58c:	00000a1c 	andeq	r0, r0, ip, lsl sl
 590:	00000a20 	andeq	r0, r0, r0, lsr #20
 594:	047d0002 	ldrbteq	r0, [sp], #-2
 598:	00000a20 	andeq	r0, r0, r0, lsr #20
 59c:	00000afc 	strdeq	r0, [r0], -ip
 5a0:	047b0002 	ldrbteq	r0, [fp], #-2
	...
 5b0:	00000004 	andeq	r0, r0, r4
 5b4:	007d0002 	rsbseq	r0, sp, r2
 5b8:	00000004 	andeq	r0, r0, r4
 5bc:	00000008 	andeq	r0, r0, r8
 5c0:	047d0002 	ldrbteq	r0, [sp], #-2
 5c4:	00000008 	andeq	r0, r0, r8
 5c8:	00000014 	andeq	r0, r0, r4, lsl r0
 5cc:	047b0002 	ldrbteq	r0, [fp], #-2
	...
 5d8:	00000014 	andeq	r0, r0, r4, lsl r0
 5dc:	00000018 	andeq	r0, r0, r8, lsl r0
 5e0:	007d0002 	rsbseq	r0, sp, r2
 5e4:	00000018 	andeq	r0, r0, r8, lsl r0
 5e8:	0000001c 	andeq	r0, r0, ip, lsl r0
 5ec:	047d0002 	ldrbteq	r0, [sp], #-2
 5f0:	0000001c 	andeq	r0, r0, ip, lsl r0
 5f4:	0000006c 	andeq	r0, r0, ip, rrx
 5f8:	047b0002 	ldrbteq	r0, [fp], #-2
	...
 604:	0000006c 	andeq	r0, r0, ip, rrx
 608:	00000070 	andeq	r0, r0, r0, ror r0
 60c:	007d0002 	rsbseq	r0, sp, r2
 610:	00000070 	andeq	r0, r0, r0, ror r0
 614:	00000074 	andeq	r0, r0, r4, ror r0
 618:	047d0002 	ldrbteq	r0, [sp], #-2
 61c:	00000074 	andeq	r0, r0, r4, ror r0
 620:	000000a4 	andeq	r0, r0, r4, lsr #1
 624:	047b0002 	ldrbteq	r0, [fp], #-2
	...
 630:	000000a4 	andeq	r0, r0, r4, lsr #1
 634:	000000a8 	andeq	r0, r0, r8, lsr #1
 638:	007d0002 	rsbseq	r0, sp, r2
 63c:	000000a8 	andeq	r0, r0, r8, lsr #1
 640:	000000ac 	andeq	r0, r0, ip, lsr #1
 644:	087d0002 	ldmdaeq	sp!, {r1}^
 648:	000000ac 	andeq	r0, r0, ip, lsr #1
 64c:	00000148 	andeq	r0, r0, r8, asr #2
 650:	047b0002 	ldrbteq	r0, [fp], #-2
	...
 660:	00000004 	andeq	r0, r0, r4
 664:	007d0002 	rsbseq	r0, sp, r2
 668:	00000004 	andeq	r0, r0, r4
 66c:	00000008 	andeq	r0, r0, r8
 670:	047d0002 	ldrbteq	r0, [sp], #-2
 674:	00000008 	andeq	r0, r0, r8
 678:	0000002c 	andeq	r0, r0, ip, lsr #32
 67c:	047b0002 	ldrbteq	r0, [fp], #-2
	...
 688:	0000002c 	andeq	r0, r0, ip, lsr #32
 68c:	00000030 	andeq	r0, r0, r0, lsr r0
 690:	007d0002 	rsbseq	r0, sp, r2
 694:	00000030 	andeq	r0, r0, r0, lsr r0
 698:	00000034 	andeq	r0, r0, r4, lsr r0
 69c:	087d0002 	ldmdaeq	sp!, {r1}^
 6a0:	00000034 	andeq	r0, r0, r4, lsr r0
 6a4:	00000088 	andeq	r0, r0, r8, lsl #1
 6a8:	047b0002 	ldrbteq	r0, [fp], #-2
	...
 6b4:	00000088 	andeq	r0, r0, r8, lsl #1
 6b8:	0000008c 	andeq	r0, r0, ip, lsl #1
 6bc:	007d0002 	rsbseq	r0, sp, r2
 6c0:	0000008c 	andeq	r0, r0, ip, lsl #1
 6c4:	00000090 	muleq	r0, r0, r0
 6c8:	047d0002 	ldrbteq	r0, [sp], #-2
 6cc:	00000090 	muleq	r0, r0, r0
 6d0:	000000d0 	ldrdeq	r0, [r0], -r0	; <UNPREDICTABLE>
 6d4:	047b0002 	ldrbteq	r0, [fp], #-2
	...
 6e0:	000000d0 	ldrdeq	r0, [r0], -r0	; <UNPREDICTABLE>
 6e4:	000000d4 	ldrdeq	r0, [r0], -r4
 6e8:	007d0002 	rsbseq	r0, sp, r2
 6ec:	000000d4 	ldrdeq	r0, [r0], -r4
 6f0:	000000d8 	ldrdeq	r0, [r0], -r8
 6f4:	087d0002 	ldmdaeq	sp!, {r1}^
 6f8:	000000d8 	ldrdeq	r0, [r0], -r8
 6fc:	00000100 	andeq	r0, r0, r0, lsl #2
 700:	047b0002 	ldrbteq	r0, [fp], #-2
	...
 70c:	00000100 	andeq	r0, r0, r0, lsl #2
 710:	00000104 	andeq	r0, r0, r4, lsl #2
 714:	007d0002 	rsbseq	r0, sp, r2
 718:	00000104 	andeq	r0, r0, r4, lsl #2
 71c:	00000108 	andeq	r0, r0, r8, lsl #2
 720:	047d0002 	ldrbteq	r0, [sp], #-2
 724:	00000108 	andeq	r0, r0, r8, lsl #2
 728:	0000012c 	andeq	r0, r0, ip, lsr #2
 72c:	047b0002 	ldrbteq	r0, [fp], #-2
	...
 738:	0000012c 	andeq	r0, r0, ip, lsr #2
 73c:	00000130 	andeq	r0, r0, r0, lsr r1
 740:	007d0002 	rsbseq	r0, sp, r2
 744:	00000130 	andeq	r0, r0, r0, lsr r1
 748:	00000134 	andeq	r0, r0, r4, lsr r1
 74c:	047d0002 	ldrbteq	r0, [sp], #-2
 750:	00000134 	andeq	r0, r0, r4, lsr r1
 754:	00000174 	andeq	r0, r0, r4, ror r1
 758:	047b0002 	ldrbteq	r0, [fp], #-2
	...
 764:	00000174 	andeq	r0, r0, r4, ror r1
 768:	00000178 	andeq	r0, r0, r8, ror r1
 76c:	007d0002 	rsbseq	r0, sp, r2
 770:	00000178 	andeq	r0, r0, r8, ror r1
 774:	0000017c 	andeq	r0, r0, ip, ror r1
 778:	047d0002 	ldrbteq	r0, [sp], #-2
 77c:	0000017c 	andeq	r0, r0, ip, ror r1
 780:	000001a0 	andeq	r0, r0, r0, lsr #3
 784:	047b0002 	ldrbteq	r0, [fp], #-2
	...
 790:	000001a0 	andeq	r0, r0, r0, lsr #3
 794:	000001a4 	andeq	r0, r0, r4, lsr #3
 798:	007d0002 	rsbseq	r0, sp, r2
 79c:	000001a4 	andeq	r0, r0, r4, lsr #3
 7a0:	000001a8 	andeq	r0, r0, r8, lsr #3
 7a4:	047d0002 	ldrbteq	r0, [sp], #-2
 7a8:	000001a8 	andeq	r0, r0, r8, lsr #3
 7ac:	000001cc 	andeq	r0, r0, ip, asr #3
 7b0:	047b0002 	ldrbteq	r0, [fp], #-2
	...
 7bc:	000001cc 	andeq	r0, r0, ip, asr #3
 7c0:	000001d0 	ldrdeq	r0, [r0], -r0	; <UNPREDICTABLE>
 7c4:	007d0002 	rsbseq	r0, sp, r2
 7c8:	000001d0 	ldrdeq	r0, [r0], -r0	; <UNPREDICTABLE>
 7cc:	000001d4 	ldrdeq	r0, [r0], -r4
 7d0:	087d0002 	ldmdaeq	sp!, {r1}^
 7d4:	000001d4 	ldrdeq	r0, [r0], -r4
 7d8:	00000240 	andeq	r0, r0, r0, asr #4
 7dc:	047b0002 	ldrbteq	r0, [fp], #-2
	...
 7e8:	00000240 	andeq	r0, r0, r0, asr #4
 7ec:	00000244 	andeq	r0, r0, r4, asr #4
 7f0:	007d0002 	rsbseq	r0, sp, r2
 7f4:	00000244 	andeq	r0, r0, r4, asr #4
 7f8:	00000248 	andeq	r0, r0, r8, asr #4
 7fc:	087d0002 	ldmdaeq	sp!, {r1}^
 800:	00000248 	andeq	r0, r0, r8, asr #4
 804:	00000284 	andeq	r0, r0, r4, lsl #5
 808:	047b0002 	ldrbteq	r0, [fp], #-2
	...

Disassembly of section .debug_str:

00000000 <.debug_str>:
   0:	6e69616d 	powvsez	f6, f1, #5.0
   4:	4700632e 	strmi	r6, [r0, -lr, lsr #6]
   8:	4320554e 	teqmi	r0, #327155712	; 0x13800000
   c:	372e3420 	strcc	r3, [lr, -r0, lsr #8]!
  10:	6c00332e 	stcvs	3, cr3, [r0], {46}	; 0x2e
  14:	20676e6f 	rsbcs	r6, r7, pc, ror #28
  18:	676e6f6c 	strbvs	r6, [lr, -ip, ror #30]!
  1c:	736e7520 	cmnvc	lr, #32, 10	; 0x8000000
  20:	656e6769 	strbvs	r6, [lr, #-1897]!	; 0x769
  24:	6e692064 	cdpvs	0, 6, cr2, cr9, cr4, {3}
  28:	6e750074 	mrcvs	0, 3, r0, cr5, cr4, {3}
  2c:	6e676973 	mcrvs	9, 3, r6, cr7, cr3, {3}
  30:	63206465 	teqvs	r0, #1694498816	; 0x65000000
  34:	00726168 	rsbseq	r6, r2, r8, ror #2
  38:	6e69616d 	powvsez	f6, f1, #5.0
  3c:	6f682f00 	svcvs	0x00682f00
  40:	632f656d 	teqvs	pc, #457179136	; 0x1b400000
  44:	6f697361 	svcvs	0x00697361
  48:	6f6f776e 	svcvs	0x006f776e
  4c:	79686b2f 	stmdbvc	r8!, {r0, r1, r2, r3, r5, r8, r9, fp, sp, lr}^
  50:	76726570 			; <UNDEFINED> instruction: 0x76726570
  54:	726f7369 	rsbvc	r7, pc, #-1543503871	; 0xa4000001
  58:	616c702f 	cmnvs	ip, pc, lsr #32
  5c:	726f6674 	rsbvc	r6, pc, #116, 12	; 0x7400000
  60:	65642d6d 	strbvs	r2, [r4, #-3437]!	; 0xd6d
  64:	65636976 	strbvs	r6, [r3, #-2422]!	; 0x976
  68:	726f632f 	rsbvc	r6, pc, #-1140850688	; 0xbc000000
  6c:	5f786574 	svcpl	0x00786574
  70:	78353161 	ldmdavc	r5!, {r0, r5, r6, r8, ip, sp}
  74:	74725f32 	ldrbtvc	r5, [r2], #-3890	; 0xf32
  78:	672f6d73 			; <UNDEFINED> instruction: 0x672f6d73
  7c:	74736575 	ldrbtvc	r6, [r3], #-1397	; 0x575
  80:	622f736f 	eorvs	r7, pc, #-1140850687	; 0xbc000001
  84:	6575676d 	ldrbvs	r6, [r5, #-1901]!	; 0x76d
  88:	73007473 	movwvc	r7, #1139	; 0x473
  8c:	74726f68 	ldrbtvc	r6, [r2], #-3944	; 0xf68
  90:	736e7520 	cmnvc	lr, #32, 10	; 0x8000000
  94:	656e6769 	strbvs	r6, [lr, #-1897]!	; 0x769
  98:	6e692064 	cdpvs	0, 6, cr2, cr9, cr4, {3}
  9c:	2e2e0074 	mcrcs	0, 1, r0, cr14, cr4, {3}
  a0:	2f2e2e2f 	svccs	0x002e2e2f
  a4:	2e2f2e2e 	cdpcs	14, 2, cr2, cr15, cr14, {1}
  a8:	6f632f2e 	svcvs	0x00632f2e
  ac:	6e6f6d6d 	cdpvs	13, 6, cr6, cr15, cr13, {3}
  b0:	6575672f 	ldrbvs	r6, [r5, #-1839]!	; 0x72f
  b4:	632f7473 	teqvs	pc, #1929379840	; 0x73000000
  b8:	2f65726f 	svccs	0x0065726f
  bc:	74735f63 	ldrbtvc	r5, [r3], #-3939	; 0xf63
  c0:	2e747261 	cdpcs	2, 7, cr7, cr4, cr1, {3}
  c4:	726e0063 	rsbvc	r0, lr, #99	; 0x63
  c8:	65645f6d 	strbvs	r5, [r4, #-3949]!	; 0xf6d
  cc:	0079616c 	rsbseq	r6, r9, ip, ror #2
  d0:	5f6d726e 	svcpl	0x006d726e
  d4:	706f6f6c 	rsbvc	r6, pc, ip, ror #30
  d8:	78655f00 	stmdavc	r5!, {r8, r9, sl, fp, ip, lr}^
  dc:	74706563 	ldrbtvc	r6, [r0], #-1379	; 0x563
  e0:	686e755f 	stmdavs	lr!, {r0, r1, r2, r3, r4, r6, r8, sl, ip, sp, lr}^
  e4:	6c646e61 	stclvs	14, cr6, [r4], #-388	; 0xfffffe7c
  e8:	2e006465 	cdpcs	4, 0, cr6, cr0, cr5, {3}
  ec:	2e2e2f2e 	cdpcs	15, 2, cr2, cr14, cr14, {1}
  f0:	2f2e2e2f 	svccs	0x002e2e2f
  f4:	632f2e2e 	teqvs	pc, #736	; 0x2e0
  f8:	6f6d6d6f 	svcvs	0x006d6d6f
  fc:	75672f6e 	strbvc	r2, [r7, #-3950]!	; 0xf6e
 100:	2f747365 	svccs	0x00747365
 104:	65726f63 	ldrbvs	r6, [r2, #-3939]!	; 0xf63
 108:	6378652f 	cmnvs	r8, #197132288	; 0xbc00000
 10c:	69747065 	ldmdbvs	r4!, {r0, r2, r5, r6, ip, sp, lr}^
 110:	632e6e6f 	teqvs	lr, #1776	; 0x6f0
 114:	73706300 	cmnvc	r0, #0, 6
 118:	72610072 	rsbvc	r0, r1, #114	; 0x72
 11c:	725f6863 	subsvc	r6, pc, #6488064	; 0x630000
 120:	00736765 	rsbseq	r6, r3, r5, ror #14
 124:	6378655f 	cmnvs	r8, #398458880	; 0x17c00000
 128:	5f747065 	svcpl	0x00747065
 12c:	00717269 	rsbseq	r7, r1, r9, ror #4
 130:	657a6973 	ldrbvs	r6, [sl, #-2419]!	; 0x973
 134:	65707974 	ldrbvs	r7, [r0, #-2420]!	; 0x974
 138:	63696700 	cmnvs	r9, #0, 14
 13c:	746e695f 	strbtvc	r6, [lr], #-2399	; 0x95f
 140:	75727265 	ldrbvc	r7, [r2, #-613]!	; 0x265
 144:	5f007470 	svcpl	0x00007470
 148:	65637865 	strbvs	r7, [r3, #-2149]!	; 0x865
 14c:	735f7470 	cmpvc	pc, #112, 8	; 0x70000000
 150:	62006376 	andvs	r6, r0, #-671088639	; 0xd8000001
 154:	69675f61 	stmdbvs	r7!, {r0, r5, r6, r8, r9, sl, fp, ip, lr}^
 158:	62006363 	andvs	r6, r0, #-1946157055	; 0x8c000001
 15c:	69675f61 	stmdbvs	r7!, {r0, r5, r6, r8, r9, sl, fp, ip, lr}^
 160:	70006463 	andvc	r6, r0, r3, ror #8
 164:	61746164 	cmnvs	r4, r4, ror #2
 168:	706d7300 	rsbvc	r7, sp, r0, lsl #6
 16c:	6f72705f 	svcvs	0x0072705f
 170:	73736563 	cmnvc	r3, #415236096	; 0x18c00000
 174:	695f726f 	ldmdbvs	pc, {r0, r1, r2, r3, r5, r6, r9, ip, sp, lr}^	; <UNPREDICTABLE>
 178:	65720064 	ldrbvs	r0, [r2, #-100]!	; 0x64
 17c:	746c7573 	strbtvc	r7, [ip], #-1395	; 0x573
 180:	63696700 	cmnvs	r9, #0, 14
 184:	616e655f 	cmnvs	lr, pc, asr r5
 188:	5f656c62 	svcpl	0x00656c62
 18c:	00717269 	rsbseq	r7, r1, r9, ror #4
 190:	74696e69 	strbtvc	r6, [r9], #-3689	; 0xe69
 194:	696c6169 	stmdbvs	ip!, {r0, r3, r5, r6, r8, sp, lr}^
 198:	0064657a 	rsbeq	r6, r4, sl, ror r5
 19c:	4d4d5648 	stclmi	6, cr5, [sp, #-288]	; 0xfffffee0
 1a0:	4154535f 	cmpmi	r4, pc, asr r3
 1a4:	5f535554 	svcpl	0x00535554
 1a8:	5f544f4e 	svcpl	0x00544f4e
 1ac:	4e554f46 	cdpmi	15, 5, cr4, cr5, cr6, {2}
 1b0:	69670044 	stmdbvs	r7!, {r2, r6}^
 1b4:	69645f63 	stmdbvs	r4!, {r0, r1, r5, r6, r8, r9, sl, fp, ip, lr}^
 1b8:	6c626173 	stfvse	f6, [r2], #-460	; 0xfffffe34
 1bc:	72695f65 	rsbvc	r5, r9, #404	; 0x194
 1c0:	56480071 			; <UNDEFINED> instruction: 0x56480071
 1c4:	535f4d4d 	cmppl	pc, #4928	; 0x1340
 1c8:	55544154 	ldrbpl	r4, [r4, #-340]	; 0x154
 1cc:	55535f53 	ldrbpl	r5, [r3, #-3923]	; 0xf53
 1d0:	53454343 	movtpl	r4, #21315	; 0x5343
 1d4:	69670053 	stmdbvs	r7!, {r0, r1, r4, r6}^
 1d8:	75645f63 	strbvc	r5, [r4, #-3939]!	; 0xf63
 1dc:	725f706d 	subsvc	r7, pc, #109	; 0x6d
 1e0:	73696765 	cmnvc	r9, #26476544	; 0x1940000
 1e4:	73726574 	cmnvc	r2, #116, 10	; 0x1d000000
 1e8:	6e696c00 	cdpvs	12, 6, cr6, cr9, cr0, {0}
 1ec:	72007365 	andvc	r7, r0, #-1811939327	; 0x94000001
 1f0:	006c6176 	rsbeq	r6, ip, r6, ror r1
 1f4:	4d4d5648 	stclmi	6, cr5, [sp, #-288]	; 0xfffffee0
 1f8:	4154535f 	cmpmi	r4, pc, asr r3
 1fc:	5f535554 	svcpl	0x00535554
 200:	5f444142 	svcpl	0x00444142
 204:	45434341 	strbmi	r4, [r3, #-833]	; 0x341
 208:	5f005353 	svcpl	0x00005353
 20c:	00636967 	rsbeq	r6, r3, r7, ror #18
 210:	2e2f2e2e 	cdpcs	14, 2, cr2, cr15, cr14, {1}
 214:	2e2e2f2e 	cdpcs	15, 2, cr2, cr14, cr14, {1}
 218:	2f2e2e2f 	svccs	0x002e2e2f
 21c:	6d6d6f63 	stclvs	15, cr6, [sp, #-396]!	; 0xfffffe74
 220:	672f6e6f 	strvs	r6, [pc, -pc, ror #28]!
 224:	74736575 	ldrbtvc	r6, [r3], #-1397	; 0x575
 228:	726f632f 	rsbvc	r6, pc, #-1140850688	; 0xbc000000
 22c:	69672f65 	stmdbvs	r7!, {r0, r2, r5, r6, r8, r9, sl, fp, sp}^
 230:	00632e63 	rsbeq	r2, r3, r3, ror #28
 234:	5f636967 	svcpl	0x00636967
 238:	74696e69 	strbtvc	r6, [r9], #-3689	; 0xe69
 23c:	63696700 	cmnvs	r9, #0, 14
 240:	7465735f 	strbtvc	r7, [r5], #-863	; 0x35f
 244:	7172695f 	cmnvc	r2, pc, asr r9
 248:	6e61685f 	mcrvs	8, 3, r6, cr1, cr15, {2}
 24c:	72656c64 	rsbvc	r6, r5, #100, 24	; 0x6400
 250:	5f617600 	svcpl	0x00617600
 254:	65736162 	ldrbvs	r6, [r3, #-354]!	; 0x162
 258:	6e697500 	cdpvs	5, 6, cr7, cr9, cr0, {0}
 25c:	745f3874 	ldrbvc	r3, [pc], #-2164	; 264 <GUEST_OFFSET-0x7ffffd9c>
 260:	63696700 	cmnvs	r9, #0, 14
 264:	696e695f 	stmdbvs	lr!, {r0, r1, r2, r3, r4, r6, r8, fp, sp, lr}^
 268:	61625f74 	smcvs	9716	; 0x25f4
 26c:	64616573 	strbtvs	r6, [r1], #-1395	; 0x573
 270:	68007264 	stmdavs	r0, {r2, r5, r6, r9, ip, sp, lr}
 274:	5f6d6d76 	svcpl	0x006d6d76
 278:	74617473 	strbtvc	r7, [r1], #-1139	; 0x473
 27c:	745f7375 	ldrbvc	r7, [pc], #-885	; 284 <GUEST_OFFSET-0x7ffffd7c>
 280:	63696700 	cmnvs	r9, #0, 14
 284:	7172695f 	cmnvc	r2, pc, asr r9
 288:	6e61685f 	mcrvs	8, 3, r6, cr1, cr15, {2}
 28c:	72656c64 	rsbvc	r6, r5, #100, 24	; 0x6400
 290:	6800745f 	stmdavs	r0, {r0, r1, r2, r3, r4, r6, sl, ip, sp, lr}
 294:	6c646e61 	stclvs	14, cr6, [r4], #-388	; 0xfffffe7c
 298:	00737265 	rsbseq	r7, r3, r5, ror #4
 29c:	65725f73 	ldrbvs	r5, [r2, #-3955]!	; 0xf73
 2a0:	6d003867 	stcvs	8, cr3, [r0, #-412]	; 0xfffffe64
 2a4:	00726469 	rsbseq	r6, r2, r9, ror #8
 2a8:	4d4d5648 	stclmi	6, cr5, [sp, #-288]	; 0xfffffee0
 2ac:	4154535f 	cmpmi	r4, pc, asr r3
 2b0:	5f535554 	svcpl	0x00535554
 2b4:	4f4e4749 	svcmi	0x004e4749
 2b8:	00444552 	subeq	r4, r4, r2, asr r5
 2bc:	4d4d5648 	stclmi	6, cr5, [sp, #-288]	; 0xfffffee0
 2c0:	4154535f 	cmpmi	r4, pc, asr r3
 2c4:	5f535554 	svcpl	0x00535554
 2c8:	59535542 	ldmdbpl	r3, {r1, r6, r8, sl, ip, lr}^
 2cc:	4d564800 	ldclmi	8, cr4, [r6, #-0]
 2d0:	54535f4d 	ldrbpl	r5, [r3], #-3917	; 0xf4d
 2d4:	53555441 	cmppl	r5, #1090519040	; 0x41000000
 2d8:	4b4e555f 	blmi	139585c <GUEST_OFFSET-0x7ec6a7a4>
 2dc:	4e574f4e 	cdpmi	15, 5, cr4, cr7, cr14, {2}
 2e0:	5252455f 	subspl	r4, r2, #398458880	; 0x17c00000
 2e4:	4800524f 	stmdami	r0, {r0, r1, r2, r3, r6, r9, ip, lr}
 2e8:	5f4d4d56 	svcpl	0x004d4d56
 2ec:	54415453 	strbpl	r5, [r1], #-1107	; 0x453
 2f0:	555f5355 	ldrbpl	r5, [pc, #-853]	; ffffffa3 <guest_stacklimit+0x6fffffa3>
 2f4:	5055534e 	subspl	r5, r5, lr, asr #6
 2f8:	54524f50 	ldrbpl	r4, [r2], #-3920	; 0xf50
 2fc:	465f4445 	ldrbmi	r4, [pc], -r5, asr #8
 300:	55544145 	ldrbpl	r4, [r4, #-325]	; 0x145
 304:	75004552 	strvc	r4, [r0, #-1362]	; 0x552
 308:	33746e69 	cmncc	r4, #1680	; 0x690
 30c:	00745f32 	rsbseq	r5, r4, r2, lsr pc
 310:	67657270 			; <UNDEFINED> instruction: 0x67657270
 314:	70630073 	rsbvc	r0, r3, r3, ror r0
 318:	68007375 	stmdavs	r0, {r0, r2, r4, r5, r6, r8, r9, ip, sp, lr}
 31c:	5f6d6d76 	svcpl	0x006d6d76
 320:	74617473 	strbtvc	r7, [r1], #-1139	; 0x473
 324:	67007375 	smlsdxvs	r0, r5, r3, r7
 328:	745f6369 	ldrbvc	r6, [pc], #-873	; 330 <GUEST_OFFSET-0x7ffffcd0>
 32c:	5f747365 	svcpl	0x00747365
 330:	76656476 			; <UNDEFINED> instruction: 0x76656476
 334:	6363615f 	cmnvs	r3, #-1073741801	; 0xc0000017
 338:	00737365 	rsbseq	r7, r3, r5, ror #6
 33c:	5f676572 	svcpl	0x00676572
 340:	65720062 	ldrbvs	r0, [r2, #-98]!	; 0x62
 344:	00635f67 	rsbeq	r5, r3, r7, ror #30
 348:	74736574 	ldrbtvc	r6, [r3], #-1396	; 0x574
 34c:	6564765f 	strbvs	r7, [r4, #-1631]!	; 0x65f
 350:	61735f76 	cmnvs	r3, r6, ror pc
 354:	656c706d 	strbvs	r7, [ip, #-109]!	; 0x6d
 358:	67657200 	strbvs	r7, [r5, -r0, lsl #4]!
 35c:	2e00615f 	mcrcs	1, 0, r6, cr0, cr15, {2}
 360:	2e2e2f2e 	cdpcs	15, 2, cr2, cr14, cr14, {1}
 364:	2f2e2e2f 	svccs	0x002e2e2f
 368:	632f2e2e 	teqvs	pc, #736	; 0x2e0
 36c:	6f6d6d6f 	svcvs	0x006d6d6f
 370:	75672f6e 	strbvc	r2, [r7, #-3950]!	; 0xf6e
 374:	2f747365 	svccs	0x00747365
 378:	74736574 	ldrbtvc	r6, [r3], #-1396	; 0x574
 37c:	7365742f 	cmnvc	r5, #788529152	; 0x2f000000
 380:	64765f74 	ldrbtvs	r5, [r6], #-3956	; 0xf74
 384:	735f7665 	cmpvc	pc, #105906176	; 0x6500000
 388:	6c706d61 	ldclvs	13, cr6, [r0], #-388	; 0xfffffe7c
 38c:	00632e65 	rsbeq	r2, r3, r5, ror #28
 390:	6d697476 	cfstrdvs	mvd7, [r9, #-472]!	; 0xfffffe28
 394:	6d5f7265 	lfmvs	f7, 2, [pc, #-404]	; 208 <GUEST_OFFSET-0x7ffffdf8>
 398:	006b7361 	rsbeq	r7, fp, r1, ror #6
 39c:	2e2f2e2e 	cdpcs	14, 2, cr2, cr15, cr14, {1}
 3a0:	2e2e2f2e 	cdpcs	15, 2, cr2, cr14, cr14, {1}
 3a4:	2f2e2e2f 	svccs	0x002e2e2f
 3a8:	6d6d6f63 	stclvs	15, cr6, [sp, #-396]!	; 0xfffffe74
 3ac:	672f6e6f 	strvs	r6, [pc, -pc, ror #28]!
 3b0:	74736575 	ldrbtvc	r6, [r3], #-1397	; 0x575
 3b4:	7365742f 	cmnvc	r5, #788529152	; 0x2f000000
 3b8:	65742f74 	ldrbvs	r2, [r4, #-3956]!	; 0xf74
 3bc:	765f7473 			; <UNDEFINED> instruction: 0x765f7473
 3c0:	656d6974 	strbvs	r6, [sp, #-2420]!	; 0x974
 3c4:	00632e72 	rsbeq	r2, r3, r2, ror lr
 3c8:	72735f5f 	rsbsvc	r5, r3, #380	; 0x17c
 3cc:	69730063 	ldmdbvs	r3!, {r0, r1, r5, r6}^
 3d0:	745f657a 	ldrbvc	r6, [pc], #-1402	; 3d8 <GUEST_OFFSET-0x7ffffc28>
 3d4:	6d656d00 	stclvs	13, cr6, [r5, #-0]
 3d8:	00706d63 	rsbseq	r6, r0, r3, ror #26
 3dc:	6d6d656d 	cfstr64vs	mvdx6, [sp, #-436]!	; 0xfffffe4c
 3e0:	0065766f 	rsbeq	r7, r5, pc, ror #12
 3e4:	65645f5f 	strbvs	r5, [r4, #-3935]!	; 0xf5f
 3e8:	6d007473 	cfstrsvs	mvf7, [r0, #-460]	; 0xfffffe34
 3ec:	68636d65 	stmdavs	r3!, {r0, r2, r5, r6, r8, sl, fp, sp, lr}^
 3f0:	74730072 	ldrbtvc	r0, [r3], #-114	; 0x72
 3f4:	72686372 	rsbvc	r6, r8, #-939524095	; 0xc8000001
 3f8:	72747300 	rsbsvc	r7, r4, #0, 6
 3fc:	006e656c 	rsbeq	r6, lr, ip, ror #10
 400:	5f6d7261 	svcpl	0x006d7261
 404:	73786568 	cmnvc	r8, #104, 10	; 0x1a000000
 408:	75327274 	ldrvc	r7, [r2, #-628]!	; 0x274
 40c:	00746e69 	rsbseq	r6, r4, r9, ror #28
 410:	63727473 	cmnvs	r2, #1929379840	; 0x73000000
 414:	73007970 	movwvc	r7, #2416	; 0x970
 418:	61637274 	smcvs	14116	; 0x3724
 41c:	656d0074 	strbvs	r0, [sp, #-116]!	; 0x74
 420:	7465736d 	strbtvc	r7, [r5], #-877	; 0x36d
 424:	6d5f5f00 	ldclvs	15, cr5, [pc, #-0]	; 42c <GUEST_OFFSET-0x7ffffbd4>
 428:	6f6d6d65 	svcvs	0x006d6d65
 42c:	645f6576 	ldrbvs	r6, [pc], #-1398	; 434 <GUEST_OFFSET-0x7ffffbcc>
 430:	006e776f 	rsbeq	r7, lr, pc, ror #14
 434:	5f6d7261 	svcpl	0x006d7261
 438:	746e6975 	strbtvc	r6, [lr], #-2421	; 0x975
 43c:	78656832 	stmdavc	r5!, {r1, r4, r5, fp, sp, lr}^
 440:	00727473 	rsbseq	r7, r2, r3, ror r4
 444:	756e696d 	strbvc	r6, [lr, #-2413]!	; 0x96d
 448:	65680073 	strbvs	r0, [r8, #-115]!	; 0x73
 44c:	61686378 	smcvs	34360	; 0x8638
 450:	61007372 	tstvs	r0, r2, ror r3
 454:	735f6d72 	cmpvc	pc, #7296	; 0x1c80
 458:	69327274 	ldmdbvs	r2!, {r2, r4, r5, r6, r9, ip, sp, lr}
 45c:	5f00746e 	svcpl	0x0000746e
 460:	6d656d5f 	stclvs	13, cr6, [r5, #-380]!	; 0xfffffe84
 464:	65766f6d 	ldrbvs	r6, [r6, #-3949]!	; 0xf6d
 468:	0070755f 	rsbseq	r7, r0, pc, asr r5
 46c:	63727473 	cmnvs	r2, #1929379840	; 0x73000000
 470:	6d00706d 	stcvs	0, cr7, [r0, #-436]	; 0xfffffe4c
 474:	70636d65 	rsbvc	r6, r3, r5, ror #26
 478:	74730079 	ldrbtvc	r0, [r3], #-121	; 0x79
 47c:	6d636e72 	stclvs	14, cr6, [r3, #-456]!	; 0xfffffe38
 480:	6f630070 	svcvs	0x00630070
 484:	00746e75 	rsbseq	r6, r4, r5, ror lr
 488:	2e2f2e2e 	cdpcs	14, 2, cr2, cr15, cr14, {1}
 48c:	2e2e2f2e 	cdpcs	15, 2, cr2, cr14, cr14, {1}
 490:	2f2e2e2f 	svccs	0x002e2e2f
 494:	6d6d6f63 	stclvs	15, cr6, [sp, #-396]!	; 0xfffffe74
 498:	6c2f6e6f 	stcvs	14, cr6, [pc], #-444	; 2e4 <GUEST_OFFSET-0x7ffffd1c>
 49c:	732f676f 	teqvc	pc, #29097984	; 0x1bc0000
 4a0:	6e697274 	mcrvs	2, 3, r7, cr9, cr4, {3}
 4a4:	00632e67 	rsbeq	r2, r3, r7, ror #28
 4a8:	74726175 	ldrbtvc	r6, [r2], #-373	; 0x175
 4ac:	6972705f 	ldmdbvs	r2!, {r0, r1, r2, r3, r4, r6, ip, sp, lr}^
 4b0:	7500746e 	strvc	r7, [r0, #-1134]	; 0x46e
 4b4:	5f747261 	svcpl	0x00747261
 4b8:	74696e69 	strbtvc	r6, [r9], #-3689	; 0xe69
 4bc:	41557000 	cmpmi	r5, r0
 4c0:	75005452 	strvc	r5, [r0, #-1106]	; 0x452
 4c4:	5f747261 	svcpl	0x00747261
 4c8:	63747570 	cmnvs	r4, #112, 10	; 0x1c000000
 4cc:	69726400 	ldmdbvs	r2!, {sl, sp, lr}^
 4d0:	73726576 	cmnvc	r2, #494927872	; 0x1d800000
 4d4:	7261752f 	rsbvc	r7, r1, #197132288	; 0xbc00000
 4d8:	00632e74 	rsbeq	r2, r3, r4, ror lr
 4dc:	6d75645f 	cfldrdvs	mvd6, [r5, #-380]!	; 0xfffffe84
 4e0:	625f796d 	subsvs	r7, pc, #1785856	; 0x1b4000
 4e4:	00657479 	rsbeq	r7, r5, r9, ror r4
 4e8:	74726175 	ldrbtvc	r6, [r2], #-373	; 0x175
 4ec:	6972705f 	ldmdbvs	r2!, {r0, r1, r2, r3, r4, r6, ip, sp, lr}^
 4f0:	685f746e 	ldmdavs	pc, {r1, r2, r3, r5, r6, sl, ip, sp, lr}^	; <UNPREDICTABLE>
 4f4:	32337865 	eorscc	r7, r3, #6619136	; 0x650000
 4f8:	73616d00 	cmnvc	r1, #0, 26
 4fc:	7300386b 	movwvc	r3, #2155	; 0x86b
 500:	34303870 	ldrtcc	r3, [r0], #-2160	; 0x870
 504:	696e695f 	stmdbvs	lr!, {r0, r1, r2, r3, r4, r6, r8, fp, sp, lr}^
 508:	70730074 	rsbsvc	r0, r3, r4, ror r0
 50c:	5f343038 	svcpl	0x00343038
 510:	72617473 	rsbvc	r7, r1, #1929379840	; 0x73000000
 514:	70730074 	rsbsvc	r0, r3, r4, ror r0
 518:	5f343038 	svcpl	0x00343038
 51c:	5f717269 	svcpl	0x00717269
 520:	61656c63 	cmnvs	r5, r3, ror #24
 524:	70730072 	rsbsvc	r0, r3, r2, ror r0
 528:	5f343038 	svcpl	0x00343038
 52c:	65736162 	ldrbvs	r6, [r3, #-354]!	; 0x162
 530:	616f6c00 	cmnvs	pc, r0, lsl #24
 534:	61765f64 	cmnvs	r6, r4, ror #30
 538:	0065756c 	rsbeq	r7, r5, ip, ror #10
 53c:	76697264 	strbtvc	r7, [r9], -r4, ror #4
 540:	2f737265 	svccs	0x00737265
 544:	30387073 	eorscc	r7, r8, r3, ror r0
 548:	69745f34 	ldmdbvs	r4!, {r2, r4, r5, r8, r9, sl, fp, ip, lr}^
 54c:	2e72656d 	cdpcs	5, 7, cr6, cr2, cr13, {3}
 550:	70730063 	rsbsvc	r0, r3, r3, rrx
 554:	5f343038 	svcpl	0x00343038
 558:	74696e69 	strbtvc	r6, [r9], #-3689	; 0xe69
 55c:	656e6f5f 	strbvs	r6, [lr, #-3935]!	; 0xf5f
 560:	746f6873 	strbtvc	r6, [pc], #-2163	; 568 <GUEST_OFFSET-0x7ffffa98>
 564:	38707300 	ldmdacc	r0!, {r8, r9, ip, sp, lr}^
 568:	735f3430 	cmpvc	pc, #48, 8	; 0x30000000
 56c:	00706f74 	rsbseq	r6, r0, r4, ror pc
 570:	64696d76 	strbtvs	r6, [r9], #-3446	; 0xd76
 574:	746e6900 	strbtvc	r6, [lr], #-2304	; 0x900
 578:	75727265 	ldrbvc	r7, [r2, #-613]!	; 0x265
 57c:	735f7470 	cmpvc	pc, #112, 8	; 0x70000000
 580:	34303870 	ldrtcc	r3, [r0], #-2160	; 0x870
 584:	6d69745f 	cfstrdvs	mvd7, [r9, #-380]!	; 0xfffffe84
 588:	73007265 	movwvc	r7, #613	; 0x265
 58c:	34303870 	ldrtcc	r3, [r0], #-2160	; 0x870
 590:	6165725f 	cmnvs	r5, pc, asr r2
 594:	76680064 	strbtvc	r0, [r8], -r4, rrx
 598:	745f6d6d 	ldrbvc	r6, [pc], #-3437	; 5a0 <GUEST_OFFSET-0x7ffffa60>
 59c:	73747365 	cmnvc	r4, #-1811939327	; 0x94000001
 5a0:	3870735f 	ldmdacc	r0!, {r0, r1, r2, r3, r4, r6, r8, r9, ip, sp, lr}^
 5a4:	745f3430 	ldrbvc	r3, [pc], #-1072	; 5ac <GUEST_OFFSET-0x7ffffa54>
 5a8:	72656d69 	rsbvc	r6, r5, #6720	; 0x1a40
 5ac:	38707300 	ldmdacc	r0!, {r8, r9, ip, sp, lr}^
 5b0:	695f3430 	ldmdbvs	pc, {r4, r5, sl, ip, sp}^	; <UNPREDICTABLE>
 5b4:	5f74696e 	svcpl	0x0074696e
 5b8:	69726570 	ldmdbvs	r2!, {r4, r5, r6, r8, sl, sp, lr}^
 5bc:	6369646f 	cmnvs	r9, #1862270976	; 0x6f000000
 5c0:	38707300 	ldmdacc	r0!, {r8, r9, ip, sp, lr}^
 5c4:	6c5f3430 	cfldrdvs	mvd3, [pc], {48}	; 0x30
 5c8:	0064616f 	rsbeq	r6, r4, pc, ror #2
 5cc:	64616f6c 	strbtvs	r6, [r1], #-3948	; 0xf6c
 5d0:	006c6176 	rsbeq	r6, ip, r6, ror r1
 5d4:	75706376 	ldrbvc	r6, [r0, #-886]!	; 0x376
 5d8:	745f6469 	ldrbvc	r6, [pc], #-1129	; 5e0 <GUEST_OFFSET-0x7ffffa20>
	...

Disassembly of section .debug_frame:

00000000 <.debug_frame>:
   0:	0000000c 	andeq	r0, r0, ip
   4:	ffffffff 			; <UNDEFINED> instruction: 0xffffffff
   8:	7c020001 	stcvc	0, cr0, [r2], {1}
   c:	000d0c0e 	andeq	r0, sp, lr, lsl #24
  10:	00000018 	andeq	r0, r0, r8, lsl r0
  14:	00000000 	andeq	r0, r0, r0
  18:	80000004 	andhi	r0, r0, r4
  1c:	00000024 	andeq	r0, r0, r4, lsr #32
  20:	8b080e42 	blhi	203930 <GUEST_OFFSET-0x7fdfc6d0>
  24:	42018e02 	andmi	r8, r1, #2, 28
  28:	00040b0c 	andeq	r0, r4, ip, lsl #22
  2c:	0000000c 	andeq	r0, r0, ip
  30:	ffffffff 			; <UNDEFINED> instruction: 0xffffffff
  34:	7c020001 	stcvc	0, cr0, [r2], {1}
  38:	000d0c0e 	andeq	r0, sp, lr, lsl #24
  3c:	00000014 	andeq	r0, r0, r4, lsl r0
  40:	0000002c 	andeq	r0, r0, ip, lsr #32
  44:	80000028 	andhi	r0, r0, r8, lsr #32
  48:	00000048 	andeq	r0, r0, r8, asr #32
  4c:	8b040e42 	blhi	10395c <GUEST_OFFSET-0x7fefc6a4>
  50:	0b0d4201 	bleq	35085c <GUEST_OFFSET-0x7fcaf7a4>
  54:	00000018 	andeq	r0, r0, r8, lsl r0
  58:	0000002c 	andeq	r0, r0, ip, lsr #32
  5c:	80000070 	andhi	r0, r0, r0, ror r0
  60:	0000014c 	andeq	r0, r0, ip, asr #2
  64:	8b080e42 	blhi	203974 <GUEST_OFFSET-0x7fdfc68c>
  68:	42018e02 	andmi	r8, r1, #2, 28
  6c:	00040b0c 	andeq	r0, r4, ip, lsl #22
  70:	0000000c 	andeq	r0, r0, ip
  74:	ffffffff 			; <UNDEFINED> instruction: 0xffffffff
  78:	7c020001 	stcvc	0, cr0, [r2], {1}
  7c:	000d0c0e 	andeq	r0, sp, lr, lsl #24
  80:	00000014 	andeq	r0, r0, r4, lsl r0
  84:	00000070 	andeq	r0, r0, r0, ror r0
  88:	800001bc 			; <UNDEFINED> instruction: 0x800001bc
  8c:	0000001c 	andeq	r0, r0, ip, lsl r0
  90:	8b040e42 	blhi	1039a0 <GUEST_OFFSET-0x7fefc660>
  94:	0b0d4201 	bleq	3508a0 <GUEST_OFFSET-0x7fcaf760>
  98:	00000014 	andeq	r0, r0, r4, lsl r0
  9c:	00000070 	andeq	r0, r0, r0, ror r0
  a0:	800001d8 	ldrdhi	r0, [r0], -r8
  a4:	0000001c 	andeq	r0, r0, ip, lsl r0
  a8:	8b040e42 	blhi	1039b8 <GUEST_OFFSET-0x7fefc648>
  ac:	0b0d4201 	bleq	3508b8 <GUEST_OFFSET-0x7fcaf748>
  b0:	00000018 	andeq	r0, r0, r8, lsl r0
  b4:	00000070 	andeq	r0, r0, r0, ror r0
  b8:	800001f4 	strdhi	r0, [r0], -r4
  bc:	00000024 	andeq	r0, r0, r4, lsr #32
  c0:	8b080e42 	blhi	2039d0 <GUEST_OFFSET-0x7fdfc630>
  c4:	42018e02 	andmi	r8, r1, #2, 28
  c8:	00040b0c 	andeq	r0, r4, ip, lsl #22
  cc:	0000000c 	andeq	r0, r0, ip
  d0:	ffffffff 			; <UNDEFINED> instruction: 0xffffffff
  d4:	7c020001 	stcvc	0, cr0, [r2], {1}
  d8:	000d0c0e 	andeq	r0, sp, lr, lsl #24
  dc:	00000018 	andeq	r0, r0, r8, lsl r0
  e0:	000000cc 	andeq	r0, r0, ip, asr #1
  e4:	80000218 	andhi	r0, r0, r8, lsl r2
  e8:	0000002c 	andeq	r0, r0, ip, lsr #32
  ec:	84080e42 	strhi	r0, [r8], #-3650	; 0xe42
  f0:	42018b02 	andmi	r8, r1, #2048	; 0x800
  f4:	00040b0c 	andeq	r0, r4, ip, lsl #22
  f8:	00000018 	andeq	r0, r0, r8, lsl r0
  fc:	000000cc 	andeq	r0, r0, ip, asr #1
 100:	80000244 	andhi	r0, r0, r4, asr #4
 104:	0000013c 	andeq	r0, r0, ip, lsr r1
 108:	8b080e42 	blhi	203a18 <GUEST_OFFSET-0x7fdfc5e8>
 10c:	42018e02 	andmi	r8, r1, #2, 28
 110:	00040b0c 	andeq	r0, r4, ip, lsl #22
 114:	0000001c 	andeq	r0, r0, ip, lsl r0
 118:	000000cc 	andeq	r0, r0, ip, asr #1
 11c:	80000380 	andhi	r0, r0, r0, lsl #7
 120:	0000024c 	andeq	r0, r0, ip, asr #4
 124:	840c0e42 	strhi	r0, [ip], #-3650	; 0xe42
 128:	8e028b03 	vmlahi.f64	d8, d2, d3
 12c:	0b0c4201 	bleq	310938 <GUEST_OFFSET-0x7fcef6c8>
 130:	00000004 	andeq	r0, r0, r4
 134:	0000001c 	andeq	r0, r0, ip, lsl r0
 138:	000000cc 	andeq	r0, r0, ip, asr #1
 13c:	800005cc 	andhi	r0, r0, ip, asr #11
 140:	0000010c 	andeq	r0, r0, ip, lsl #2
 144:	840c0e42 	strhi	r0, [ip], #-3650	; 0xe42
 148:	8e028b03 	vmlahi.f64	d8, d2, d3
 14c:	0b0c4201 	bleq	310958 <GUEST_OFFSET-0x7fcef6a8>
 150:	00000004 	andeq	r0, r0, r4
 154:	00000014 	andeq	r0, r0, r4, lsl r0
 158:	000000cc 	andeq	r0, r0, ip, asr #1
 15c:	800006d8 	ldrdhi	r0, [r0], -r8
 160:	00000058 	andeq	r0, r0, r8, asr r0
 164:	8b040e42 	blhi	103a74 <GUEST_OFFSET-0x7fefc58c>
 168:	0b0d4201 	bleq	350974 <GUEST_OFFSET-0x7fcaf68c>
 16c:	00000014 	andeq	r0, r0, r4, lsl r0
 170:	000000cc 	andeq	r0, r0, ip, asr #1
 174:	80000730 	andhi	r0, r0, r0, lsr r7
 178:	00000058 	andeq	r0, r0, r8, asr r0
 17c:	8b040e42 	blhi	103a8c <GUEST_OFFSET-0x7fefc574>
 180:	0b0d4201 	bleq	35098c <GUEST_OFFSET-0x7fcaf674>
 184:	00000014 	andeq	r0, r0, r4, lsl r0
 188:	000000cc 	andeq	r0, r0, ip, asr #1
 18c:	80000788 	andhi	r0, r0, r8, lsl #15
 190:	00000070 	andeq	r0, r0, r0, ror r0
 194:	8b040e42 	blhi	103aa4 <GUEST_OFFSET-0x7fefc55c>
 198:	0b0d4201 	bleq	3509a4 <GUEST_OFFSET-0x7fcaf65c>
 19c:	00000018 	andeq	r0, r0, r8, lsl r0
 1a0:	000000cc 	andeq	r0, r0, ip, asr #1
 1a4:	800007f8 	strdhi	r0, [r0], -r8
 1a8:	0000014c 	andeq	r0, r0, ip, asr #2
 1ac:	8b080e42 	blhi	203abc <GUEST_OFFSET-0x7fdfc544>
 1b0:	42018e02 	andmi	r8, r1, #2, 28
 1b4:	00040b0c 	andeq	r0, r4, ip, lsl #22
 1b8:	00000018 	andeq	r0, r0, r8, lsl r0
 1bc:	000000cc 	andeq	r0, r0, ip, asr #1
 1c0:	80000944 	andhi	r0, r0, r4, asr #18
 1c4:	0000015c 	andeq	r0, r0, ip, asr r1
 1c8:	8b080e42 	blhi	203ad8 <GUEST_OFFSET-0x7fdfc528>
 1cc:	42018e02 	andmi	r8, r1, #2, 28
 1d0:	00040b0c 	andeq	r0, r4, ip, lsl #22
 1d4:	0000000c 	andeq	r0, r0, ip
 1d8:	ffffffff 			; <UNDEFINED> instruction: 0xffffffff
 1dc:	7c020001 	stcvc	0, cr0, [r2], {1}
 1e0:	000d0c0e 	andeq	r0, sp, lr, lsl #24
 1e4:	00000018 	andeq	r0, r0, r8, lsl r0
 1e8:	000001d4 	ldrdeq	r0, [r0], -r4
 1ec:	80000aa0 	andhi	r0, r0, r0, lsr #21
 1f0:	00000174 	andeq	r0, r0, r4, ror r1
 1f4:	8b080e42 	blhi	203b04 <GUEST_OFFSET-0x7fdfc4fc>
 1f8:	42018e02 	andmi	r8, r1, #2, 28
 1fc:	00040b0c 	andeq	r0, r4, ip, lsl #22
 200:	0000000c 	andeq	r0, r0, ip
 204:	ffffffff 			; <UNDEFINED> instruction: 0xffffffff
 208:	7c020001 	stcvc	0, cr0, [r2], {1}
 20c:	000d0c0e 	andeq	r0, sp, lr, lsl #24
 210:	00000014 	andeq	r0, r0, r4, lsl r0
 214:	00000200 	andeq	r0, r0, r0, lsl #4
 218:	80000c14 	andhi	r0, r0, r4, lsl ip
 21c:	00000030 	andeq	r0, r0, r0, lsr r0
 220:	8b040e42 	blhi	103b30 <GUEST_OFFSET-0x7fefc4d0>
 224:	0b0d4201 	bleq	350a30 <GUEST_OFFSET-0x7fcaf5d0>
 228:	0000000c 	andeq	r0, r0, ip
 22c:	ffffffff 			; <UNDEFINED> instruction: 0xffffffff
 230:	7c020001 	stcvc	0, cr0, [r2], {1}
 234:	000d0c0e 	andeq	r0, sp, lr, lsl #24
 238:	00000014 	andeq	r0, r0, r4, lsl r0
 23c:	00000228 	andeq	r0, r0, r8, lsr #4
 240:	80000c44 	andhi	r0, r0, r4, asr #24
 244:	00000090 	muleq	r0, r0, r0
 248:	8b040e42 	blhi	103b58 <GUEST_OFFSET-0x7fefc4a8>
 24c:	0b0d4201 	bleq	350a58 <GUEST_OFFSET-0x7fcaf5a8>
 250:	00000014 	andeq	r0, r0, r4, lsl r0
 254:	00000228 	andeq	r0, r0, r8, lsr #4
 258:	80000cd4 	ldrdhi	r0, [r0], -r4
 25c:	000000a8 	andeq	r0, r0, r8, lsr #1
 260:	8b040e42 	blhi	103b70 <GUEST_OFFSET-0x7fefc490>
 264:	0b0d4201 	bleq	350a70 <GUEST_OFFSET-0x7fcaf590>
 268:	00000018 	andeq	r0, r0, r8, lsl r0
 26c:	00000228 	andeq	r0, r0, r8, lsr #4
 270:	80000d7c 	andhi	r0, r0, ip, ror sp
 274:	00000038 	andeq	r0, r0, r8, lsr r0
 278:	8b080e42 	blhi	203b88 <GUEST_OFFSET-0x7fdfc478>
 27c:	42018e02 	andmi	r8, r1, #2, 28
 280:	00040b0c 	andeq	r0, r4, ip, lsl #22
 284:	00000018 	andeq	r0, r0, r8, lsl r0
 288:	00000228 	andeq	r0, r0, r8, lsr #4
 28c:	80000db4 			; <UNDEFINED> instruction: 0x80000db4
 290:	00000060 	andeq	r0, r0, r0, rrx
 294:	8b080e42 	blhi	203ba4 <GUEST_OFFSET-0x7fdfc45c>
 298:	42018e02 	andmi	r8, r1, #2, 28
 29c:	00040b0c 	andeq	r0, r4, ip, lsl #22
 2a0:	00000014 	andeq	r0, r0, r4, lsl r0
 2a4:	00000228 	andeq	r0, r0, r8, lsr #4
 2a8:	80000e14 	andhi	r0, r0, r4, lsl lr
 2ac:	00000088 	andeq	r0, r0, r8, lsl #1
 2b0:	8b040e42 	blhi	103bc0 <GUEST_OFFSET-0x7fefc440>
 2b4:	0b0d4201 	bleq	350ac0 <GUEST_OFFSET-0x7fcaf540>
 2b8:	00000014 	andeq	r0, r0, r4, lsl r0
 2bc:	00000228 	andeq	r0, r0, r8, lsr #4
 2c0:	80000e9c 	mulhi	r0, ip, lr
 2c4:	00000054 	andeq	r0, r0, r4, asr r0
 2c8:	8b040e42 	blhi	103bd8 <GUEST_OFFSET-0x7fefc428>
 2cc:	0b0d4201 	bleq	350ad8 <GUEST_OFFSET-0x7fcaf528>
 2d0:	00000014 	andeq	r0, r0, r4, lsl r0
 2d4:	00000228 	andeq	r0, r0, r8, lsr #4
 2d8:	80000ef0 	strdhi	r0, [r0], -r0	; <UNPREDICTABLE>
 2dc:	0000007c 	andeq	r0, r0, ip, ror r0
 2e0:	8b040e42 	blhi	103bf0 <GUEST_OFFSET-0x7fefc410>
 2e4:	0b0d4201 	bleq	350af0 <GUEST_OFFSET-0x7fcaf510>
 2e8:	00000014 	andeq	r0, r0, r4, lsl r0
 2ec:	00000228 	andeq	r0, r0, r8, lsr #4
 2f0:	80000f6c 	andhi	r0, r0, ip, ror #30
 2f4:	000000c0 	andeq	r0, r0, r0, asr #1
 2f8:	8b040e42 	blhi	103c08 <GUEST_OFFSET-0x7fefc3f8>
 2fc:	0b0d4201 	bleq	350b08 <GUEST_OFFSET-0x7fcaf4f8>
 300:	00000014 	andeq	r0, r0, r4, lsl r0
 304:	00000228 	andeq	r0, r0, r8, lsr #4
 308:	8000102c 	andhi	r1, r0, ip, lsr #32
 30c:	000000e4 	andeq	r0, r0, r4, ror #1
 310:	8b040e42 	blhi	103c20 <GUEST_OFFSET-0x7fefc3e0>
 314:	0b0d4201 	bleq	350b20 <GUEST_OFFSET-0x7fcaf4e0>
 318:	00000014 	andeq	r0, r0, r4, lsl r0
 31c:	00000228 	andeq	r0, r0, r8, lsr #4
 320:	80001110 	andhi	r1, r0, r0, lsl r1
 324:	0000011c 	andeq	r0, r0, ip, lsl r1
 328:	8b040e42 	blhi	103c38 <GUEST_OFFSET-0x7fefc3c8>
 32c:	0b0d4201 	bleq	350b38 <GUEST_OFFSET-0x7fcaf4c8>
 330:	00000014 	andeq	r0, r0, r4, lsl r0
 334:	00000228 	andeq	r0, r0, r8, lsr #4
 338:	8000122c 	andhi	r1, r0, ip, lsr #4
 33c:	00000080 	andeq	r0, r0, r0, lsl #1
 340:	8b040e42 	blhi	103c50 <GUEST_OFFSET-0x7fefc3b0>
 344:	0b0d4201 	bleq	350b50 <GUEST_OFFSET-0x7fcaf4b0>
 348:	00000014 	andeq	r0, r0, r4, lsl r0
 34c:	00000228 	andeq	r0, r0, r8, lsr #4
 350:	800012ac 	andhi	r1, r0, ip, lsr #5
 354:	0000008c 	andeq	r0, r0, ip, lsl #1
 358:	8b040e42 	blhi	103c68 <GUEST_OFFSET-0x7fefc398>
 35c:	0b0d4201 	bleq	350b68 <GUEST_OFFSET-0x7fcaf498>
 360:	00000014 	andeq	r0, r0, r4, lsl r0
 364:	00000228 	andeq	r0, r0, r8, lsr #4
 368:	80001338 	andhi	r1, r0, r8, lsr r3
 36c:	00000194 	muleq	r0, r4, r1
 370:	8b040e42 	blhi	103c80 <GUEST_OFFSET-0x7fefc380>
 374:	0b0d4201 	bleq	350b80 <GUEST_OFFSET-0x7fcaf480>
 378:	00000014 	andeq	r0, r0, r4, lsl r0
 37c:	00000228 	andeq	r0, r0, r8, lsr #4
 380:	800014cc 	andhi	r1, r0, ip, asr #9
 384:	00000100 	andeq	r0, r0, r0, lsl #2
 388:	8b040e42 	blhi	103c98 <GUEST_OFFSET-0x7fefc368>
 38c:	0b0d4201 	bleq	350b98 <GUEST_OFFSET-0x7fcaf468>
 390:	00000014 	andeq	r0, r0, r4, lsl r0
 394:	00000228 	andeq	r0, r0, r8, lsr #4
 398:	800015cc 	andhi	r1, r0, ip, asr #11
 39c:	00000090 	muleq	r0, r0, r0
 3a0:	8b040e42 	blhi	103cb0 <GUEST_OFFSET-0x7fefc350>
 3a4:	0b0d4201 	bleq	350bb0 <GUEST_OFFSET-0x7fcaf450>
 3a8:	00000014 	andeq	r0, r0, r4, lsl r0
 3ac:	00000228 	andeq	r0, r0, r8, lsr #4
 3b0:	8000165c 	andhi	r1, r0, ip, asr r6
 3b4:	000000e4 	andeq	r0, r0, r4, ror #1
 3b8:	8b040e42 	blhi	103cc8 <GUEST_OFFSET-0x7fefc338>
 3bc:	0b0d4201 	bleq	350bc8 <GUEST_OFFSET-0x7fcaf438>
 3c0:	0000000c 	andeq	r0, r0, ip
 3c4:	ffffffff 			; <UNDEFINED> instruction: 0xffffffff
 3c8:	7c020001 	stcvc	0, cr0, [r2], {1}
 3cc:	000d0c0e 	andeq	r0, sp, lr, lsl #24
 3d0:	00000014 	andeq	r0, r0, r4, lsl r0
 3d4:	000003c0 	andeq	r0, r0, r0, asr #7
 3d8:	80001820 	andhi	r1, r0, r0, lsr #16
 3dc:	00000014 	andeq	r0, r0, r4, lsl r0
 3e0:	8b040e42 	blhi	103cf0 <GUEST_OFFSET-0x7fefc310>
 3e4:	0b0d4201 	bleq	350bf0 <GUEST_OFFSET-0x7fcaf410>
 3e8:	00000014 	andeq	r0, r0, r4, lsl r0
 3ec:	000003c0 	andeq	r0, r0, r0, asr #7
 3f0:	80001834 	andhi	r1, r0, r4, lsr r8
 3f4:	00000058 	andeq	r0, r0, r8, asr r0
 3f8:	8b040e42 	blhi	103d08 <GUEST_OFFSET-0x7fefc2f8>
 3fc:	0b0d4201 	bleq	350c08 <GUEST_OFFSET-0x7fcaf3f8>
 400:	00000014 	andeq	r0, r0, r4, lsl r0
 404:	000003c0 	andeq	r0, r0, r0, asr #7
 408:	8000188c 	andhi	r1, r0, ip, lsl #17
 40c:	00000038 	andeq	r0, r0, r8, lsr r0
 410:	8b040e42 	blhi	103d20 <GUEST_OFFSET-0x7fefc2e0>
 414:	0b0d4201 	bleq	350c20 <GUEST_OFFSET-0x7fcaf3e0>
 418:	00000018 	andeq	r0, r0, r8, lsl r0
 41c:	000003c0 	andeq	r0, r0, r0, asr #7
 420:	800018c4 	andhi	r1, r0, r4, asr #17
 424:	000000a4 	andeq	r0, r0, r4, lsr #1
 428:	8b080e42 	blhi	203d38 <GUEST_OFFSET-0x7fdfc2c8>
 42c:	42018e02 	andmi	r8, r1, #2, 28
 430:	00040b0c 	andeq	r0, r4, ip, lsl #22
 434:	0000000c 	andeq	r0, r0, ip
 438:	ffffffff 			; <UNDEFINED> instruction: 0xffffffff
 43c:	7c020001 	stcvc	0, cr0, [r2], {1}
 440:	000d0c0e 	andeq	r0, sp, lr, lsl #24
 444:	00000014 	andeq	r0, r0, r4, lsl r0
 448:	00000434 	andeq	r0, r0, r4, lsr r4
 44c:	80001968 	andhi	r1, r0, r8, ror #18
 450:	0000002c 	andeq	r0, r0, ip, lsr #32
 454:	8b040e42 	blhi	103d64 <GUEST_OFFSET-0x7fefc29c>
 458:	0b0d4201 	bleq	350c64 <GUEST_OFFSET-0x7fcaf39c>
 45c:	00000018 	andeq	r0, r0, r8, lsl r0
 460:	00000434 	andeq	r0, r0, r4, lsr r4
 464:	80001994 	mulhi	r0, r4, r9
 468:	0000005c 	andeq	r0, r0, ip, asr r0
 46c:	8b080e42 	blhi	203d7c <GUEST_OFFSET-0x7fdfc284>
 470:	42018e02 	andmi	r8, r1, #2, 28
 474:	00040b0c 	andeq	r0, r4, ip, lsl #22
 478:	00000014 	andeq	r0, r0, r4, lsl r0
 47c:	00000434 	andeq	r0, r0, r4, lsr r4
 480:	800019f0 	strdhi	r1, [r0], -r0
 484:	00000048 	andeq	r0, r0, r8, asr #32
 488:	8b040e42 	blhi	103d98 <GUEST_OFFSET-0x7fefc268>
 48c:	0b0d4201 	bleq	350c98 <GUEST_OFFSET-0x7fcaf368>
 490:	00000018 	andeq	r0, r0, r8, lsl r0
 494:	00000434 	andeq	r0, r0, r4, lsr r4
 498:	80001a38 	andhi	r1, r0, r8, lsr sl
 49c:	00000030 	andeq	r0, r0, r0, lsr r0
 4a0:	8b080e42 	blhi	203db0 <GUEST_OFFSET-0x7fdfc250>
 4a4:	42018e02 	andmi	r8, r1, #2, 28
 4a8:	00040b0c 	andeq	r0, r4, ip, lsl #22
 4ac:	00000014 	andeq	r0, r0, r4, lsl r0
 4b0:	00000434 	andeq	r0, r0, r4, lsr r4
 4b4:	80001a68 	andhi	r1, r0, r8, ror #20
 4b8:	0000002c 	andeq	r0, r0, ip, lsr #32
 4bc:	8b040e42 	blhi	103dcc <GUEST_OFFSET-0x7fefc234>
 4c0:	0b0d4201 	bleq	350ccc <GUEST_OFFSET-0x7fcaf334>
 4c4:	00000014 	andeq	r0, r0, r4, lsl r0
 4c8:	00000434 	andeq	r0, r0, r4, lsr r4
 4cc:	80001a94 	mulhi	r0, r4, sl
 4d0:	00000048 	andeq	r0, r0, r8, asr #32
 4d4:	8b040e42 	blhi	103de4 <GUEST_OFFSET-0x7fefc21c>
 4d8:	0b0d4201 	bleq	350ce4 <GUEST_OFFSET-0x7fcaf31c>
 4dc:	00000014 	andeq	r0, r0, r4, lsl r0
 4e0:	00000434 	andeq	r0, r0, r4, lsr r4
 4e4:	80001adc 	ldrdhi	r1, [r0], -ip
 4e8:	0000002c 	andeq	r0, r0, ip, lsr #32
 4ec:	8b040e42 	blhi	103dfc <GUEST_OFFSET-0x7fefc204>
 4f0:	0b0d4201 	bleq	350cfc <GUEST_OFFSET-0x7fcaf304>
 4f4:	00000014 	andeq	r0, r0, r4, lsl r0
 4f8:	00000434 	andeq	r0, r0, r4, lsr r4
 4fc:	80001b08 	andhi	r1, r0, r8, lsl #22
 500:	0000002c 	andeq	r0, r0, ip, lsr #32
 504:	8b040e42 	blhi	103e14 <GUEST_OFFSET-0x7fefc1ec>
 508:	0b0d4201 	bleq	350d14 <GUEST_OFFSET-0x7fcaf2ec>
 50c:	00000018 	andeq	r0, r0, r8, lsl r0
 510:	00000434 	andeq	r0, r0, r4, lsr r4
 514:	80001b34 	andhi	r1, r0, r4, lsr fp
 518:	00000074 	andeq	r0, r0, r4, ror r0
 51c:	8b080e42 	blhi	203e2c <GUEST_OFFSET-0x7fdfc1d4>
 520:	42018e02 	andmi	r8, r1, #2, 28
 524:	00040b0c 	andeq	r0, r4, ip, lsl #22
 528:	00000018 	andeq	r0, r0, r8, lsl r0
 52c:	00000434 	andeq	r0, r0, r4, lsr r4
 530:	80001ba8 	andhi	r1, r0, r8, lsr #23
 534:	00000044 	andeq	r0, r0, r4, asr #32
 538:	8b080e42 	blhi	203e48 <GUEST_OFFSET-0x7fdfc1b8>
 53c:	42018e02 	andmi	r8, r1, #2, 28
 540:	00040b0c 	andeq	r0, r4, ip, lsl #22

bmguest.axf:     file format elf32-littlearm


Disassembly of section .text:

80000000 <guest_start>:
80000000:	ea0005ce 	b	80001740 <common_guest_entry>

80000004 <main>:
80000004:	e92d4800 	push	{fp, lr}
80000008:	e28db004 	add	fp, sp, #4
8000000c:	e3010bec 	movw	r0, #7148	; 0x1bec
80000010:	e3480000 	movt	r0, #32768	; 0x8000
80000014:	eb000606 	bl	80001834 <uart_print>
80000018:	e3010bf8 	movw	r0, #7160	; 0x1bf8
8000001c:	e3480000 	movt	r0, #32768	; 0x8000
80000020:	eb000603 	bl	80001834 <uart_print>
80000024:	eafffffe 	b	80000024 <main+0x20>

80000028 <nrm_delay>:
80000028:	e52db004 	push	{fp}		; (str fp, [sp, #-4]!)
8000002c:	e28db000 	add	fp, sp, #0
80000030:	e24dd00c 	sub	sp, sp, #12
80000034:	e3a03000 	mov	r3, #0
80000038:	e50b3008 	str	r3, [fp, #-8]
8000003c:	e3a03000 	mov	r3, #0
80000040:	e50b3008 	str	r3, [fp, #-8]
80000044:	ea000002 	b	80000054 <nrm_delay+0x2c>
80000048:	e51b3008 	ldr	r3, [fp, #-8]
8000004c:	e2833001 	add	r3, r3, #1
80000050:	e50b3008 	str	r3, [fp, #-8]
80000054:	e51b2008 	ldr	r2, [fp, #-8]
80000058:	e30f3ffe 	movw	r3, #65534	; 0xfffe
8000005c:	e1520003 	cmp	r2, r3
80000060:	dafffff8 	ble	80000048 <nrm_delay+0x20>
80000064:	e28bd000 	add	sp, fp, #0
80000068:	e8bd0800 	ldmfd	sp!, {fp}
8000006c:	e12fff1e 	bx	lr

80000070 <nrm_loop>:
80000070:	e92d4800 	push	{fp, lr}
80000074:	e28db004 	add	fp, sp, #4
80000078:	e24dd008 	sub	sp, sp, #8
8000007c:	e3a03000 	mov	r3, #0
80000080:	e50b3008 	str	r3, [fp, #-8]
80000084:	eb0005e5 	bl	80001820 <uart_init>
80000088:	e3010c18 	movw	r0, #7192	; 0x1c18
8000008c:	e3480000 	movt	r0, #32768	; 0x8000
80000090:	eb0005e7 	bl	80001834 <uart_print>
80000094:	e3010c24 	movw	r0, #7204	; 0x1c24
80000098:	e3480000 	movt	r0, #32768	; 0x8000
8000009c:	eb0005e4 	bl	80001834 <uart_print>
800000a0:	eb0001d4 	bl	800007f8 <gic_init>
800000a4:	e3a00000 	mov	r0, #0
800000a8:	eb0002d9 	bl	80000c14 <vtimer_mask>
800000ac:	f1080080 	cpsie	i
800000b0:	e3a03000 	mov	r3, #0
800000b4:	e50b3008 	str	r3, [fp, #-8]
800000b8:	ea00002f 	b	8000017c <nrm_loop+0x10c>
800000bc:	e3010c18 	movw	r0, #7192	; 0x1c18
800000c0:	e3480000 	movt	r0, #32768	; 0x8000
800000c4:	eb0005da 	bl	80001834 <uart_print>
800000c8:	e3010c44 	movw	r0, #7236	; 0x1c44
800000cc:	e3480000 	movt	r0, #32768	; 0x8000
800000d0:	eb0005d7 	bl	80001834 <uart_print>
800000d4:	e51b3008 	ldr	r3, [fp, #-8]
800000d8:	e1a00003 	mov	r0, r3
800000dc:	eb0005f8 	bl	800018c4 <uart_print_hex32>
800000e0:	e3010c50 	movw	r0, #7248	; 0x1c50
800000e4:	e3480000 	movt	r0, #32768	; 0x8000
800000e8:	eb0005d1 	bl	80001834 <uart_print>
800000ec:	ebffffcd 	bl	80000028 <nrm_delay>
800000f0:	e51b3008 	ldr	r3, [fp, #-8]
800000f4:	e2033001 	and	r3, r3, #1
800000f8:	e3530000 	cmp	r3, #0
800000fc:	0a00000d 	beq	80000138 <nrm_loop+0xc8>
80000100:	e3010c18 	movw	r0, #7192	; 0x1c18
80000104:	e3480000 	movt	r0, #32768	; 0x8000
80000108:	eb0005c9 	bl	80001834 <uart_print>
8000010c:	e3010c54 	movw	r0, #7252	; 0x1c54
80000110:	e3480000 	movt	r0, #32768	; 0x8000
80000114:	eb0005c6 	bl	80001834 <uart_print>
80000118:	e14fff7e 	hvc	65534	; 0xfffe
8000011c:	e3010c18 	movw	r0, #7192	; 0x1c18
80000120:	e3480000 	movt	r0, #32768	; 0x8000
80000124:	eb0005c2 	bl	80001834 <uart_print>
80000128:	e3010c64 	movw	r0, #7268	; 0x1c64
8000012c:	e3480000 	movt	r0, #32768	; 0x8000
80000130:	eb0005bf 	bl	80001834 <uart_print>
80000134:	ea00000c 	b	8000016c <nrm_loop+0xfc>
80000138:	e3010c18 	movw	r0, #7192	; 0x1c18
8000013c:	e3480000 	movt	r0, #32768	; 0x8000
80000140:	eb0005bb 	bl	80001834 <uart_print>
80000144:	e3010c80 	movw	r0, #7296	; 0x1c80
80000148:	e3480000 	movt	r0, #32768	; 0x8000
8000014c:	eb0005b8 	bl	80001834 <uart_print>
80000150:	e14fff7d 	hvc	65533	; 0xfffd
80000154:	e3010c18 	movw	r0, #7192	; 0x1c18
80000158:	e3480000 	movt	r0, #32768	; 0x8000
8000015c:	eb0005b4 	bl	80001834 <uart_print>
80000160:	e3010c90 	movw	r0, #7312	; 0x1c90
80000164:	e3480000 	movt	r0, #32768	; 0x8000
80000168:	eb0005b1 	bl	80001834 <uart_print>
8000016c:	ebffffad 	bl	80000028 <nrm_delay>
80000170:	e51b3008 	ldr	r3, [fp, #-8]
80000174:	e2833001 	add	r3, r3, #1
80000178:	e50b3008 	str	r3, [fp, #-8]
8000017c:	e51b2008 	ldr	r2, [fp, #-8]
80000180:	e300312b 	movw	r3, #299	; 0x12b
80000184:	e1520003 	cmp	r2, r3
80000188:	daffffcb 	ble	800000bc <nrm_loop+0x4c>
8000018c:	e3010c18 	movw	r0, #7192	; 0x1c18
80000190:	e3480000 	movt	r0, #32768	; 0x8000
80000194:	eb0005a6 	bl	80001834 <uart_print>
80000198:	e3010cb0 	movw	r0, #7344	; 0x1cb0
8000019c:	e3480000 	movt	r0, #32768	; 0x8000
800001a0:	eb0005a3 	bl	80001834 <uart_print>
800001a4:	e3010cc8 	movw	r0, #7368	; 0x1cc8
800001a8:	e3480000 	movt	r0, #32768	; 0x8000
800001ac:	eb0005a0 	bl	80001834 <uart_print>
800001b0:	ebffff93 	bl	80000004 <main>
800001b4:	e24bd004 	sub	sp, fp, #4
800001b8:	e8bd8800 	pop	{fp, pc}

800001bc <_except_unhandled>:
800001bc:	e52db004 	push	{fp}		; (str fp, [sp, #-4]!)
800001c0:	e28db000 	add	fp, sp, #0
800001c4:	e24dd00c 	sub	sp, sp, #12
800001c8:	e50b0008 	str	r0, [fp, #-8]
800001cc:	e28bd000 	add	sp, fp, #0
800001d0:	e8bd0800 	ldmfd	sp!, {fp}
800001d4:	e12fff1e 	bx	lr

800001d8 <_except_svc>:
800001d8:	e52db004 	push	{fp}		; (str fp, [sp, #-4]!)
800001dc:	e28db000 	add	fp, sp, #0
800001e0:	e24dd00c 	sub	sp, sp, #12
800001e4:	e50b0008 	str	r0, [fp, #-8]
800001e8:	e28bd000 	add	sp, fp, #0
800001ec:	e8bd0800 	ldmfd	sp!, {fp}
800001f0:	e12fff1e 	bx	lr

800001f4 <_except_irq>:
800001f4:	e92d4800 	push	{fp, lr}
800001f8:	e28db004 	add	fp, sp, #4
800001fc:	e24dd008 	sub	sp, sp, #8
80000200:	e50b0008 	str	r0, [fp, #-8]
80000204:	e3a00000 	mov	r0, #0
80000208:	e51b1008 	ldr	r1, [fp, #-8]
8000020c:	eb0001cc 	bl	80000944 <gic_interrupt>
80000210:	e24bd004 	sub	sp, fp, #4
80000214:	e8bd8800 	pop	{fp, pc}

80000218 <smp_processor_id>:
80000218:	e92d0810 	push	{r4, fp}
8000021c:	e28db004 	add	fp, sp, #4
80000220:	e24dd008 	sub	sp, sp, #8
80000224:	ee104fb0 	mrc	15, 0, r4, cr0, cr0, {5}
80000228:	e50b4008 	str	r4, [fp, #-8]
8000022c:	e51b3008 	ldr	r3, [fp, #-8]
80000230:	e6ef3073 	uxtb	r3, r3
80000234:	e1a00003 	mov	r0, r3
80000238:	e24bd004 	sub	sp, fp, #4
8000023c:	e8bd0810 	pop	{r4, fp}
80000240:	e12fff1e 	bx	lr

80000244 <gic_test_vdev_access>:
80000244:	e92d4800 	push	{fp, lr}
80000248:	e28db004 	add	fp, sp, #4
8000024c:	e24dd008 	sub	sp, sp, #8
80000250:	e3013e6c 	movw	r3, #7788	; 0x1e6c
80000254:	e3483000 	movt	r3, #32768	; 0x8000
80000258:	e5933004 	ldr	r3, [r3, #4]
8000025c:	e2833f41 	add	r3, r3, #260	; 0x104
80000260:	e3a02002 	mov	r2, #2
80000264:	e5832000 	str	r2, [r3]
80000268:	e3013e6c 	movw	r3, #7788	; 0x1e6c
8000026c:	e3483000 	movt	r3, #32768	; 0x8000
80000270:	e5933004 	ldr	r3, [r3, #4]
80000274:	e2833f61 	add	r3, r3, #388	; 0x184
80000278:	e3a02002 	mov	r2, #2
8000027c:	e5832000 	str	r2, [r3]
80000280:	e3013e6c 	movw	r3, #7788	; 0x1e6c
80000284:	e3483000 	movt	r3, #32768	; 0x8000
80000288:	e5933004 	ldr	r3, [r3, #4]
8000028c:	e2833c01 	add	r3, r3, #256	; 0x100
80000290:	e3a02002 	mov	r2, #2
80000294:	e5832000 	str	r2, [r3]
80000298:	e3013e6c 	movw	r3, #7788	; 0x1e6c
8000029c:	e3483000 	movt	r3, #32768	; 0x8000
800002a0:	e5933004 	ldr	r3, [r3, #4]
800002a4:	e2833d06 	add	r3, r3, #384	; 0x180
800002a8:	e3a02002 	mov	r2, #2
800002ac:	e5832000 	str	r2, [r3]
800002b0:	e3013e6c 	movw	r3, #7788	; 0x1e6c
800002b4:	e3483000 	movt	r3, #32768	; 0x8000
800002b8:	e5933004 	ldr	r3, [r3, #4]
800002bc:	e2833c01 	add	r3, r3, #256	; 0x100
800002c0:	e3a02102 	mov	r2, #-2147483648	; 0x80000000
800002c4:	e5832000 	str	r2, [r3]
800002c8:	e3013e6c 	movw	r3, #7788	; 0x1e6c
800002cc:	e3483000 	movt	r3, #32768	; 0x8000
800002d0:	e5933004 	ldr	r3, [r3, #4]
800002d4:	e2833d06 	add	r3, r3, #384	; 0x180
800002d8:	e3a02102 	mov	r2, #-2147483648	; 0x80000000
800002dc:	e5832000 	str	r2, [r3]
800002e0:	e3013e6c 	movw	r3, #7788	; 0x1e6c
800002e4:	e3483000 	movt	r3, #32768	; 0x8000
800002e8:	e5933004 	ldr	r3, [r3, #4]
800002ec:	e2833c01 	add	r3, r3, #256	; 0x100
800002f0:	e50b3008 	str	r3, [fp, #-8]
800002f4:	e51b3008 	ldr	r3, [fp, #-8]
800002f8:	e2833002 	add	r3, r3, #2
800002fc:	e3a0200f 	mov	r2, #15
80000300:	e5c32000 	strb	r2, [r3]
80000304:	e3013e6c 	movw	r3, #7788	; 0x1e6c
80000308:	e3483000 	movt	r3, #32768	; 0x8000
8000030c:	e5933004 	ldr	r3, [r3, #4]
80000310:	e2833c01 	add	r3, r3, #256	; 0x100
80000314:	e5933000 	ldr	r3, [r3]
80000318:	e1a00003 	mov	r0, r3
8000031c:	eb000568 	bl	800018c4 <uart_print_hex32>
80000320:	e3010d00 	movw	r0, #7424	; 0x1d00
80000324:	e3480000 	movt	r0, #32768	; 0x8000
80000328:	eb000541 	bl	80001834 <uart_print>
8000032c:	e3013e6c 	movw	r3, #7788	; 0x1e6c
80000330:	e3483000 	movt	r3, #32768	; 0x8000
80000334:	e5933004 	ldr	r3, [r3, #4]
80000338:	e2833d06 	add	r3, r3, #384	; 0x180
8000033c:	e50b3008 	str	r3, [fp, #-8]
80000340:	e51b3008 	ldr	r3, [fp, #-8]
80000344:	e2833002 	add	r3, r3, #2
80000348:	e3a0200f 	mov	r2, #15
8000034c:	e5c32000 	strb	r2, [r3]
80000350:	e3013e6c 	movw	r3, #7788	; 0x1e6c
80000354:	e3483000 	movt	r3, #32768	; 0x8000
80000358:	e5933004 	ldr	r3, [r3, #4]
8000035c:	e2833c01 	add	r3, r3, #256	; 0x100
80000360:	e5933000 	ldr	r3, [r3]
80000364:	e1a00003 	mov	r0, r3
80000368:	eb000555 	bl	800018c4 <uart_print_hex32>
8000036c:	e3010d00 	movw	r0, #7424	; 0x1d00
80000370:	e3480000 	movt	r0, #32768	; 0x8000
80000374:	eb00052e 	bl	80001834 <uart_print>
80000378:	e24bd004 	sub	sp, fp, #4
8000037c:	e8bd8800 	pop	{fp, pc}

80000380 <gic_dump_registers>:
80000380:	e92d4810 	push	{r4, fp, lr}
80000384:	e28db008 	add	fp, sp, #8
80000388:	e24dd00c 	sub	sp, sp, #12
8000038c:	ee104f10 	mrc	15, 0, r4, cr0, cr0, {0}
80000390:	e50b4010 	str	r4, [fp, #-16]
80000394:	e51b3010 	ldr	r3, [fp, #-16]
80000398:	e50b3014 	str	r3, [fp, #-20]
8000039c:	e3010d04 	movw	r0, #7428	; 0x1d04
800003a0:	e3480000 	movt	r0, #32768	; 0x8000
800003a4:	eb000522 	bl	80001834 <uart_print>
800003a8:	e51b0014 	ldr	r0, [fp, #-20]
800003ac:	eb000544 	bl	800018c4 <uart_print_hex32>
800003b0:	e3010d00 	movw	r0, #7424	; 0x1d00
800003b4:	e3480000 	movt	r0, #32768	; 0x8000
800003b8:	eb00051d 	bl	80001834 <uart_print>
800003bc:	e51b2014 	ldr	r2, [fp, #-20]
800003c0:	e30f3ff0 	movw	r3, #65520	; 0xfff0
800003c4:	e0023003 	and	r3, r2, r3
800003c8:	e30c20f0 	movw	r2, #49392	; 0xc0f0
800003cc:	e1530002 	cmp	r3, r2
800003d0:	1a00007b 	bne	800005c4 <gic_dump_registers+0x244>
800003d4:	e3010d0c 	movw	r0, #7436	; 0x1d0c
800003d8:	e3480000 	movt	r0, #32768	; 0x8000
800003dc:	eb000514 	bl	80001834 <uart_print>
800003e0:	e3013e6c 	movw	r3, #7788	; 0x1e6c
800003e4:	e3483000 	movt	r3, #32768	; 0x8000
800003e8:	e5933000 	ldr	r3, [r3]
800003ec:	e1a00003 	mov	r0, r3
800003f0:	eb000533 	bl	800018c4 <uart_print_hex32>
800003f4:	e3010d00 	movw	r0, #7424	; 0x1d00
800003f8:	e3480000 	movt	r0, #32768	; 0x8000
800003fc:	eb00050c 	bl	80001834 <uart_print>
80000400:	e3010d1c 	movw	r0, #7452	; 0x1d1c
80000404:	e3480000 	movt	r0, #32768	; 0x8000
80000408:	eb000509 	bl	80001834 <uart_print>
8000040c:	e3013e6c 	movw	r3, #7788	; 0x1e6c
80000410:	e3483000 	movt	r3, #32768	; 0x8000
80000414:	e5933004 	ldr	r3, [r3, #4]
80000418:	e1a00003 	mov	r0, r3
8000041c:	eb000528 	bl	800018c4 <uart_print_hex32>
80000420:	e3010d00 	movw	r0, #7424	; 0x1d00
80000424:	e3480000 	movt	r0, #32768	; 0x8000
80000428:	eb000501 	bl	80001834 <uart_print>
8000042c:	e3010d28 	movw	r0, #7464	; 0x1d28
80000430:	e3480000 	movt	r0, #32768	; 0x8000
80000434:	eb0004fe 	bl	80001834 <uart_print>
80000438:	e3013e6c 	movw	r3, #7788	; 0x1e6c
8000043c:	e3483000 	movt	r3, #32768	; 0x8000
80000440:	e5933004 	ldr	r3, [r3, #4]
80000444:	e2833004 	add	r3, r3, #4
80000448:	e5933000 	ldr	r3, [r3]
8000044c:	e1a00003 	mov	r0, r3
80000450:	eb00051b 	bl	800018c4 <uart_print_hex32>
80000454:	e3010d00 	movw	r0, #7424	; 0x1d00
80000458:	e3480000 	movt	r0, #32768	; 0x8000
8000045c:	eb0004f4 	bl	80001834 <uart_print>
80000460:	e3010d34 	movw	r0, #7476	; 0x1d34
80000464:	e3480000 	movt	r0, #32768	; 0x8000
80000468:	eb0004f1 	bl	80001834 <uart_print>
8000046c:	e3013e6c 	movw	r3, #7788	; 0x1e6c
80000470:	e3483000 	movt	r3, #32768	; 0x8000
80000474:	e5933008 	ldr	r3, [r3, #8]
80000478:	e1a00003 	mov	r0, r3
8000047c:	eb000510 	bl	800018c4 <uart_print_hex32>
80000480:	e3010d00 	movw	r0, #7424	; 0x1d00
80000484:	e3480000 	movt	r0, #32768	; 0x8000
80000488:	eb0004e9 	bl	80001834 <uart_print>
8000048c:	e3010d40 	movw	r0, #7488	; 0x1d40
80000490:	e3480000 	movt	r0, #32768	; 0x8000
80000494:	eb0004e6 	bl	80001834 <uart_print>
80000498:	e3013e6c 	movw	r3, #7788	; 0x1e6c
8000049c:	e3483000 	movt	r3, #32768	; 0x8000
800004a0:	e5933008 	ldr	r3, [r3, #8]
800004a4:	e5933000 	ldr	r3, [r3]
800004a8:	e1a00003 	mov	r0, r3
800004ac:	eb000504 	bl	800018c4 <uart_print_hex32>
800004b0:	e3010d00 	movw	r0, #7424	; 0x1d00
800004b4:	e3480000 	movt	r0, #32768	; 0x8000
800004b8:	eb0004dd 	bl	80001834 <uart_print>
800004bc:	e3010d4c 	movw	r0, #7500	; 0x1d4c
800004c0:	e3480000 	movt	r0, #32768	; 0x8000
800004c4:	eb0004da 	bl	80001834 <uart_print>
800004c8:	e3013e6c 	movw	r3, #7788	; 0x1e6c
800004cc:	e3483000 	movt	r3, #32768	; 0x8000
800004d0:	e5933008 	ldr	r3, [r3, #8]
800004d4:	e2833004 	add	r3, r3, #4
800004d8:	e5933000 	ldr	r3, [r3]
800004dc:	e1a00003 	mov	r0, r3
800004e0:	eb0004f7 	bl	800018c4 <uart_print_hex32>
800004e4:	e3010d00 	movw	r0, #7424	; 0x1d00
800004e8:	e3480000 	movt	r0, #32768	; 0x8000
800004ec:	eb0004d0 	bl	80001834 <uart_print>
800004f0:	e3010d58 	movw	r0, #7512	; 0x1d58
800004f4:	e3480000 	movt	r0, #32768	; 0x8000
800004f8:	eb0004cd 	bl	80001834 <uart_print>
800004fc:	e3013e6c 	movw	r3, #7788	; 0x1e6c
80000500:	e3483000 	movt	r3, #32768	; 0x8000
80000504:	e5933008 	ldr	r3, [r3, #8]
80000508:	e2833008 	add	r3, r3, #8
8000050c:	e5933000 	ldr	r3, [r3]
80000510:	e1a00003 	mov	r0, r3
80000514:	eb0004ea 	bl	800018c4 <uart_print_hex32>
80000518:	e3010d00 	movw	r0, #7424	; 0x1d00
8000051c:	e3480000 	movt	r0, #32768	; 0x8000
80000520:	eb0004c3 	bl	80001834 <uart_print>
80000524:	e3010d64 	movw	r0, #7524	; 0x1d64
80000528:	e3480000 	movt	r0, #32768	; 0x8000
8000052c:	eb0004c0 	bl	80001834 <uart_print>
80000530:	e3013e6c 	movw	r3, #7788	; 0x1e6c
80000534:	e3483000 	movt	r3, #32768	; 0x8000
80000538:	e5933008 	ldr	r3, [r3, #8]
8000053c:	e2833014 	add	r3, r3, #20
80000540:	e5933000 	ldr	r3, [r3]
80000544:	e1a00003 	mov	r0, r3
80000548:	eb0004dd 	bl	800018c4 <uart_print_hex32>
8000054c:	e3010d00 	movw	r0, #7424	; 0x1d00
80000550:	e3480000 	movt	r0, #32768	; 0x8000
80000554:	eb0004b6 	bl	80001834 <uart_print>
80000558:	e3010d70 	movw	r0, #7536	; 0x1d70
8000055c:	e3480000 	movt	r0, #32768	; 0x8000
80000560:	eb0004b3 	bl	80001834 <uart_print>
80000564:	e3013e6c 	movw	r3, #7788	; 0x1e6c
80000568:	e3483000 	movt	r3, #32768	; 0x8000
8000056c:	e5933008 	ldr	r3, [r3, #8]
80000570:	e2833018 	add	r3, r3, #24
80000574:	e5933000 	ldr	r3, [r3]
80000578:	e1a00003 	mov	r0, r3
8000057c:	eb0004d0 	bl	800018c4 <uart_print_hex32>
80000580:	e3010d00 	movw	r0, #7424	; 0x1d00
80000584:	e3480000 	movt	r0, #32768	; 0x8000
80000588:	eb0004a9 	bl	80001834 <uart_print>
8000058c:	e3010d7c 	movw	r0, #7548	; 0x1d7c
80000590:	e3480000 	movt	r0, #32768	; 0x8000
80000594:	eb0004a6 	bl	80001834 <uart_print>
80000598:	e3013e6c 	movw	r3, #7788	; 0x1e6c
8000059c:	e3483000 	movt	r3, #32768	; 0x8000
800005a0:	e5933008 	ldr	r3, [r3, #8]
800005a4:	e28330fc 	add	r3, r3, #252	; 0xfc
800005a8:	e5933000 	ldr	r3, [r3]
800005ac:	e1a00003 	mov	r0, r3
800005b0:	eb0004c3 	bl	800018c4 <uart_print_hex32>
800005b4:	e3010d00 	movw	r0, #7424	; 0x1d00
800005b8:	e3480000 	movt	r0, #32768	; 0x8000
800005bc:	eb00049c 	bl	80001834 <uart_print>
800005c0:	ebffff1f 	bl	80000244 <gic_test_vdev_access>
800005c4:	e24bd008 	sub	sp, fp, #8
800005c8:	e8bd8810 	pop	{r4, fp, pc}

800005cc <gic_init_baseaddr>:
800005cc:	e92d4810 	push	{r4, fp, lr}
800005d0:	e28db008 	add	fp, sp, #8
800005d4:	e24dd01c 	sub	sp, sp, #28
800005d8:	e50b0020 	str	r0, [fp, #-32]
800005dc:	e3e03000 	mvn	r3, #0
800005e0:	e50b3010 	str	r3, [fp, #-16]
800005e4:	ee104f10 	mrc	15, 0, r4, cr0, cr0, {0}
800005e8:	e50b4014 	str	r4, [fp, #-20]
800005ec:	e51b3014 	ldr	r3, [fp, #-20]
800005f0:	e50b3018 	str	r3, [fp, #-24]
800005f4:	e3010d04 	movw	r0, #7428	; 0x1d04
800005f8:	e3480000 	movt	r0, #32768	; 0x8000
800005fc:	eb00048c 	bl	80001834 <uart_print>
80000600:	e51b0018 	ldr	r0, [fp, #-24]
80000604:	eb0004ae 	bl	800018c4 <uart_print_hex32>
80000608:	e3010d00 	movw	r0, #7424	; 0x1d00
8000060c:	e3480000 	movt	r0, #32768	; 0x8000
80000610:	eb000487 	bl	80001834 <uart_print>
80000614:	e51b2018 	ldr	r2, [fp, #-24]
80000618:	e30f3ff0 	movw	r3, #65520	; 0xfff0
8000061c:	e0023003 	and	r3, r2, r3
80000620:	e30c20f0 	movw	r2, #49392	; 0xc0f0
80000624:	e1530002 	cmp	r3, r2
80000628:	1a000016 	bne	80000688 <gic_init_baseaddr+0xbc>
8000062c:	e51b2020 	ldr	r2, [fp, #-32]
80000630:	e3013e6c 	movw	r3, #7788	; 0x1e6c
80000634:	e3483000 	movt	r3, #32768	; 0x8000
80000638:	e5832000 	str	r2, [r3]
8000063c:	e3013e6c 	movw	r3, #7788	; 0x1e6c
80000640:	e3483000 	movt	r3, #32768	; 0x8000
80000644:	e5933000 	ldr	r3, [r3]
80000648:	e2833a01 	add	r3, r3, #4096	; 0x1000
8000064c:	e1a02003 	mov	r2, r3
80000650:	e3013e6c 	movw	r3, #7788	; 0x1e6c
80000654:	e3483000 	movt	r3, #32768	; 0x8000
80000658:	e5832004 	str	r2, [r3, #4]
8000065c:	e3013e6c 	movw	r3, #7788	; 0x1e6c
80000660:	e3483000 	movt	r3, #32768	; 0x8000
80000664:	e5933000 	ldr	r3, [r3]
80000668:	e2833a02 	add	r3, r3, #8192	; 0x2000
8000066c:	e1a02003 	mov	r2, r3
80000670:	e3013e6c 	movw	r3, #7788	; 0x1e6c
80000674:	e3483000 	movt	r3, #32768	; 0x8000
80000678:	e5832008 	str	r2, [r3, #8]
8000067c:	e3a03000 	mov	r3, #0
80000680:	e50b3010 	str	r3, [fp, #-16]
80000684:	ea00000f 	b	800006c8 <gic_init_baseaddr+0xfc>
80000688:	e3010d88 	movw	r0, #7560	; 0x1d88
8000068c:	e3480000 	movt	r0, #32768	; 0x8000
80000690:	eb000467 	bl	80001834 <uart_print>
80000694:	e3010d9c 	movw	r0, #7580	; 0x1d9c
80000698:	e3480000 	movt	r0, #32768	; 0x8000
8000069c:	eb000464 	bl	80001834 <uart_print>
800006a0:	e51b2018 	ldr	r2, [fp, #-24]
800006a4:	e30f3ff0 	movw	r3, #65520	; 0xfff0
800006a8:	e0023003 	and	r3, r2, r3
800006ac:	e1a00003 	mov	r0, r3
800006b0:	eb000483 	bl	800018c4 <uart_print_hex32>
800006b4:	e3010d00 	movw	r0, #7424	; 0x1d00
800006b8:	e3480000 	movt	r0, #32768	; 0x8000
800006bc:	eb00045c 	bl	80001834 <uart_print>
800006c0:	e3e03001 	mvn	r3, #1
800006c4:	e50b3010 	str	r3, [fp, #-16]
800006c8:	e51b3010 	ldr	r3, [fp, #-16]
800006cc:	e1a00003 	mov	r0, r3
800006d0:	e24bd008 	sub	sp, fp, #8
800006d4:	e8bd8810 	pop	{r4, fp, pc}

800006d8 <gic_enable_irq>:
800006d8:	e52db004 	push	{fp}		; (str fp, [sp, #-4]!)
800006dc:	e28db000 	add	fp, sp, #0
800006e0:	e24dd00c 	sub	sp, sp, #12
800006e4:	e50b0008 	str	r0, [fp, #-8]
800006e8:	e3013e6c 	movw	r3, #7788	; 0x1e6c
800006ec:	e3483000 	movt	r3, #32768	; 0x8000
800006f0:	e5932004 	ldr	r2, [r3, #4]
800006f4:	e51b3008 	ldr	r3, [fp, #-8]
800006f8:	e1a032a3 	lsr	r3, r3, #5
800006fc:	e2833040 	add	r3, r3, #64	; 0x40
80000700:	e1a03103 	lsl	r3, r3, #2
80000704:	e0823003 	add	r3, r2, r3
80000708:	e51b2008 	ldr	r2, [fp, #-8]
8000070c:	e202201f 	and	r2, r2, #31
80000710:	e3a01001 	mov	r1, #1
80000714:	e1a02211 	lsl	r2, r1, r2
80000718:	e5832000 	str	r2, [r3]
8000071c:	e3a03000 	mov	r3, #0
80000720:	e1a00003 	mov	r0, r3
80000724:	e28bd000 	add	sp, fp, #0
80000728:	e8bd0800 	ldmfd	sp!, {fp}
8000072c:	e12fff1e 	bx	lr

80000730 <gic_disable_irq>:
80000730:	e52db004 	push	{fp}		; (str fp, [sp, #-4]!)
80000734:	e28db000 	add	fp, sp, #0
80000738:	e24dd00c 	sub	sp, sp, #12
8000073c:	e50b0008 	str	r0, [fp, #-8]
80000740:	e3013e6c 	movw	r3, #7788	; 0x1e6c
80000744:	e3483000 	movt	r3, #32768	; 0x8000
80000748:	e5932004 	ldr	r2, [r3, #4]
8000074c:	e51b3008 	ldr	r3, [fp, #-8]
80000750:	e1a032a3 	lsr	r3, r3, #5
80000754:	e2833060 	add	r3, r3, #96	; 0x60
80000758:	e1a03103 	lsl	r3, r3, #2
8000075c:	e0823003 	add	r3, r2, r3
80000760:	e51b2008 	ldr	r2, [fp, #-8]
80000764:	e202201f 	and	r2, r2, #31
80000768:	e3a01001 	mov	r1, #1
8000076c:	e1a02211 	lsl	r2, r1, r2
80000770:	e5832000 	str	r2, [r3]
80000774:	e3a03000 	mov	r3, #0
80000778:	e1a00003 	mov	r0, r3
8000077c:	e28bd000 	add	sp, fp, #0
80000780:	e8bd0800 	ldmfd	sp!, {fp}
80000784:	e12fff1e 	bx	lr

80000788 <gic_set_irq_handler>:
80000788:	e52db004 	push	{fp}		; (str fp, [sp, #-4]!)
8000078c:	e28db000 	add	fp, sp, #0
80000790:	e24dd01c 	sub	sp, sp, #28
80000794:	e50b0010 	str	r0, [fp, #-16]
80000798:	e50b1014 	str	r1, [fp, #-20]
8000079c:	e50b2018 	str	r2, [fp, #-24]
800007a0:	e3e03002 	mvn	r3, #2
800007a4:	e50b3008 	str	r3, [fp, #-8]
800007a8:	e51b3010 	ldr	r3, [fp, #-16]
800007ac:	e3530065 	cmp	r3, #101	; 0x65
800007b0:	ca00000b 	bgt	800007e4 <gic_set_irq_handler+0x5c>
800007b4:	e3013e6c 	movw	r3, #7788	; 0x1e6c
800007b8:	e3483000 	movt	r3, #32768	; 0x8000
800007bc:	e51b2010 	ldr	r2, [fp, #-16]
800007c0:	e2821004 	add	r1, r2, #4
800007c4:	e3a02004 	mov	r2, #4
800007c8:	e1a01101 	lsl	r1, r1, #2
800007cc:	e0833001 	add	r3, r3, r1
800007d0:	e0833002 	add	r3, r3, r2
800007d4:	e51b2014 	ldr	r2, [fp, #-20]
800007d8:	e5832000 	str	r2, [r3]
800007dc:	e3a03000 	mov	r3, #0
800007e0:	e50b3008 	str	r3, [fp, #-8]
800007e4:	e51b3008 	ldr	r3, [fp, #-8]
800007e8:	e1a00003 	mov	r0, r3
800007ec:	e28bd000 	add	sp, fp, #0
800007f0:	e8bd0800 	ldmfd	sp!, {fp}
800007f4:	e12fff1e 	bx	lr

800007f8 <gic_init>:
800007f8:	e92d4800 	push	{fp, lr}
800007fc:	e28db004 	add	fp, sp, #4
80000800:	e24dd008 	sub	sp, sp, #8
80000804:	e3e03000 	mvn	r3, #0
80000808:	e50b300c 	str	r3, [fp, #-12]
8000080c:	e3a03000 	mov	r3, #0
80000810:	e50b3008 	str	r3, [fp, #-8]
80000814:	ea00000c 	b	8000084c <gic_init+0x54>
80000818:	e3013e6c 	movw	r3, #7788	; 0x1e6c
8000081c:	e3483000 	movt	r3, #32768	; 0x8000
80000820:	e51b2008 	ldr	r2, [fp, #-8]
80000824:	e2821004 	add	r1, r2, #4
80000828:	e3a02004 	mov	r2, #4
8000082c:	e1a01101 	lsl	r1, r1, #2
80000830:	e0833001 	add	r3, r3, r1
80000834:	e0833002 	add	r3, r3, r2
80000838:	e3a02000 	mov	r2, #0
8000083c:	e5832000 	str	r2, [r3]
80000840:	e51b3008 	ldr	r3, [fp, #-8]
80000844:	e2833001 	add	r3, r3, #1
80000848:	e50b3008 	str	r3, [fp, #-8]
8000084c:	e51b3008 	ldr	r3, [fp, #-8]
80000850:	e3530065 	cmp	r3, #101	; 0x65
80000854:	daffffef 	ble	80000818 <gic_init+0x20>
80000858:	e3a0030b 	mov	r0, #738197504	; 0x2c000000
8000085c:	ebffff5a 	bl	800005cc <gic_init_baseaddr>
80000860:	e50b000c 	str	r0, [fp, #-12]
80000864:	e3013e6c 	movw	r3, #7788	; 0x1e6c
80000868:	e3483000 	movt	r3, #32768	; 0x8000
8000086c:	e5932008 	ldr	r2, [r3, #8]
80000870:	e3013e6c 	movw	r3, #7788	; 0x1e6c
80000874:	e3483000 	movt	r3, #32768	; 0x8000
80000878:	e5933008 	ldr	r3, [r3, #8]
8000087c:	e5933000 	ldr	r3, [r3]
80000880:	e3833e21 	orr	r3, r3, #528	; 0x210
80000884:	e3833003 	orr	r3, r3, #3
80000888:	e5823000 	str	r3, [r2]
8000088c:	e3013e6c 	movw	r3, #7788	; 0x1e6c
80000890:	e3483000 	movt	r3, #32768	; 0x8000
80000894:	e5933008 	ldr	r3, [r3, #8]
80000898:	e2833004 	add	r3, r3, #4
8000089c:	e3a020ff 	mov	r2, #255	; 0xff
800008a0:	e5832000 	str	r2, [r3]
800008a4:	e51b300c 	ldr	r3, [fp, #-12]
800008a8:	e3530000 	cmp	r3, #0
800008ac:	1a000000 	bne	800008b4 <gic_init+0xbc>
800008b0:	ebfffeb2 	bl	80000380 <gic_dump_registers>
800008b4:	e3013e6c 	movw	r3, #7788	; 0x1e6c
800008b8:	e3483000 	movt	r3, #32768	; 0x8000
800008bc:	e30023fe 	movw	r2, #1022	; 0x3fe
800008c0:	e583200c 	str	r2, [r3, #12]
800008c4:	e3a03000 	mov	r3, #0
800008c8:	e50b300c 	str	r3, [fp, #-12]
800008cc:	e51b300c 	ldr	r3, [fp, #-12]
800008d0:	e3530000 	cmp	r3, #0
800008d4:	1a000004 	bne	800008ec <gic_init+0xf4>
800008d8:	e3013e6c 	movw	r3, #7788	; 0x1e6c
800008dc:	e3483000 	movt	r3, #32768	; 0x8000
800008e0:	e30e2ad7 	movw	r2, #60119	; 0xead7
800008e4:	e3452108 	movt	r2, #20744	; 0x5108
800008e8:	e58321ac 	str	r2, [r3, #428]	; 0x1ac
800008ec:	e3a03000 	mov	r3, #0
800008f0:	e50b3008 	str	r3, [fp, #-8]
800008f4:	ea00000b 	b	80000928 <gic_init+0x130>
800008f8:	e3013e6c 	movw	r3, #7788	; 0x1e6c
800008fc:	e3483000 	movt	r3, #32768	; 0x8000
80000900:	e5932004 	ldr	r2, [r3, #4]
80000904:	e51b3008 	ldr	r3, [fp, #-8]
80000908:	e2833060 	add	r3, r3, #96	; 0x60
8000090c:	e1a03103 	lsl	r3, r3, #2
80000910:	e0823003 	add	r3, r2, r3
80000914:	e3e02000 	mvn	r2, #0
80000918:	e5832000 	str	r2, [r3]
8000091c:	e51b3008 	ldr	r3, [fp, #-8]
80000920:	e2833001 	add	r3, r3, #1
80000924:	e50b3008 	str	r3, [fp, #-8]
80000928:	e51b3008 	ldr	r3, [fp, #-8]
8000092c:	e3530003 	cmp	r3, #3
80000930:	dafffff0 	ble	800008f8 <gic_init+0x100>
80000934:	e51b300c 	ldr	r3, [fp, #-12]
80000938:	e1a00003 	mov	r0, r3
8000093c:	e24bd004 	sub	sp, fp, #4
80000940:	e8bd8800 	pop	{fp, pc}

80000944 <gic_interrupt>:
80000944:	e92d4800 	push	{fp, lr}
80000948:	e28db004 	add	fp, sp, #4
8000094c:	e24dd018 	sub	sp, sp, #24
80000950:	e50b0018 	str	r0, [fp, #-24]
80000954:	e50b101c 	str	r1, [fp, #-28]
80000958:	e51b301c 	ldr	r3, [fp, #-28]
8000095c:	e50b3008 	str	r3, [fp, #-8]
80000960:	ebfffe2c 	bl	80000218 <smp_processor_id>
80000964:	e50b000c 	str	r0, [fp, #-12]
80000968:	e3013e6c 	movw	r3, #7788	; 0x1e6c
8000096c:	e3483000 	movt	r3, #32768	; 0x8000
80000970:	e5933008 	ldr	r3, [r3, #8]
80000974:	e593300c 	ldr	r3, [r3, #12]
80000978:	e50b3010 	str	r3, [fp, #-16]
8000097c:	e51b3010 	ldr	r3, [fp, #-16]
80000980:	e7e93053 	ubfx	r3, r3, #0, #10
80000984:	e50b3014 	str	r3, [fp, #-20]
80000988:	e3013e6c 	movw	r3, #7788	; 0x1e6c
8000098c:	e3483000 	movt	r3, #32768	; 0x8000
80000990:	e593200c 	ldr	r2, [r3, #12]
80000994:	e51b3014 	ldr	r3, [fp, #-20]
80000998:	e1520003 	cmp	r2, r3
8000099c:	9a00003d 	bls	80000a98 <gic_interrupt+0x154>
800009a0:	e51b3014 	ldr	r3, [fp, #-20]
800009a4:	e3530000 	cmp	r3, #0
800009a8:	1a000015 	bne	80000a04 <gic_interrupt+0xc0>
800009ac:	e3010d1c 	movw	r0, #7452	; 0x1d1c
800009b0:	e3480000 	movt	r0, #32768	; 0x8000
800009b4:	eb00039e 	bl	80001834 <uart_print>
800009b8:	e3013e6c 	movw	r3, #7788	; 0x1e6c
800009bc:	e3483000 	movt	r3, #32768	; 0x8000
800009c0:	e5933004 	ldr	r3, [r3, #4]
800009c4:	e1a00003 	mov	r0, r3
800009c8:	eb0003bd 	bl	800018c4 <uart_print_hex32>
800009cc:	e3010d00 	movw	r0, #7424	; 0x1d00
800009d0:	e3480000 	movt	r0, #32768	; 0x8000
800009d4:	eb000396 	bl	80001834 <uart_print>
800009d8:	e3010d34 	movw	r0, #7476	; 0x1d34
800009dc:	e3480000 	movt	r0, #32768	; 0x8000
800009e0:	eb000393 	bl	80001834 <uart_print>
800009e4:	e3013e6c 	movw	r3, #7788	; 0x1e6c
800009e8:	e3483000 	movt	r3, #32768	; 0x8000
800009ec:	e5933008 	ldr	r3, [r3, #8]
800009f0:	e1a00003 	mov	r0, r3
800009f4:	eb0003b2 	bl	800018c4 <uart_print_hex32>
800009f8:	e3010d00 	movw	r0, #7424	; 0x1d00
800009fc:	e3480000 	movt	r0, #32768	; 0x8000
80000a00:	eb00038b 	bl	80001834 <uart_print>
80000a04:	e3013e6c 	movw	r3, #7788	; 0x1e6c
80000a08:	e3483000 	movt	r3, #32768	; 0x8000
80000a0c:	e51b2014 	ldr	r2, [fp, #-20]
80000a10:	e2821004 	add	r1, r2, #4
80000a14:	e3a02004 	mov	r2, #4
80000a18:	e1a01101 	lsl	r1, r1, #2
80000a1c:	e0833001 	add	r3, r3, r1
80000a20:	e0833002 	add	r3, r3, r2
80000a24:	e5933000 	ldr	r3, [r3]
80000a28:	e3530000 	cmp	r3, #0
80000a2c:	0a00000d 	beq	80000a68 <gic_interrupt+0x124>
80000a30:	e3013e6c 	movw	r3, #7788	; 0x1e6c
80000a34:	e3483000 	movt	r3, #32768	; 0x8000
80000a38:	e51b2014 	ldr	r2, [fp, #-20]
80000a3c:	e2821004 	add	r1, r2, #4
80000a40:	e3a02004 	mov	r2, #4
80000a44:	e1a01101 	lsl	r1, r1, #2
80000a48:	e0833001 	add	r3, r3, r1
80000a4c:	e0833002 	add	r3, r3, r2
80000a50:	e5933000 	ldr	r3, [r3]
80000a54:	e51b2014 	ldr	r2, [fp, #-20]
80000a58:	e1a00002 	mov	r0, r2
80000a5c:	e51b1008 	ldr	r1, [fp, #-8]
80000a60:	e3a02000 	mov	r2, #0
80000a64:	e12fff33 	blx	r3
80000a68:	e3013e6c 	movw	r3, #7788	; 0x1e6c
80000a6c:	e3483000 	movt	r3, #32768	; 0x8000
80000a70:	e5933008 	ldr	r3, [r3, #8]
80000a74:	e2833010 	add	r3, r3, #16
80000a78:	e51b2014 	ldr	r2, [fp, #-20]
80000a7c:	e5832000 	str	r2, [r3]
80000a80:	e3013e6c 	movw	r3, #7788	; 0x1e6c
80000a84:	e3483000 	movt	r3, #32768	; 0x8000
80000a88:	e5933008 	ldr	r3, [r3, #8]
80000a8c:	e2833a01 	add	r3, r3, #4096	; 0x1000
80000a90:	e51b2014 	ldr	r2, [fp, #-20]
80000a94:	e5832000 	str	r2, [r3]
80000a98:	e24bd004 	sub	sp, fp, #4
80000a9c:	e8bd8800 	pop	{fp, pc}

80000aa0 <test_vdev_sample>:
80000aa0:	e92d4800 	push	{fp, lr}
80000aa4:	e28db004 	add	fp, sp, #4
80000aa8:	e24dd020 	sub	sp, sp, #32
80000aac:	e3a03a0f 	mov	r3, #61440	; 0xf000
80000ab0:	e3433fff 	movt	r3, #16383	; 0x3fff
80000ab4:	e50b300c 	str	r3, [fp, #-12]
80000ab8:	e51b300c 	ldr	r3, [fp, #-12]
80000abc:	e50b3010 	str	r3, [fp, #-16]
80000ac0:	e51b300c 	ldr	r3, [fp, #-12]
80000ac4:	e2833004 	add	r3, r3, #4
80000ac8:	e50b3014 	str	r3, [fp, #-20]
80000acc:	e51b300c 	ldr	r3, [fp, #-12]
80000ad0:	e2833008 	add	r3, r3, #8
80000ad4:	e50b3018 	str	r3, [fp, #-24]
80000ad8:	e3010da8 	movw	r0, #7592	; 0x1da8
80000adc:	e3480000 	movt	r0, #32768	; 0x8000
80000ae0:	eb000353 	bl	80001834 <uart_print>
80000ae4:	e51b300c 	ldr	r3, [fp, #-12]
80000ae8:	e1a00003 	mov	r0, r3
80000aec:	eb000374 	bl	800018c4 <uart_print_hex32>
80000af0:	e3010dd0 	movw	r0, #7632	; 0x1dd0
80000af4:	e3480000 	movt	r0, #32768	; 0x8000
80000af8:	eb00034d 	bl	80001834 <uart_print>
80000afc:	e3a03000 	mov	r3, #0
80000b00:	e50b3008 	str	r3, [fp, #-8]
80000b04:	ea00003a 	b	80000bf4 <test_vdev_sample+0x154>
80000b08:	e51b3008 	ldr	r3, [fp, #-8]
80000b0c:	e2833001 	add	r3, r3, #1
80000b10:	e1a03083 	lsl	r3, r3, #1
80000b14:	e50b301c 	str	r3, [fp, #-28]
80000b18:	e51b3008 	ldr	r3, [fp, #-8]
80000b1c:	e2832001 	add	r2, r3, #1
80000b20:	e1a03002 	mov	r3, r2
80000b24:	e1a03083 	lsl	r3, r3, #1
80000b28:	e0833002 	add	r3, r3, r2
80000b2c:	e50b3020 	str	r3, [fp, #-32]
80000b30:	e3010dd4 	movw	r0, #7636	; 0x1dd4
80000b34:	e3480000 	movt	r0, #32768	; 0x8000
80000b38:	eb00033d 	bl	80001834 <uart_print>
80000b3c:	e51b301c 	ldr	r3, [fp, #-28]
80000b40:	e1a00003 	mov	r0, r3
80000b44:	eb00035e 	bl	800018c4 <uart_print_hex32>
80000b48:	e3010dd8 	movw	r0, #7640	; 0x1dd8
80000b4c:	e3480000 	movt	r0, #32768	; 0x8000
80000b50:	eb000337 	bl	80001834 <uart_print>
80000b54:	e51b3020 	ldr	r3, [fp, #-32]
80000b58:	e1a00003 	mov	r0, r3
80000b5c:	eb000358 	bl	800018c4 <uart_print_hex32>
80000b60:	e3010de0 	movw	r0, #7648	; 0x1de0
80000b64:	e3480000 	movt	r0, #32768	; 0x8000
80000b68:	eb000331 	bl	80001834 <uart_print>
80000b6c:	e51b201c 	ldr	r2, [fp, #-28]
80000b70:	e51b3010 	ldr	r3, [fp, #-16]
80000b74:	e5832000 	str	r2, [r3]
80000b78:	e51b2020 	ldr	r2, [fp, #-32]
80000b7c:	e51b3014 	ldr	r3, [fp, #-20]
80000b80:	e5832000 	str	r2, [r3]
80000b84:	e51b3018 	ldr	r3, [fp, #-24]
80000b88:	e5933000 	ldr	r3, [r3]
80000b8c:	e50b3024 	str	r3, [fp, #-36]	; 0x24
80000b90:	e3010de4 	movw	r0, #7652	; 0x1de4
80000b94:	e3480000 	movt	r0, #32768	; 0x8000
80000b98:	eb000325 	bl	80001834 <uart_print>
80000b9c:	e51b3024 	ldr	r3, [fp, #-36]	; 0x24
80000ba0:	e1a00003 	mov	r0, r3
80000ba4:	eb000346 	bl	800018c4 <uart_print_hex32>
80000ba8:	e51b201c 	ldr	r2, [fp, #-28]
80000bac:	e51b3020 	ldr	r3, [fp, #-32]
80000bb0:	e0822003 	add	r2, r2, r3
80000bb4:	e51b3024 	ldr	r3, [fp, #-36]	; 0x24
80000bb8:	e1520003 	cmp	r2, r3
80000bbc:	1a000003 	bne	80000bd0 <test_vdev_sample+0x130>
80000bc0:	e3010df0 	movw	r0, #7664	; 0x1df0
80000bc4:	e3480000 	movt	r0, #32768	; 0x8000
80000bc8:	eb000319 	bl	80001834 <uart_print>
80000bcc:	ea000002 	b	80000bdc <test_vdev_sample+0x13c>
80000bd0:	e3010df8 	movw	r0, #7672	; 0x1df8
80000bd4:	e3480000 	movt	r0, #32768	; 0x8000
80000bd8:	eb000315 	bl	80001834 <uart_print>
80000bdc:	e3010dd0 	movw	r0, #7632	; 0x1dd0
80000be0:	e3480000 	movt	r0, #32768	; 0x8000
80000be4:	eb000312 	bl	80001834 <uart_print>
80000be8:	e51b3008 	ldr	r3, [fp, #-8]
80000bec:	e2833001 	add	r3, r3, #1
80000bf0:	e50b3008 	str	r3, [fp, #-8]
80000bf4:	e51b3008 	ldr	r3, [fp, #-8]
80000bf8:	e3530009 	cmp	r3, #9
80000bfc:	daffffc1 	ble	80000b08 <test_vdev_sample+0x68>
80000c00:	e3010e04 	movw	r0, #7684	; 0x1e04
80000c04:	e3480000 	movt	r0, #32768	; 0x8000
80000c08:	eb000309 	bl	80001834 <uart_print>
80000c0c:	e24bd004 	sub	sp, fp, #4
80000c10:	e8bd8800 	pop	{fp, pc}

80000c14 <vtimer_mask>:
80000c14:	e52db004 	push	{fp}		; (str fp, [sp, #-4]!)
80000c18:	e28db000 	add	fp, sp, #0
80000c1c:	e24dd00c 	sub	sp, sp, #12
80000c20:	e50b0008 	str	r0, [fp, #-8]
80000c24:	e3013e68 	movw	r3, #7784	; 0x1e68
80000c28:	e3483000 	movt	r3, #32768	; 0x8000
80000c2c:	e5933000 	ldr	r3, [r3]
80000c30:	e51b2008 	ldr	r2, [fp, #-8]
80000c34:	e5832000 	str	r2, [r3]
80000c38:	e28bd000 	add	sp, fp, #0
80000c3c:	e8bd0800 	ldmfd	sp!, {fp}
80000c40:	e12fff1e 	bx	lr

80000c44 <__memmove_down>:
80000c44:	e52db004 	push	{fp}		; (str fp, [sp, #-4]!)
80000c48:	e28db000 	add	fp, sp, #0
80000c4c:	e24dd01c 	sub	sp, sp, #28
80000c50:	e50b0010 	str	r0, [fp, #-16]
80000c54:	e50b1014 	str	r1, [fp, #-20]
80000c58:	e50b2018 	str	r2, [fp, #-24]
80000c5c:	e51b3010 	ldr	r3, [fp, #-16]
80000c60:	e50b3008 	str	r3, [fp, #-8]
80000c64:	e51b3014 	ldr	r3, [fp, #-20]
80000c68:	e50b300c 	str	r3, [fp, #-12]
80000c6c:	ea000009 	b	80000c98 <__memmove_down+0x54>
80000c70:	e51b300c 	ldr	r3, [fp, #-12]
80000c74:	e5d32000 	ldrb	r2, [r3]
80000c78:	e51b3008 	ldr	r3, [fp, #-8]
80000c7c:	e5c32000 	strb	r2, [r3]
80000c80:	e51b3008 	ldr	r3, [fp, #-8]
80000c84:	e2833001 	add	r3, r3, #1
80000c88:	e50b3008 	str	r3, [fp, #-8]
80000c8c:	e51b300c 	ldr	r3, [fp, #-12]
80000c90:	e2833001 	add	r3, r3, #1
80000c94:	e50b300c 	str	r3, [fp, #-12]
80000c98:	e51b3018 	ldr	r3, [fp, #-24]
80000c9c:	e3530000 	cmp	r3, #0
80000ca0:	03a03000 	moveq	r3, #0
80000ca4:	13a03001 	movne	r3, #1
80000ca8:	e6ef3073 	uxtb	r3, r3
80000cac:	e51b2018 	ldr	r2, [fp, #-24]
80000cb0:	e2422001 	sub	r2, r2, #1
80000cb4:	e50b2018 	str	r2, [fp, #-24]
80000cb8:	e3530000 	cmp	r3, #0
80000cbc:	1affffeb 	bne	80000c70 <__memmove_down+0x2c>
80000cc0:	e51b3010 	ldr	r3, [fp, #-16]
80000cc4:	e1a00003 	mov	r0, r3
80000cc8:	e28bd000 	add	sp, fp, #0
80000ccc:	e8bd0800 	ldmfd	sp!, {fp}
80000cd0:	e12fff1e 	bx	lr

80000cd4 <__memmove_up>:
80000cd4:	e52db004 	push	{fp}		; (str fp, [sp, #-4]!)
80000cd8:	e28db000 	add	fp, sp, #0
80000cdc:	e24dd01c 	sub	sp, sp, #28
80000ce0:	e50b0010 	str	r0, [fp, #-16]
80000ce4:	e50b1014 	str	r1, [fp, #-20]
80000ce8:	e50b2018 	str	r2, [fp, #-24]
80000cec:	e51b3018 	ldr	r3, [fp, #-24]
80000cf0:	e2433001 	sub	r3, r3, #1
80000cf4:	e51b2010 	ldr	r2, [fp, #-16]
80000cf8:	e0823003 	add	r3, r2, r3
80000cfc:	e50b3008 	str	r3, [fp, #-8]
80000d00:	e51b3018 	ldr	r3, [fp, #-24]
80000d04:	e2433001 	sub	r3, r3, #1
80000d08:	e51b2014 	ldr	r2, [fp, #-20]
80000d0c:	e0823003 	add	r3, r2, r3
80000d10:	e50b300c 	str	r3, [fp, #-12]
80000d14:	ea000009 	b	80000d40 <__memmove_up+0x6c>
80000d18:	e51b300c 	ldr	r3, [fp, #-12]
80000d1c:	e5d32000 	ldrb	r2, [r3]
80000d20:	e51b3008 	ldr	r3, [fp, #-8]
80000d24:	e5c32000 	strb	r2, [r3]
80000d28:	e51b3008 	ldr	r3, [fp, #-8]
80000d2c:	e2433001 	sub	r3, r3, #1
80000d30:	e50b3008 	str	r3, [fp, #-8]
80000d34:	e51b300c 	ldr	r3, [fp, #-12]
80000d38:	e2433001 	sub	r3, r3, #1
80000d3c:	e50b300c 	str	r3, [fp, #-12]
80000d40:	e51b3018 	ldr	r3, [fp, #-24]
80000d44:	e3530000 	cmp	r3, #0
80000d48:	03a03000 	moveq	r3, #0
80000d4c:	13a03001 	movne	r3, #1
80000d50:	e6ef3073 	uxtb	r3, r3
80000d54:	e51b2018 	ldr	r2, [fp, #-24]
80000d58:	e2422001 	sub	r2, r2, #1
80000d5c:	e50b2018 	str	r2, [fp, #-24]
80000d60:	e3530000 	cmp	r3, #0
80000d64:	1affffeb 	bne	80000d18 <__memmove_up+0x44>
80000d68:	e51b3010 	ldr	r3, [fp, #-16]
80000d6c:	e1a00003 	mov	r0, r3
80000d70:	e28bd000 	add	sp, fp, #0
80000d74:	e8bd0800 	ldmfd	sp!, {fp}
80000d78:	e12fff1e 	bx	lr

80000d7c <memcpy>:
80000d7c:	e92d4800 	push	{fp, lr}
80000d80:	e28db004 	add	fp, sp, #4
80000d84:	e24dd010 	sub	sp, sp, #16
80000d88:	e50b0008 	str	r0, [fp, #-8]
80000d8c:	e50b100c 	str	r1, [fp, #-12]
80000d90:	e50b2010 	str	r2, [fp, #-16]
80000d94:	e51b0008 	ldr	r0, [fp, #-8]
80000d98:	e51b100c 	ldr	r1, [fp, #-12]
80000d9c:	e51b2010 	ldr	r2, [fp, #-16]
80000da0:	ebffffa7 	bl	80000c44 <__memmove_down>
80000da4:	e1a03000 	mov	r3, r0
80000da8:	e1a00003 	mov	r0, r3
80000dac:	e24bd004 	sub	sp, fp, #4
80000db0:	e8bd8800 	pop	{fp, pc}

80000db4 <memmove>:
80000db4:	e92d4800 	push	{fp, lr}
80000db8:	e28db004 	add	fp, sp, #4
80000dbc:	e24dd010 	sub	sp, sp, #16
80000dc0:	e50b0008 	str	r0, [fp, #-8]
80000dc4:	e50b100c 	str	r1, [fp, #-12]
80000dc8:	e50b2010 	str	r2, [fp, #-16]
80000dcc:	e51b2008 	ldr	r2, [fp, #-8]
80000dd0:	e51b300c 	ldr	r3, [fp, #-12]
80000dd4:	e1520003 	cmp	r2, r3
80000dd8:	9a000005 	bls	80000df4 <memmove+0x40>
80000ddc:	e51b0008 	ldr	r0, [fp, #-8]
80000de0:	e51b100c 	ldr	r1, [fp, #-12]
80000de4:	e51b2010 	ldr	r2, [fp, #-16]
80000de8:	ebffffb9 	bl	80000cd4 <__memmove_up>
80000dec:	e1a03000 	mov	r3, r0
80000df0:	ea000004 	b	80000e08 <memmove+0x54>
80000df4:	e51b0008 	ldr	r0, [fp, #-8]
80000df8:	e51b100c 	ldr	r1, [fp, #-12]
80000dfc:	e51b2010 	ldr	r2, [fp, #-16]
80000e00:	ebffff8f 	bl	80000c44 <__memmove_down>
80000e04:	e1a03000 	mov	r3, r0
80000e08:	e1a00003 	mov	r0, r3
80000e0c:	e24bd004 	sub	sp, fp, #4
80000e10:	e8bd8800 	pop	{fp, pc}

80000e14 <memchr>:
80000e14:	e52db004 	push	{fp}		; (str fp, [sp, #-4]!)
80000e18:	e28db000 	add	fp, sp, #0
80000e1c:	e24dd01c 	sub	sp, sp, #28
80000e20:	e50b0010 	str	r0, [fp, #-16]
80000e24:	e50b1014 	str	r1, [fp, #-20]
80000e28:	e50b2018 	str	r2, [fp, #-24]
80000e2c:	e51b3010 	ldr	r3, [fp, #-16]
80000e30:	e50b3008 	str	r3, [fp, #-8]
80000e34:	ea000005 	b	80000e50 <memchr+0x3c>
80000e38:	e51b3008 	ldr	r3, [fp, #-8]
80000e3c:	e2833001 	add	r3, r3, #1
80000e40:	e50b3008 	str	r3, [fp, #-8]
80000e44:	e51b3018 	ldr	r3, [fp, #-24]
80000e48:	e2433001 	sub	r3, r3, #1
80000e4c:	e50b3018 	str	r3, [fp, #-24]
80000e50:	e51b3018 	ldr	r3, [fp, #-24]
80000e54:	e3530000 	cmp	r3, #0
80000e58:	0a000005 	beq	80000e74 <memchr+0x60>
80000e5c:	e51b3008 	ldr	r3, [fp, #-8]
80000e60:	e5d33000 	ldrb	r3, [r3]
80000e64:	e1a02003 	mov	r2, r3
80000e68:	e51b3014 	ldr	r3, [fp, #-20]
80000e6c:	e1520003 	cmp	r2, r3
80000e70:	1afffff0 	bne	80000e38 <memchr+0x24>
80000e74:	e51b3018 	ldr	r3, [fp, #-24]
80000e78:	e3530000 	cmp	r3, #0
80000e7c:	0a000001 	beq	80000e88 <memchr+0x74>
80000e80:	e51b3008 	ldr	r3, [fp, #-8]
80000e84:	ea000000 	b	80000e8c <memchr+0x78>
80000e88:	e3a03000 	mov	r3, #0
80000e8c:	e1a00003 	mov	r0, r3
80000e90:	e28bd000 	add	sp, fp, #0
80000e94:	e8bd0800 	ldmfd	sp!, {fp}
80000e98:	e12fff1e 	bx	lr

80000e9c <strlen>:
80000e9c:	e52db004 	push	{fp}		; (str fp, [sp, #-4]!)
80000ea0:	e28db000 	add	fp, sp, #0
80000ea4:	e24dd014 	sub	sp, sp, #20
80000ea8:	e50b0010 	str	r0, [fp, #-16]
80000eac:	e51b3010 	ldr	r3, [fp, #-16]
80000eb0:	e50b3008 	str	r3, [fp, #-8]
80000eb4:	ea000002 	b	80000ec4 <strlen+0x28>
80000eb8:	e51b3008 	ldr	r3, [fp, #-8]
80000ebc:	e2833001 	add	r3, r3, #1
80000ec0:	e50b3008 	str	r3, [fp, #-8]
80000ec4:	e51b3008 	ldr	r3, [fp, #-8]
80000ec8:	e5d33000 	ldrb	r3, [r3]
80000ecc:	e3530000 	cmp	r3, #0
80000ed0:	1afffff8 	bne	80000eb8 <strlen+0x1c>
80000ed4:	e51b2008 	ldr	r2, [fp, #-8]
80000ed8:	e51b3010 	ldr	r3, [fp, #-16]
80000edc:	e0633002 	rsb	r3, r3, r2
80000ee0:	e1a00003 	mov	r0, r3
80000ee4:	e28bd000 	add	sp, fp, #0
80000ee8:	e8bd0800 	ldmfd	sp!, {fp}
80000eec:	e12fff1e 	bx	lr

80000ef0 <memset>:
80000ef0:	e52db004 	push	{fp}		; (str fp, [sp, #-4]!)
80000ef4:	e28db000 	add	fp, sp, #0
80000ef8:	e24dd01c 	sub	sp, sp, #28
80000efc:	e50b0010 	str	r0, [fp, #-16]
80000f00:	e50b1014 	str	r1, [fp, #-20]
80000f04:	e50b2018 	str	r2, [fp, #-24]
80000f08:	e51b3010 	ldr	r3, [fp, #-16]
80000f0c:	e50b3008 	str	r3, [fp, #-8]
80000f10:	ea000006 	b	80000f30 <memset+0x40>
80000f14:	e51b3014 	ldr	r3, [fp, #-20]
80000f18:	e6ef2073 	uxtb	r2, r3
80000f1c:	e51b3008 	ldr	r3, [fp, #-8]
80000f20:	e5c32000 	strb	r2, [r3]
80000f24:	e51b3008 	ldr	r3, [fp, #-8]
80000f28:	e2833001 	add	r3, r3, #1
80000f2c:	e50b3008 	str	r3, [fp, #-8]
80000f30:	e51b3018 	ldr	r3, [fp, #-24]
80000f34:	e3530000 	cmp	r3, #0
80000f38:	03a03000 	moveq	r3, #0
80000f3c:	13a03001 	movne	r3, #1
80000f40:	e6ef3073 	uxtb	r3, r3
80000f44:	e51b2018 	ldr	r2, [fp, #-24]
80000f48:	e2422001 	sub	r2, r2, #1
80000f4c:	e50b2018 	str	r2, [fp, #-24]
80000f50:	e3530000 	cmp	r3, #0
80000f54:	1affffee 	bne	80000f14 <memset+0x24>
80000f58:	e51b3010 	ldr	r3, [fp, #-16]
80000f5c:	e1a00003 	mov	r0, r3
80000f60:	e28bd000 	add	sp, fp, #0
80000f64:	e8bd0800 	ldmfd	sp!, {fp}
80000f68:	e12fff1e 	bx	lr

80000f6c <memcmp>:
80000f6c:	e52db004 	push	{fp}		; (str fp, [sp, #-4]!)
80000f70:	e28db000 	add	fp, sp, #0
80000f74:	e24dd01c 	sub	sp, sp, #28
80000f78:	e50b0010 	str	r0, [fp, #-16]
80000f7c:	e50b1014 	str	r1, [fp, #-20]
80000f80:	e50b2018 	str	r2, [fp, #-24]
80000f84:	e51b3010 	ldr	r3, [fp, #-16]
80000f88:	e50b3008 	str	r3, [fp, #-8]
80000f8c:	e51b3014 	ldr	r3, [fp, #-20]
80000f90:	e50b300c 	str	r3, [fp, #-12]
80000f94:	ea000015 	b	80000ff0 <memcmp+0x84>
80000f98:	e51b3008 	ldr	r3, [fp, #-8]
80000f9c:	e5d32000 	ldrb	r2, [r3]
80000fa0:	e51b300c 	ldr	r3, [fp, #-12]
80000fa4:	e5d33000 	ldrb	r3, [r3]
80000fa8:	e1520003 	cmp	r2, r3
80000fac:	2a000001 	bcs	80000fb8 <memcmp+0x4c>
80000fb0:	e3e03000 	mvn	r3, #0
80000fb4:	ea000018 	b	8000101c <memcmp+0xb0>
80000fb8:	e51b3008 	ldr	r3, [fp, #-8]
80000fbc:	e5d32000 	ldrb	r2, [r3]
80000fc0:	e51b300c 	ldr	r3, [fp, #-12]
80000fc4:	e5d33000 	ldrb	r3, [r3]
80000fc8:	e1520003 	cmp	r2, r3
80000fcc:	9a000001 	bls	80000fd8 <memcmp+0x6c>
80000fd0:	e3a03001 	mov	r3, #1
80000fd4:	ea000010 	b	8000101c <memcmp+0xb0>
80000fd8:	e51b3008 	ldr	r3, [fp, #-8]
80000fdc:	e2833001 	add	r3, r3, #1
80000fe0:	e50b3008 	str	r3, [fp, #-8]
80000fe4:	e51b300c 	ldr	r3, [fp, #-12]
80000fe8:	e2833001 	add	r3, r3, #1
80000fec:	e50b300c 	str	r3, [fp, #-12]
80000ff0:	e51b3018 	ldr	r3, [fp, #-24]
80000ff4:	e3530000 	cmp	r3, #0
80000ff8:	03a03000 	moveq	r3, #0
80000ffc:	13a03001 	movne	r3, #1
80001000:	e6ef3073 	uxtb	r3, r3
80001004:	e51b2018 	ldr	r2, [fp, #-24]
80001008:	e2422001 	sub	r2, r2, #1
8000100c:	e50b2018 	str	r2, [fp, #-24]
80001010:	e3530000 	cmp	r3, #0
80001014:	1affffdf 	bne	80000f98 <memcmp+0x2c>
80001018:	e3a03000 	mov	r3, #0
8000101c:	e1a00003 	mov	r0, r3
80001020:	e28bd000 	add	sp, fp, #0
80001024:	e8bd0800 	ldmfd	sp!, {fp}
80001028:	e12fff1e 	bx	lr

8000102c <strcmp>:
8000102c:	e52db004 	push	{fp}		; (str fp, [sp, #-4]!)
80001030:	e28db000 	add	fp, sp, #0
80001034:	e24dd00c 	sub	sp, sp, #12
80001038:	e50b0008 	str	r0, [fp, #-8]
8000103c:	e50b100c 	str	r1, [fp, #-12]
80001040:	ea000015 	b	8000109c <strcmp+0x70>
80001044:	e51b3008 	ldr	r3, [fp, #-8]
80001048:	e5d32000 	ldrb	r2, [r3]
8000104c:	e51b300c 	ldr	r3, [fp, #-12]
80001050:	e5d33000 	ldrb	r3, [r3]
80001054:	e1520003 	cmp	r2, r3
80001058:	2a000001 	bcs	80001064 <strcmp+0x38>
8000105c:	e3e03000 	mvn	r3, #0
80001060:	ea000026 	b	80001100 <strcmp+0xd4>
80001064:	e51b3008 	ldr	r3, [fp, #-8]
80001068:	e5d32000 	ldrb	r2, [r3]
8000106c:	e51b300c 	ldr	r3, [fp, #-12]
80001070:	e5d33000 	ldrb	r3, [r3]
80001074:	e1520003 	cmp	r2, r3
80001078:	9a000001 	bls	80001084 <strcmp+0x58>
8000107c:	e3a03001 	mov	r3, #1
80001080:	ea00001e 	b	80001100 <strcmp+0xd4>
80001084:	e51b3008 	ldr	r3, [fp, #-8]
80001088:	e2833001 	add	r3, r3, #1
8000108c:	e50b3008 	str	r3, [fp, #-8]
80001090:	e51b300c 	ldr	r3, [fp, #-12]
80001094:	e2833001 	add	r3, r3, #1
80001098:	e50b300c 	str	r3, [fp, #-12]
8000109c:	e51b3008 	ldr	r3, [fp, #-8]
800010a0:	e5d33000 	ldrb	r3, [r3]
800010a4:	e3530000 	cmp	r3, #0
800010a8:	0a000003 	beq	800010bc <strcmp+0x90>
800010ac:	e51b300c 	ldr	r3, [fp, #-12]
800010b0:	e5d33000 	ldrb	r3, [r3]
800010b4:	e3530000 	cmp	r3, #0
800010b8:	1affffe1 	bne	80001044 <strcmp+0x18>
800010bc:	e51b3008 	ldr	r3, [fp, #-8]
800010c0:	e5d33000 	ldrb	r3, [r3]
800010c4:	e3530000 	cmp	r3, #0
800010c8:	1a000005 	bne	800010e4 <strcmp+0xb8>
800010cc:	e51b300c 	ldr	r3, [fp, #-12]
800010d0:	e5d33000 	ldrb	r3, [r3]
800010d4:	e3530000 	cmp	r3, #0
800010d8:	1a000001 	bne	800010e4 <strcmp+0xb8>
800010dc:	e3a03000 	mov	r3, #0
800010e0:	ea000006 	b	80001100 <strcmp+0xd4>
800010e4:	e51b3008 	ldr	r3, [fp, #-8]
800010e8:	e5d33000 	ldrb	r3, [r3]
800010ec:	e3530000 	cmp	r3, #0
800010f0:	1a000001 	bne	800010fc <strcmp+0xd0>
800010f4:	e3e03000 	mvn	r3, #0
800010f8:	ea000000 	b	80001100 <strcmp+0xd4>
800010fc:	e3a03001 	mov	r3, #1
80001100:	e1a00003 	mov	r0, r3
80001104:	e28bd000 	add	sp, fp, #0
80001108:	e8bd0800 	ldmfd	sp!, {fp}
8000110c:	e12fff1e 	bx	lr

80001110 <strncmp>:
80001110:	e52db004 	push	{fp}		; (str fp, [sp, #-4]!)
80001114:	e28db000 	add	fp, sp, #0
80001118:	e24dd014 	sub	sp, sp, #20
8000111c:	e50b0008 	str	r0, [fp, #-8]
80001120:	e50b100c 	str	r1, [fp, #-12]
80001124:	e50b2010 	str	r2, [fp, #-16]
80001128:	ea000015 	b	80001184 <strncmp+0x74>
8000112c:	e51b3008 	ldr	r3, [fp, #-8]
80001130:	e5d32000 	ldrb	r2, [r3]
80001134:	e51b300c 	ldr	r3, [fp, #-12]
80001138:	e5d33000 	ldrb	r3, [r3]
8000113c:	e1520003 	cmp	r2, r3
80001140:	2a000001 	bcs	8000114c <strncmp+0x3c>
80001144:	e3e03000 	mvn	r3, #0
80001148:	ea000033 	b	8000121c <strncmp+0x10c>
8000114c:	e51b3008 	ldr	r3, [fp, #-8]
80001150:	e5d32000 	ldrb	r2, [r3]
80001154:	e51b300c 	ldr	r3, [fp, #-12]
80001158:	e5d33000 	ldrb	r3, [r3]
8000115c:	e1520003 	cmp	r2, r3
80001160:	9a000001 	bls	8000116c <strncmp+0x5c>
80001164:	e3a03001 	mov	r3, #1
80001168:	ea00002b 	b	8000121c <strncmp+0x10c>
8000116c:	e51b3008 	ldr	r3, [fp, #-8]
80001170:	e2833001 	add	r3, r3, #1
80001174:	e50b3008 	str	r3, [fp, #-8]
80001178:	e51b300c 	ldr	r3, [fp, #-12]
8000117c:	e2833001 	add	r3, r3, #1
80001180:	e50b300c 	str	r3, [fp, #-12]
80001184:	e51b3008 	ldr	r3, [fp, #-8]
80001188:	e5d33000 	ldrb	r3, [r3]
8000118c:	e3530000 	cmp	r3, #0
80001190:	0a00000d 	beq	800011cc <strncmp+0xbc>
80001194:	e51b300c 	ldr	r3, [fp, #-12]
80001198:	e5d33000 	ldrb	r3, [r3]
8000119c:	e3530000 	cmp	r3, #0
800011a0:	0a000009 	beq	800011cc <strncmp+0xbc>
800011a4:	e51b3010 	ldr	r3, [fp, #-16]
800011a8:	e3530000 	cmp	r3, #0
800011ac:	03a03000 	moveq	r3, #0
800011b0:	13a03001 	movne	r3, #1
800011b4:	e6ef3073 	uxtb	r3, r3
800011b8:	e51b2010 	ldr	r2, [fp, #-16]
800011bc:	e2422001 	sub	r2, r2, #1
800011c0:	e50b2010 	str	r2, [fp, #-16]
800011c4:	e3530000 	cmp	r3, #0
800011c8:	1affffd7 	bne	8000112c <strncmp+0x1c>
800011cc:	e51b3010 	ldr	r3, [fp, #-16]
800011d0:	e3530000 	cmp	r3, #0
800011d4:	0a000007 	beq	800011f8 <strncmp+0xe8>
800011d8:	e51b3008 	ldr	r3, [fp, #-8]
800011dc:	e5d33000 	ldrb	r3, [r3]
800011e0:	e3530000 	cmp	r3, #0
800011e4:	1a000005 	bne	80001200 <strncmp+0xf0>
800011e8:	e51b300c 	ldr	r3, [fp, #-12]
800011ec:	e5d33000 	ldrb	r3, [r3]
800011f0:	e3530000 	cmp	r3, #0
800011f4:	1a000001 	bne	80001200 <strncmp+0xf0>
800011f8:	e3a03000 	mov	r3, #0
800011fc:	ea000006 	b	8000121c <strncmp+0x10c>
80001200:	e51b3008 	ldr	r3, [fp, #-8]
80001204:	e5d33000 	ldrb	r3, [r3]
80001208:	e3530000 	cmp	r3, #0
8000120c:	1a000001 	bne	80001218 <strncmp+0x108>
80001210:	e3e03000 	mvn	r3, #0
80001214:	ea000000 	b	8000121c <strncmp+0x10c>
80001218:	e3a03001 	mov	r3, #1
8000121c:	e1a00003 	mov	r0, r3
80001220:	e28bd000 	add	sp, fp, #0
80001224:	e8bd0800 	ldmfd	sp!, {fp}
80001228:	e12fff1e 	bx	lr

8000122c <strchr>:
8000122c:	e52db004 	push	{fp}		; (str fp, [sp, #-4]!)
80001230:	e28db000 	add	fp, sp, #0
80001234:	e24dd014 	sub	sp, sp, #20
80001238:	e50b0010 	str	r0, [fp, #-16]
8000123c:	e50b1014 	str	r1, [fp, #-20]
80001240:	e51b3010 	ldr	r3, [fp, #-16]
80001244:	e50b3008 	str	r3, [fp, #-8]
80001248:	ea000002 	b	80001258 <strchr+0x2c>
8000124c:	e51b3008 	ldr	r3, [fp, #-8]
80001250:	e2833001 	add	r3, r3, #1
80001254:	e50b3008 	str	r3, [fp, #-8]
80001258:	e51b3008 	ldr	r3, [fp, #-8]
8000125c:	e5d33000 	ldrb	r3, [r3]
80001260:	e3530000 	cmp	r3, #0
80001264:	0a000005 	beq	80001280 <strchr+0x54>
80001268:	e51b3008 	ldr	r3, [fp, #-8]
8000126c:	e5d33000 	ldrb	r3, [r3]
80001270:	e1a02003 	mov	r2, r3
80001274:	e51b3014 	ldr	r3, [fp, #-20]
80001278:	e1520003 	cmp	r2, r3
8000127c:	1afffff2 	bne	8000124c <strchr+0x20>
80001280:	e51b3008 	ldr	r3, [fp, #-8]
80001284:	e5d33000 	ldrb	r3, [r3]
80001288:	e3530000 	cmp	r3, #0
8000128c:	0a000001 	beq	80001298 <strchr+0x6c>
80001290:	e51b3008 	ldr	r3, [fp, #-8]
80001294:	ea000000 	b	8000129c <strchr+0x70>
80001298:	e3a03000 	mov	r3, #0
8000129c:	e1a00003 	mov	r0, r3
800012a0:	e28bd000 	add	sp, fp, #0
800012a4:	e8bd0800 	ldmfd	sp!, {fp}
800012a8:	e12fff1e 	bx	lr

800012ac <strcpy>:
800012ac:	e52db004 	push	{fp}		; (str fp, [sp, #-4]!)
800012b0:	e28db000 	add	fp, sp, #0
800012b4:	e24dd014 	sub	sp, sp, #20
800012b8:	e50b0010 	str	r0, [fp, #-16]
800012bc:	e50b1014 	str	r1, [fp, #-20]
800012c0:	e3a03000 	mov	r3, #0
800012c4:	e50b3008 	str	r3, [fp, #-8]
800012c8:	ea00000a 	b	800012f8 <strcpy+0x4c>
800012cc:	e51b2010 	ldr	r2, [fp, #-16]
800012d0:	e51b3008 	ldr	r3, [fp, #-8]
800012d4:	e0823003 	add	r3, r2, r3
800012d8:	e51b1014 	ldr	r1, [fp, #-20]
800012dc:	e51b2008 	ldr	r2, [fp, #-8]
800012e0:	e0812002 	add	r2, r1, r2
800012e4:	e5d22000 	ldrb	r2, [r2]
800012e8:	e5c32000 	strb	r2, [r3]
800012ec:	e51b3008 	ldr	r3, [fp, #-8]
800012f0:	e2833001 	add	r3, r3, #1
800012f4:	e50b3008 	str	r3, [fp, #-8]
800012f8:	e51b2014 	ldr	r2, [fp, #-20]
800012fc:	e51b3008 	ldr	r3, [fp, #-8]
80001300:	e0823003 	add	r3, r2, r3
80001304:	e5d33000 	ldrb	r3, [r3]
80001308:	e3530000 	cmp	r3, #0
8000130c:	1affffee 	bne	800012cc <strcpy+0x20>
80001310:	e51b2010 	ldr	r2, [fp, #-16]
80001314:	e51b3008 	ldr	r3, [fp, #-8]
80001318:	e0823003 	add	r3, r2, r3
8000131c:	e3a02000 	mov	r2, #0
80001320:	e5c32000 	strb	r2, [r3]
80001324:	e51b3010 	ldr	r3, [fp, #-16]
80001328:	e1a00003 	mov	r0, r3
8000132c:	e28bd000 	add	sp, fp, #0
80001330:	e8bd0800 	ldmfd	sp!, {fp}
80001334:	e12fff1e 	bx	lr

80001338 <arm_hexstr2uint>:
80001338:	e52db004 	push	{fp}		; (str fp, [sp, #-4]!)
8000133c:	e28db000 	add	fp, sp, #0
80001340:	e24dd014 	sub	sp, sp, #20
80001344:	e50b0010 	str	r0, [fp, #-16]
80001348:	e3a03000 	mov	r3, #0
8000134c:	e50b3008 	str	r3, [fp, #-8]
80001350:	e3a03000 	mov	r3, #0
80001354:	e50b300c 	str	r3, [fp, #-12]
80001358:	e51b3010 	ldr	r3, [fp, #-16]
8000135c:	e5d33000 	ldrb	r3, [r3]
80001360:	e3530030 	cmp	r3, #48	; 0x30
80001364:	1a00004c 	bne	8000149c <arm_hexstr2uint+0x164>
80001368:	e51b3010 	ldr	r3, [fp, #-16]
8000136c:	e2833001 	add	r3, r3, #1
80001370:	e5d33000 	ldrb	r3, [r3]
80001374:	e3530078 	cmp	r3, #120	; 0x78
80001378:	1a000047 	bne	8000149c <arm_hexstr2uint+0x164>
8000137c:	e3a03002 	mov	r3, #2
80001380:	e50b300c 	str	r3, [fp, #-12]
80001384:	ea000044 	b	8000149c <arm_hexstr2uint+0x164>
80001388:	e51b300c 	ldr	r3, [fp, #-12]
8000138c:	e51b2010 	ldr	r2, [fp, #-16]
80001390:	e0823003 	add	r3, r2, r3
80001394:	e5d33000 	ldrb	r3, [r3]
80001398:	e353002f 	cmp	r3, #47	; 0x2f
8000139c:	9a00000f 	bls	800013e0 <arm_hexstr2uint+0xa8>
800013a0:	e51b300c 	ldr	r3, [fp, #-12]
800013a4:	e51b2010 	ldr	r2, [fp, #-16]
800013a8:	e0823003 	add	r3, r2, r3
800013ac:	e5d33000 	ldrb	r3, [r3]
800013b0:	e3530039 	cmp	r3, #57	; 0x39
800013b4:	8a000009 	bhi	800013e0 <arm_hexstr2uint+0xa8>
800013b8:	e51b3008 	ldr	r3, [fp, #-8]
800013bc:	e1a02203 	lsl	r2, r3, #4
800013c0:	e51b300c 	ldr	r3, [fp, #-12]
800013c4:	e51b1010 	ldr	r1, [fp, #-16]
800013c8:	e0813003 	add	r3, r1, r3
800013cc:	e5d33000 	ldrb	r3, [r3]
800013d0:	e0823003 	add	r3, r2, r3
800013d4:	e2433030 	sub	r3, r3, #48	; 0x30
800013d8:	e50b3008 	str	r3, [fp, #-8]
800013dc:	ea00002a 	b	8000148c <arm_hexstr2uint+0x154>
800013e0:	e51b300c 	ldr	r3, [fp, #-12]
800013e4:	e51b2010 	ldr	r2, [fp, #-16]
800013e8:	e0823003 	add	r3, r2, r3
800013ec:	e5d33000 	ldrb	r3, [r3]
800013f0:	e3530040 	cmp	r3, #64	; 0x40
800013f4:	9a00000f 	bls	80001438 <arm_hexstr2uint+0x100>
800013f8:	e51b300c 	ldr	r3, [fp, #-12]
800013fc:	e51b2010 	ldr	r2, [fp, #-16]
80001400:	e0823003 	add	r3, r2, r3
80001404:	e5d33000 	ldrb	r3, [r3]
80001408:	e3530046 	cmp	r3, #70	; 0x46
8000140c:	8a000009 	bhi	80001438 <arm_hexstr2uint+0x100>
80001410:	e51b3008 	ldr	r3, [fp, #-8]
80001414:	e1a02203 	lsl	r2, r3, #4
80001418:	e51b300c 	ldr	r3, [fp, #-12]
8000141c:	e51b1010 	ldr	r1, [fp, #-16]
80001420:	e0813003 	add	r3, r1, r3
80001424:	e5d33000 	ldrb	r3, [r3]
80001428:	e0823003 	add	r3, r2, r3
8000142c:	e2433037 	sub	r3, r3, #55	; 0x37
80001430:	e50b3008 	str	r3, [fp, #-8]
80001434:	ea000014 	b	8000148c <arm_hexstr2uint+0x154>
80001438:	e51b300c 	ldr	r3, [fp, #-12]
8000143c:	e51b2010 	ldr	r2, [fp, #-16]
80001440:	e0823003 	add	r3, r2, r3
80001444:	e5d33000 	ldrb	r3, [r3]
80001448:	e3530060 	cmp	r3, #96	; 0x60
8000144c:	9a00000e 	bls	8000148c <arm_hexstr2uint+0x154>
80001450:	e51b300c 	ldr	r3, [fp, #-12]
80001454:	e51b2010 	ldr	r2, [fp, #-16]
80001458:	e0823003 	add	r3, r2, r3
8000145c:	e5d33000 	ldrb	r3, [r3]
80001460:	e3530066 	cmp	r3, #102	; 0x66
80001464:	8a000008 	bhi	8000148c <arm_hexstr2uint+0x154>
80001468:	e51b3008 	ldr	r3, [fp, #-8]
8000146c:	e1a02203 	lsl	r2, r3, #4
80001470:	e51b300c 	ldr	r3, [fp, #-12]
80001474:	e51b1010 	ldr	r1, [fp, #-16]
80001478:	e0813003 	add	r3, r1, r3
8000147c:	e5d33000 	ldrb	r3, [r3]
80001480:	e0823003 	add	r3, r2, r3
80001484:	e2433057 	sub	r3, r3, #87	; 0x57
80001488:	e50b3008 	str	r3, [fp, #-8]
8000148c:	e51b300c 	ldr	r3, [fp, #-12]
80001490:	e2833001 	add	r3, r3, #1
80001494:	e50b300c 	str	r3, [fp, #-12]
80001498:	ea000000 	b	800014a0 <arm_hexstr2uint+0x168>
8000149c:	e1a00000 	nop			; (mov r0, r0)
800014a0:	e51b300c 	ldr	r3, [fp, #-12]
800014a4:	e51b2010 	ldr	r2, [fp, #-16]
800014a8:	e0823003 	add	r3, r2, r3
800014ac:	e5d33000 	ldrb	r3, [r3]
800014b0:	e3530000 	cmp	r3, #0
800014b4:	1affffb3 	bne	80001388 <arm_hexstr2uint+0x50>
800014b8:	e51b3008 	ldr	r3, [fp, #-8]
800014bc:	e1a00003 	mov	r0, r3
800014c0:	e28bd000 	add	sp, fp, #0
800014c4:	e8bd0800 	ldmfd	sp!, {fp}
800014c8:	e12fff1e 	bx	lr

800014cc <arm_uint2hexstr>:
800014cc:	e52db004 	push	{fp}		; (str fp, [sp, #-4]!)
800014d0:	e28db000 	add	fp, sp, #0
800014d4:	e24dd014 	sub	sp, sp, #20
800014d8:	e50b0010 	str	r0, [fp, #-16]
800014dc:	e50b1014 	str	r1, [fp, #-20]
800014e0:	e3a03000 	mov	r3, #0
800014e4:	e50b300c 	str	r3, [fp, #-12]
800014e8:	e3a03000 	mov	r3, #0
800014ec:	e50b3008 	str	r3, [fp, #-8]
800014f0:	ea00001f 	b	80001574 <arm_uint2hexstr+0xa8>
800014f4:	e51b300c 	ldr	r3, [fp, #-12]
800014f8:	e3530000 	cmp	r3, #0
800014fc:	1a000007 	bne	80001520 <arm_uint2hexstr+0x54>
80001500:	e51b3008 	ldr	r3, [fp, #-8]
80001504:	e2633007 	rsb	r3, r3, #7
80001508:	e1a03103 	lsl	r3, r3, #2
8000150c:	e51b2014 	ldr	r2, [fp, #-20]
80001510:	e1a03332 	lsr	r3, r2, r3
80001514:	e203300f 	and	r3, r3, #15
80001518:	e3530000 	cmp	r3, #0
8000151c:	0a000010 	beq	80001564 <arm_uint2hexstr+0x98>
80001520:	e51b300c 	ldr	r3, [fp, #-12]
80001524:	e51b2010 	ldr	r2, [fp, #-16]
80001528:	e0822003 	add	r2, r2, r3
8000152c:	e51b3008 	ldr	r3, [fp, #-8]
80001530:	e2633007 	rsb	r3, r3, #7
80001534:	e1a03103 	lsl	r3, r3, #2
80001538:	e51b1014 	ldr	r1, [fp, #-20]
8000153c:	e1a03331 	lsr	r3, r1, r3
80001540:	e203100f 	and	r1, r3, #15
80001544:	e3013e18 	movw	r3, #7704	; 0x1e18
80001548:	e3483000 	movt	r3, #32768	; 0x8000
8000154c:	e7d33001 	ldrb	r3, [r3, r1]
80001550:	e5c23000 	strb	r3, [r2]
80001554:	e51b300c 	ldr	r3, [fp, #-12]
80001558:	e2833001 	add	r3, r3, #1
8000155c:	e50b300c 	str	r3, [fp, #-12]
80001560:	ea000000 	b	80001568 <arm_uint2hexstr+0x9c>
80001564:	e1a00000 	nop			; (mov r0, r0)
80001568:	e51b3008 	ldr	r3, [fp, #-8]
8000156c:	e2833001 	add	r3, r3, #1
80001570:	e50b3008 	str	r3, [fp, #-8]
80001574:	e51b3008 	ldr	r3, [fp, #-8]
80001578:	e3530007 	cmp	r3, #7
8000157c:	daffffdc 	ble	800014f4 <arm_uint2hexstr+0x28>
80001580:	e51b300c 	ldr	r3, [fp, #-12]
80001584:	e3530000 	cmp	r3, #0
80001588:	1a000007 	bne	800015ac <arm_uint2hexstr+0xe0>
8000158c:	e51b300c 	ldr	r3, [fp, #-12]
80001590:	e51b2010 	ldr	r2, [fp, #-16]
80001594:	e0823003 	add	r3, r2, r3
80001598:	e3a02030 	mov	r2, #48	; 0x30
8000159c:	e5c32000 	strb	r2, [r3]
800015a0:	e51b300c 	ldr	r3, [fp, #-12]
800015a4:	e2833001 	add	r3, r3, #1
800015a8:	e50b300c 	str	r3, [fp, #-12]
800015ac:	e51b300c 	ldr	r3, [fp, #-12]
800015b0:	e51b2010 	ldr	r2, [fp, #-16]
800015b4:	e0823003 	add	r3, r2, r3
800015b8:	e3a02000 	mov	r2, #0
800015bc:	e5c32000 	strb	r2, [r3]
800015c0:	e28bd000 	add	sp, fp, #0
800015c4:	e8bd0800 	ldmfd	sp!, {fp}
800015c8:	e12fff1e 	bx	lr

800015cc <strcat>:
800015cc:	e52db004 	push	{fp}		; (str fp, [sp, #-4]!)
800015d0:	e28db000 	add	fp, sp, #0
800015d4:	e24dd00c 	sub	sp, sp, #12
800015d8:	e50b0008 	str	r0, [fp, #-8]
800015dc:	e50b100c 	str	r1, [fp, #-12]
800015e0:	ea000002 	b	800015f0 <strcat+0x24>
800015e4:	e51b3008 	ldr	r3, [fp, #-8]
800015e8:	e2833001 	add	r3, r3, #1
800015ec:	e50b3008 	str	r3, [fp, #-8]
800015f0:	e51b3008 	ldr	r3, [fp, #-8]
800015f4:	e5d33000 	ldrb	r3, [r3]
800015f8:	e3530000 	cmp	r3, #0
800015fc:	1afffff8 	bne	800015e4 <strcat+0x18>
80001600:	ea000009 	b	8000162c <strcat+0x60>
80001604:	e51b300c 	ldr	r3, [fp, #-12]
80001608:	e5d32000 	ldrb	r2, [r3]
8000160c:	e51b3008 	ldr	r3, [fp, #-8]
80001610:	e5c32000 	strb	r2, [r3]
80001614:	e51b300c 	ldr	r3, [fp, #-12]
80001618:	e2833001 	add	r3, r3, #1
8000161c:	e50b300c 	str	r3, [fp, #-12]
80001620:	e51b3008 	ldr	r3, [fp, #-8]
80001624:	e2833001 	add	r3, r3, #1
80001628:	e50b3008 	str	r3, [fp, #-8]
8000162c:	e51b300c 	ldr	r3, [fp, #-12]
80001630:	e5d33000 	ldrb	r3, [r3]
80001634:	e3530000 	cmp	r3, #0
80001638:	1afffff1 	bne	80001604 <strcat+0x38>
8000163c:	e51b3008 	ldr	r3, [fp, #-8]
80001640:	e3a02000 	mov	r2, #0
80001644:	e5c32000 	strb	r2, [r3]
80001648:	e51b3008 	ldr	r3, [fp, #-8]
8000164c:	e1a00003 	mov	r0, r3
80001650:	e28bd000 	add	sp, fp, #0
80001654:	e8bd0800 	ldmfd	sp!, {fp}
80001658:	e12fff1e 	bx	lr

8000165c <arm_str2int>:
8000165c:	e52db004 	push	{fp}		; (str fp, [sp, #-4]!)
80001660:	e28db000 	add	fp, sp, #0
80001664:	e24dd01c 	sub	sp, sp, #28
80001668:	e50b0018 	str	r0, [fp, #-24]
8000166c:	e3a03000 	mov	r3, #0
80001670:	e50b3008 	str	r3, [fp, #-8]
80001674:	e3a03000 	mov	r3, #0
80001678:	e50b300c 	str	r3, [fp, #-12]
8000167c:	e3a03000 	mov	r3, #0
80001680:	e50b3010 	str	r3, [fp, #-16]
80001684:	e51b300c 	ldr	r3, [fp, #-12]
80001688:	e51b2018 	ldr	r2, [fp, #-24]
8000168c:	e0823003 	add	r3, r2, r3
80001690:	e5d33000 	ldrb	r3, [r3]
80001694:	e353002d 	cmp	r3, #45	; 0x2d
80001698:	1a000016 	bne	800016f8 <arm_str2int+0x9c>
8000169c:	e3a03001 	mov	r3, #1
800016a0:	e50b3010 	str	r3, [fp, #-16]
800016a4:	e51b300c 	ldr	r3, [fp, #-12]
800016a8:	e2833001 	add	r3, r3, #1
800016ac:	e50b300c 	str	r3, [fp, #-12]
800016b0:	ea000010 	b	800016f8 <arm_str2int+0x9c>
800016b4:	e51b2008 	ldr	r2, [fp, #-8]
800016b8:	e1a03002 	mov	r3, r2
800016bc:	e1a03103 	lsl	r3, r3, #2
800016c0:	e0833002 	add	r3, r3, r2
800016c4:	e1a03083 	lsl	r3, r3, #1
800016c8:	e1a02003 	mov	r2, r3
800016cc:	e51b300c 	ldr	r3, [fp, #-12]
800016d0:	e51b1018 	ldr	r1, [fp, #-24]
800016d4:	e0813003 	add	r3, r1, r3
800016d8:	e5d33000 	ldrb	r3, [r3]
800016dc:	e2433030 	sub	r3, r3, #48	; 0x30
800016e0:	e0823003 	add	r3, r2, r3
800016e4:	e50b3008 	str	r3, [fp, #-8]
800016e8:	e51b300c 	ldr	r3, [fp, #-12]
800016ec:	e2833001 	add	r3, r3, #1
800016f0:	e50b300c 	str	r3, [fp, #-12]
800016f4:	ea000000 	b	800016fc <arm_str2int+0xa0>
800016f8:	e1a00000 	nop			; (mov r0, r0)
800016fc:	e51b300c 	ldr	r3, [fp, #-12]
80001700:	e51b2018 	ldr	r2, [fp, #-24]
80001704:	e0823003 	add	r3, r2, r3
80001708:	e5d33000 	ldrb	r3, [r3]
8000170c:	e3530000 	cmp	r3, #0
80001710:	1affffe7 	bne	800016b4 <arm_str2int+0x58>
80001714:	e51b3010 	ldr	r3, [fp, #-16]
80001718:	e3530000 	cmp	r3, #0
8000171c:	0a000002 	beq	8000172c <arm_str2int+0xd0>
80001720:	e51b3008 	ldr	r3, [fp, #-8]
80001724:	e2633000 	rsb	r3, r3, #0
80001728:	ea000000 	b	80001730 <arm_str2int+0xd4>
8000172c:	e51b3008 	ldr	r3, [fp, #-8]
80001730:	e1a00003 	mov	r0, r3
80001734:	e28bd000 	add	sp, fp, #0
80001738:	e8bd0800 	ldmfd	sp!, {fp}
8000173c:	e12fff1e 	bx	lr

80001740 <common_guest_entry>:
80001740:	e59fd0c8 	ldr	sp, [pc, #200]	; 80001810 <except_dabort+0x4>
80001744:	e321f0d2 	msr	CPSR_c, #210	; 0xd2
80001748:	e59fd0c4 	ldr	sp, [pc, #196]	; 80001814 <except_dabort+0x8>
8000174c:	e321f0df 	msr	CPSR_c, #223	; 0xdf
80001750:	e59fd0c0 	ldr	sp, [pc, #192]	; 80001818 <except_dabort+0xc>
80001754:	e59f00c0 	ldr	r0, [pc, #192]	; 8000181c <except_dabort+0x10>
80001758:	ee0c0f10 	mcr	15, 0, r0, cr12, cr0, {0}
8000175c:	ebfffa43 	bl	80000070 <nrm_loop>

80001760 <__semi_call>:
80001760:	ef123456 	svc	0x00123456
80001764:	e1a0f00e 	mov	pc, lr
80001768:	e320f000 	nop	{0}
8000176c:	e320f000 	nop	{0}
80001770:	e320f000 	nop	{0}
80001774:	e320f000 	nop	{0}
80001778:	e320f000 	nop	{0}
8000177c:	e320f000 	nop	{0}

80001780 <nonsecure_vector>:
80001780:	00000000 	andeq	r0, r0, r0
80001784:	ea000005 	b	800017a0 <except_unhandled>
80001788:	ea00000d 	b	800017c4 <except_svc>
8000178c:	ea00001e 	b	8000180c <except_dabort>
80001790:	ea00001d 	b	8000180c <except_dabort>
80001794:	ea000001 	b	800017a0 <except_unhandled>
80001798:	ea000012 	b	800017e8 <except_irq>
8000179c:	ea00001a 	b	8000180c <except_dabort>

800017a0 <except_unhandled>:
800017a0:	e92d1fff 	push	{r0, r1, r2, r3, r4, r5, r6, r7, r8, r9, sl, fp, ip}
800017a4:	e14f0000 	mrs	r0, SPSR
800017a8:	e92d4001 	push	{r0, lr}
800017ac:	e1a0000d 	mov	r0, sp
800017b0:	ebfffa81 	bl	800001bc <_except_unhandled>
800017b4:	e8bd4001 	pop	{r0, lr}
800017b8:	e169f000 	msr	SPSR_fc, r0
800017bc:	e8bd1fff 	pop	{r0, r1, r2, r3, r4, r5, r6, r7, r8, r9, sl, fp, ip}
800017c0:	e1b0f00e 	movs	pc, lr

800017c4 <except_svc>:
800017c4:	e92d1fff 	push	{r0, r1, r2, r3, r4, r5, r6, r7, r8, r9, sl, fp, ip}
800017c8:	e14f0000 	mrs	r0, SPSR
800017cc:	e92d4001 	push	{r0, lr}
800017d0:	e1a0000d 	mov	r0, sp
800017d4:	ebfffa7f 	bl	800001d8 <_except_svc>
800017d8:	e8bd4001 	pop	{r0, lr}
800017dc:	e169f000 	msr	SPSR_fc, r0
800017e0:	e8bd1fff 	pop	{r0, r1, r2, r3, r4, r5, r6, r7, r8, r9, sl, fp, ip}
800017e4:	e1b0f00e 	movs	pc, lr

800017e8 <except_irq>:
800017e8:	e92d1fff 	push	{r0, r1, r2, r3, r4, r5, r6, r7, r8, r9, sl, fp, ip}
800017ec:	e14f0000 	mrs	r0, SPSR
800017f0:	e92d4001 	push	{r0, lr}
800017f4:	e1a0000d 	mov	r0, sp
800017f8:	ebfffa7d 	bl	800001f4 <_except_irq>
800017fc:	e8bd4001 	pop	{r0, lr}
80001800:	e169f000 	msr	SPSR_fc, r0
80001804:	e8bd1fff 	pop	{r0, r1, r2, r3, r4, r5, r6, r7, r8, r9, sl, fp, ip}
80001808:	e25ef004 	subs	pc, lr, #4

8000180c <except_dabort>:
8000180c:	eaffffe3 	b	800017a0 <except_unhandled>
80001810:	8f400000 	svchi	0x00400000
80001814:	8f800000 	svchi	0x00800000
80001818:	90000000 	andls	r0, r0, r0
8000181c:	80001780 	andhi	r1, r0, r0, lsl #15

80001820 <uart_init>:
80001820:	e52db004 	push	{fp}		; (str fp, [sp, #-4]!)
80001824:	e28db000 	add	fp, sp, #0
80001828:	e28bd000 	add	sp, fp, #0
8000182c:	e8bd0800 	ldmfd	sp!, {fp}
80001830:	e12fff1e 	bx	lr

80001834 <uart_print>:
80001834:	e52db004 	push	{fp}		; (str fp, [sp, #-4]!)
80001838:	e28db000 	add	fp, sp, #0
8000183c:	e24dd014 	sub	sp, sp, #20
80001840:	e50b0010 	str	r0, [fp, #-16]
80001844:	e3a03000 	mov	r3, #0
80001848:	e3413c09 	movt	r3, #7177	; 0x1c09
8000184c:	e50b3008 	str	r3, [fp, #-8]
80001850:	ea000006 	b	80001870 <uart_print+0x3c>
80001854:	e51b3010 	ldr	r3, [fp, #-16]
80001858:	e5d32000 	ldrb	r2, [r3]
8000185c:	e51b3008 	ldr	r3, [fp, #-8]
80001860:	e5c32000 	strb	r2, [r3]
80001864:	e51b3010 	ldr	r3, [fp, #-16]
80001868:	e2833001 	add	r3, r3, #1
8000186c:	e50b3010 	str	r3, [fp, #-16]
80001870:	e51b3010 	ldr	r3, [fp, #-16]
80001874:	e5d33000 	ldrb	r3, [r3]
80001878:	e3530000 	cmp	r3, #0
8000187c:	1afffff4 	bne	80001854 <uart_print+0x20>
80001880:	e28bd000 	add	sp, fp, #0
80001884:	e8bd0800 	ldmfd	sp!, {fp}
80001888:	e12fff1e 	bx	lr

8000188c <uart_putc>:
8000188c:	e52db004 	push	{fp}		; (str fp, [sp, #-4]!)
80001890:	e28db000 	add	fp, sp, #0
80001894:	e24dd014 	sub	sp, sp, #20
80001898:	e1a03000 	mov	r3, r0
8000189c:	e54b300d 	strb	r3, [fp, #-13]
800018a0:	e3a03000 	mov	r3, #0
800018a4:	e3413c09 	movt	r3, #7177	; 0x1c09
800018a8:	e50b3008 	str	r3, [fp, #-8]
800018ac:	e51b3008 	ldr	r3, [fp, #-8]
800018b0:	e55b200d 	ldrb	r2, [fp, #-13]
800018b4:	e5c32000 	strb	r2, [r3]
800018b8:	e28bd000 	add	sp, fp, #0
800018bc:	e8bd0800 	ldmfd	sp!, {fp}
800018c0:	e12fff1e 	bx	lr

800018c4 <uart_print_hex32>:
800018c4:	e92d4800 	push	{fp, lr}
800018c8:	e28db004 	add	fp, sp, #4
800018cc:	e24dd018 	sub	sp, sp, #24
800018d0:	e50b0018 	str	r0, [fp, #-24]
800018d4:	e3a0300f 	mov	r3, #15
800018d8:	e50b3010 	str	r3, [fp, #-16]
800018dc:	e3010e2c 	movw	r0, #7724	; 0x1e2c
800018e0:	e3480000 	movt	r0, #32768	; 0x8000
800018e4:	ebffffd2 	bl	80001834 <uart_print>
800018e8:	e3a03007 	mov	r3, #7
800018ec:	e50b300c 	str	r3, [fp, #-12]
800018f0:	ea000017 	b	80001954 <uart_print_hex32+0x90>
800018f4:	e51b300c 	ldr	r3, [fp, #-12]
800018f8:	e1a03103 	lsl	r3, r3, #2
800018fc:	e51b2018 	ldr	r2, [fp, #-24]
80001900:	e1a02332 	lsr	r2, r2, r3
80001904:	e51b3010 	ldr	r3, [fp, #-16]
80001908:	e0023003 	and	r3, r2, r3
8000190c:	e50b3008 	str	r3, [fp, #-8]
80001910:	e51b3008 	ldr	r3, [fp, #-8]
80001914:	e3530009 	cmp	r3, #9
80001918:	8a000003 	bhi	8000192c <uart_print_hex32+0x68>
8000191c:	e51b3008 	ldr	r3, [fp, #-8]
80001920:	e2833030 	add	r3, r3, #48	; 0x30
80001924:	e50b3008 	str	r3, [fp, #-8]
80001928:	ea000002 	b	80001938 <uart_print_hex32+0x74>
8000192c:	e51b3008 	ldr	r3, [fp, #-8]
80001930:	e2833037 	add	r3, r3, #55	; 0x37
80001934:	e50b3008 	str	r3, [fp, #-8]
80001938:	e51b3008 	ldr	r3, [fp, #-8]
8000193c:	e6ef3073 	uxtb	r3, r3
80001940:	e1a00003 	mov	r0, r3
80001944:	ebffffd0 	bl	8000188c <uart_putc>
80001948:	e51b300c 	ldr	r3, [fp, #-12]
8000194c:	e2433001 	sub	r3, r3, #1
80001950:	e50b300c 	str	r3, [fp, #-12]
80001954:	e51b300c 	ldr	r3, [fp, #-12]
80001958:	e3530000 	cmp	r3, #0
8000195c:	aaffffe4 	bge	800018f4 <uart_print_hex32+0x30>
80001960:	e24bd004 	sub	sp, fp, #4
80001964:	e8bd8800 	pop	{fp, pc}

80001968 <sp804_load>:
80001968:	e52db004 	push	{fp}		; (str fp, [sp, #-4]!)
8000196c:	e28db000 	add	fp, sp, #0
80001970:	e24dd00c 	sub	sp, sp, #12
80001974:	e50b0008 	str	r0, [fp, #-8]
80001978:	e50b100c 	str	r1, [fp, #-12]
8000197c:	e51b300c 	ldr	r3, [fp, #-12]
80001980:	e51b2008 	ldr	r2, [fp, #-8]
80001984:	e5832000 	str	r2, [r3]
80001988:	e28bd000 	add	sp, fp, #0
8000198c:	e8bd0800 	ldmfd	sp!, {fp}
80001990:	e12fff1e 	bx	lr

80001994 <sp804_init_periodic>:
80001994:	e92d4800 	push	{fp, lr}
80001998:	e28db004 	add	fp, sp, #4
8000199c:	e24dd010 	sub	sp, sp, #16
800019a0:	e50b0010 	str	r0, [fp, #-16]
800019a4:	e50b1014 	str	r1, [fp, #-20]
800019a8:	e3a03062 	mov	r3, #98	; 0x62
800019ac:	e50b3008 	str	r3, [fp, #-8]
800019b0:	e51b3010 	ldr	r3, [fp, #-16]
800019b4:	e2833008 	add	r3, r3, #8
800019b8:	e51b2008 	ldr	r2, [fp, #-8]
800019bc:	e5832000 	str	r2, [r3]
800019c0:	e51b3014 	ldr	r3, [fp, #-20]
800019c4:	e3530000 	cmp	r3, #0
800019c8:	0a000003 	beq	800019dc <sp804_init_periodic+0x48>
800019cc:	e51b0014 	ldr	r0, [fp, #-20]
800019d0:	e51b1010 	ldr	r1, [fp, #-16]
800019d4:	ebffffe3 	bl	80001968 <sp804_load>
800019d8:	ea000002 	b	800019e8 <sp804_init_periodic+0x54>
800019dc:	e3a00ffa 	mov	r0, #1000	; 0x3e8
800019e0:	e51b1010 	ldr	r1, [fp, #-16]
800019e4:	ebffffdf 	bl	80001968 <sp804_load>
800019e8:	e24bd004 	sub	sp, fp, #4
800019ec:	e8bd8800 	pop	{fp, pc}

800019f0 <sp804_init_oneshot>:
800019f0:	e52db004 	push	{fp}		; (str fp, [sp, #-4]!)
800019f4:	e28db000 	add	fp, sp, #0
800019f8:	e24dd014 	sub	sp, sp, #20
800019fc:	e50b0010 	str	r0, [fp, #-16]
80001a00:	e51b3010 	ldr	r3, [fp, #-16]
80001a04:	e2833008 	add	r3, r3, #8
80001a08:	e5933000 	ldr	r3, [r3]
80001a0c:	e50b3008 	str	r3, [fp, #-8]
80001a10:	e51b3008 	ldr	r3, [fp, #-8]
80001a14:	e3833003 	orr	r3, r3, #3
80001a18:	e50b3008 	str	r3, [fp, #-8]
80001a1c:	e51b3010 	ldr	r3, [fp, #-16]
80001a20:	e2833008 	add	r3, r3, #8
80001a24:	e51b2008 	ldr	r2, [fp, #-8]
80001a28:	e5832000 	str	r2, [r3]
80001a2c:	e28bd000 	add	sp, fp, #0
80001a30:	e8bd0800 	ldmfd	sp!, {fp}
80001a34:	e12fff1e 	bx	lr

80001a38 <sp804_init>:
80001a38:	e92d4800 	push	{fp, lr}
80001a3c:	e28db004 	add	fp, sp, #4
80001a40:	e24dd008 	sub	sp, sp, #8
80001a44:	e50b0008 	str	r0, [fp, #-8]
80001a48:	e50b100c 	str	r1, [fp, #-12]
80001a4c:	e51b0008 	ldr	r0, [fp, #-8]
80001a50:	e51b100c 	ldr	r1, [fp, #-12]
80001a54:	ebffffce 	bl	80001994 <sp804_init_periodic>
80001a58:	e51b0008 	ldr	r0, [fp, #-8]
80001a5c:	eb00000c 	bl	80001a94 <sp804_start>
80001a60:	e24bd004 	sub	sp, fp, #4
80001a64:	e8bd8800 	pop	{fp, pc}

80001a68 <sp804_stop>:
80001a68:	e52db004 	push	{fp}		; (str fp, [sp, #-4]!)
80001a6c:	e28db000 	add	fp, sp, #0
80001a70:	e24dd00c 	sub	sp, sp, #12
80001a74:	e50b0008 	str	r0, [fp, #-8]
80001a78:	e51b3008 	ldr	r3, [fp, #-8]
80001a7c:	e2833008 	add	r3, r3, #8
80001a80:	e3a02000 	mov	r2, #0
80001a84:	e5832000 	str	r2, [r3]
80001a88:	e28bd000 	add	sp, fp, #0
80001a8c:	e8bd0800 	ldmfd	sp!, {fp}
80001a90:	e12fff1e 	bx	lr

80001a94 <sp804_start>:
80001a94:	e52db004 	push	{fp}		; (str fp, [sp, #-4]!)
80001a98:	e28db000 	add	fp, sp, #0
80001a9c:	e24dd014 	sub	sp, sp, #20
80001aa0:	e50b0010 	str	r0, [fp, #-16]
80001aa4:	e51b3010 	ldr	r3, [fp, #-16]
80001aa8:	e2833008 	add	r3, r3, #8
80001aac:	e5933000 	ldr	r3, [r3]
80001ab0:	e50b3008 	str	r3, [fp, #-8]
80001ab4:	e51b3008 	ldr	r3, [fp, #-8]
80001ab8:	e3833080 	orr	r3, r3, #128	; 0x80
80001abc:	e50b3008 	str	r3, [fp, #-8]
80001ac0:	e51b3010 	ldr	r3, [fp, #-16]
80001ac4:	e2833008 	add	r3, r3, #8
80001ac8:	e51b2008 	ldr	r2, [fp, #-8]
80001acc:	e5832000 	str	r2, [r3]
80001ad0:	e28bd000 	add	sp, fp, #0
80001ad4:	e8bd0800 	ldmfd	sp!, {fp}
80001ad8:	e12fff1e 	bx	lr

80001adc <sp804_read>:
80001adc:	e52db004 	push	{fp}		; (str fp, [sp, #-4]!)
80001ae0:	e28db000 	add	fp, sp, #0
80001ae4:	e24dd00c 	sub	sp, sp, #12
80001ae8:	e50b0008 	str	r0, [fp, #-8]
80001aec:	e51b3008 	ldr	r3, [fp, #-8]
80001af0:	e2833004 	add	r3, r3, #4
80001af4:	e5933000 	ldr	r3, [r3]
80001af8:	e1a00003 	mov	r0, r3
80001afc:	e28bd000 	add	sp, fp, #0
80001b00:	e8bd0800 	ldmfd	sp!, {fp}
80001b04:	e12fff1e 	bx	lr

80001b08 <sp804_irq_clear>:
80001b08:	e52db004 	push	{fp}		; (str fp, [sp, #-4]!)
80001b0c:	e28db000 	add	fp, sp, #0
80001b10:	e24dd00c 	sub	sp, sp, #12
80001b14:	e50b0008 	str	r0, [fp, #-8]
80001b18:	e51b3008 	ldr	r3, [fp, #-8]
80001b1c:	e283300c 	add	r3, r3, #12
80001b20:	e3a02001 	mov	r2, #1
80001b24:	e5832000 	str	r2, [r3]
80001b28:	e28bd000 	add	sp, fp, #0
80001b2c:	e8bd0800 	ldmfd	sp!, {fp}
80001b30:	e12fff1e 	bx	lr

80001b34 <interrupt_sp804_timer>:
80001b34:	e92d4800 	push	{fp, lr}
80001b38:	e28db004 	add	fp, sp, #4
80001b3c:	e24dd018 	sub	sp, sp, #24
80001b40:	e50b0010 	str	r0, [fp, #-16]
80001b44:	e50b1014 	str	r1, [fp, #-20]
80001b48:	e50b2018 	str	r2, [fp, #-24]
80001b4c:	e3010e30 	movw	r0, #7728	; 0x1e30
80001b50:	e3480000 	movt	r0, #32768	; 0x8000
80001b54:	ebffff36 	bl	80001834 <uart_print>
80001b58:	e3a00000 	mov	r0, #0
80001b5c:	e3410c11 	movt	r0, #7185	; 0x1c11
80001b60:	ebffffdd 	bl	80001adc <sp804_read>
80001b64:	e50b0008 	str	r0, [fp, #-8]
80001b68:	e3010e5c 	movw	r0, #7772	; 0x1e5c
80001b6c:	e3480000 	movt	r0, #32768	; 0x8000
80001b70:	ebffff2f 	bl	80001834 <uart_print>
80001b74:	e51b0008 	ldr	r0, [fp, #-8]
80001b78:	ebffff51 	bl	800018c4 <uart_print_hex32>
80001b7c:	e3010e64 	movw	r0, #7780	; 0x1e64
80001b80:	e3480000 	movt	r0, #32768	; 0x8000
80001b84:	ebffff2a 	bl	80001834 <uart_print>
80001b88:	e3a00000 	mov	r0, #0
80001b8c:	e3410c11 	movt	r0, #7185	; 0x1c11
80001b90:	ebffffdc 	bl	80001b08 <sp804_irq_clear>
80001b94:	e3010e30 	movw	r0, #7728	; 0x1e30
80001b98:	e3480000 	movt	r0, #32768	; 0x8000
80001b9c:	ebffff24 	bl	80001834 <uart_print>
80001ba0:	e24bd004 	sub	sp, fp, #4
80001ba4:	e8bd8800 	pop	{fp, pc}

80001ba8 <hvmm_tests_sp804_timer>:
80001ba8:	e92d4800 	push	{fp, lr}
80001bac:	e28db004 	add	fp, sp, #4
80001bb0:	e3a00000 	mov	r0, #0
80001bb4:	e3410c11 	movt	r0, #7185	; 0x1c11
80001bb8:	e30816a0 	movw	r1, #34464	; 0x86a0
80001bbc:	e3401001 	movt	r1, #1
80001bc0:	ebffff9c 	bl	80001a38 <sp804_init>
80001bc4:	e3a00022 	mov	r0, #34	; 0x22
80001bc8:	ebfffac2 	bl	800006d8 <gic_enable_irq>
80001bcc:	e3a00022 	mov	r0, #34	; 0x22
80001bd0:	e3011b34 	movw	r1, #6964	; 0x1b34
80001bd4:	e3481000 	movt	r1, #32768	; 0x8000
80001bd8:	e3a02000 	mov	r2, #0
80001bdc:	ebfffae9 	bl	80000788 <gic_set_irq_handler>
80001be0:	e3a03000 	mov	r3, #0
80001be4:	e1a00003 	mov	r0, r3
80001be8:	e8bd8800 	pop	{fp, pc}

Disassembly of section .rodata:

80001bec <.LC0>:
80001bec:	6575675b 	ldrbvs	r6, [r5, #-1883]!	; 0x75b
80001bf0:	5d307473 	cfldrspl	mvf7, [r0, #-460]!	; 0xfffffe34
80001bf4:	00000020 	andeq	r0, r0, r0, lsr #32

80001bf8 <.LC1>:
80001bf8:	3d3d0d0a 	ldccc	13, cr0, [sp, #-40]!	; 0xffffffd8
80001bfc:	7453203d 	ldrbvc	r2, [r3], #-61	; 0x3d
80001c00:	69747261 	ldmdbvs	r4!, {r0, r5, r6, r9, ip, sp, lr}^
80001c04:	7020676e 	eorvc	r6, r0, lr, ror #14
80001c08:	6674616c 	ldrbtvs	r6, [r4], -ip, ror #2
80001c0c:	206d726f 	rsbcs	r7, sp, pc, ror #4
80001c10:	6e69616d 	powvsez	f6, f1, #5.0
80001c14:	00000d0a 	andeq	r0, r0, sl, lsl #26

80001c18 <.LC0>:
80001c18:	6575675b 	ldrbvs	r6, [r5, #-1883]!	; 0x75b
80001c1c:	5d307473 	cfldrspl	mvf7, [r0, #-460]!	; 0xfffffe34
80001c20:	00000020 	andeq	r0, r0, r0, lsr #32

80001c24 <.LC1>:
80001c24:	203d3d3d 	eorscs	r3, sp, sp, lsr sp
80001c28:	72617453 	rsbvc	r7, r1, #1392508928	; 0x53000000
80001c2c:	676e6974 			; <UNDEFINED> instruction: 0x676e6974
80001c30:	6d6f6320 	stclvs	3, cr6, [pc, #-128]!	; 80001bb8 <hvmm_tests_sp804_timer+0x10>
80001c34:	206d6f6d 	rsbcs	r6, sp, sp, ror #30
80001c38:	72617473 	rsbvc	r7, r1, #1929379840	; 0x73000000
80001c3c:	70752074 	rsbsvc	r2, r5, r4, ror r0
80001c40:	00000d0a 	andeq	r0, r0, sl, lsl #26

80001c44 <.LC2>:
80001c44:	72657469 	rsbvc	r7, r5, #1761607680	; 0x69000000
80001c48:	6f697461 	svcvs	0x00697461
80001c4c:	0000206e 	andeq	r2, r0, lr, rrx

80001c50 <.LC3>:
80001c50:	00000d0a 	andeq	r0, r0, sl, lsl #26

80001c54 <.LC4>:
80001c54:	63767368 	cmnvs	r6, #104, 6	; 0xa0000001
80001c58:	6e69705f 	mcrvs	0, 3, r7, cr9, cr15, {2}
80001c5c:	0a292867 	beq	80a4be00 <end_bss+0xa49de3>
80001c60:	0000000d 	andeq	r0, r0, sp

80001c64 <.LC5>:
80001c64:	75746572 	ldrbvc	r6, [r4, #-1394]!	; 0x572
80001c68:	64656e72 	strbtvs	r6, [r5], #-3698	; 0xe72
80001c6c:	6f726620 	svcvs	0x00726620
80001c70:	7368206d 	cmnvc	r8, #109	; 0x6d
80001c74:	705f6376 	subsvc	r6, pc, r6, ror r3	; <UNPREDICTABLE>
80001c78:	28676e69 	stmdacs	r7!, {r0, r3, r5, r6, r9, sl, fp, sp, lr}^
80001c7c:	000d0a29 	andeq	r0, sp, r9, lsr #20

80001c80 <.LC6>:
80001c80:	63767368 	cmnvs	r6, #104, 6	; 0xa0000001
80001c84:	6569795f 	strbvs	r7, [r9, #-2399]!	; 0x95f
80001c88:	2928646c 	stmdbcs	r8!, {r2, r3, r5, r6, sl, sp, lr}
80001c8c:	00000d0a 	andeq	r0, r0, sl, lsl #26

80001c90 <.LC7>:
80001c90:	75746572 	ldrbvc	r6, [r4, #-1394]!	; 0x572
80001c94:	64656e72 	strbtvs	r6, [r5], #-3698	; 0xe72
80001c98:	6f726620 	svcvs	0x00726620
80001c9c:	7368206d 	cmnvc	r8, #109	; 0x6d
80001ca0:	795f6376 	ldmdbvc	pc, {r1, r2, r4, r5, r6, r8, r9, sp, lr}^	; <UNPREDICTABLE>
80001ca4:	646c6569 	strbtvs	r6, [ip], #-1385	; 0x569
80001ca8:	0d0a2928 	stceq	9, cr2, [sl, #-160]	; 0xffffff60
80001cac:	00000000 	andeq	r0, r0, r0

80001cb0 <.LC8>:
80001cb0:	6d6d6f63 	stclvs	15, cr6, [sp, #-396]!	; 0xfffffe74
80001cb4:	6e206e6f 	cdpvs	14, 2, cr6, cr0, cr15, {3}
80001cb8:	6c5f6d72 	mrrcvs	13, 7, r6, pc, cr2	; <UNPREDICTABLE>
80001cbc:	20706f6f 	rsbscs	r6, r0, pc, ror #30
80001cc0:	656e6f64 	strbvs	r6, [lr, #-3940]!	; 0xf64
80001cc4:	00000d0a 	andeq	r0, r0, sl, lsl #26

80001cc8 <.LC9>:
80001cc8:	2d4b5b0a 	vstrcs	d21, [fp, #-40]	; 0xffffffd8
80001ccc:	45505948 	ldrbmi	r5, [r0, #-2376]	; 0x948
80001cd0:	53495652 	movtpl	r5, #38482	; 0x9652
80001cd4:	545d524f 	ldrbpl	r5, [sp], #-591	; 0x24f
80001cd8:	23545345 	cmpcs	r4, #335544321	; 0x14000001
80001cdc:	54534e49 	ldrbpl	r4, [r3], #-3657	; 0xe49
80001ce0:	414c4c41 	cmpmi	ip, r1, asr #24
80001ce4:	4e4f4954 	mcrmi	9, 2, r4, cr15, cr4, {2}
80001ce8:	474d4223 	strbmi	r4, [sp, -r3, lsr #4]
80001cec:	54534555 	ldrbpl	r4, [r3], #-1365	; 0x555
80001cf0:	4f4f422d 	svcmi	0x004f422d
80001cf4:	41502354 	cmpmi	r0, r4, asr r3
80001cf8:	0d0a5353 	stceq	3, cr5, [sl, #-332]	; 0xfffffeb4
80001cfc:	00000000 	andeq	r0, r0, r0

80001d00 <.LC0>:
80001d00:	00000d0a 	andeq	r0, r0, sl, lsl #26

80001d04 <.LC1>:
80001d04:	7264696d 	rsbvc	r6, r4, #1785856	; 0x1b4000
80001d08:	0000003a 	andeq	r0, r0, sl, lsr r0

80001d0c <.LC2>:
80001d0c:	20636967 	rsbcs	r6, r3, r7, ror #18
80001d10:	65736162 	ldrbvs	r6, [r3, #-354]!	; 0x162
80001d14:	72646461 	rsbvc	r6, r4, #1627389952	; 0x61000000
80001d18:	0000003a 	andeq	r0, r0, sl, lsr r0

80001d1c <.LC3>:
80001d1c:	675f6162 	ldrbvs	r6, [pc, -r2, ror #2]
80001d20:	3a646369 	bcc	8191aacc <end_bss+0x1918aaf>
80001d24:	00000000 	andeq	r0, r0, r0

80001d28 <.LC4>:
80001d28:	44434947 	strbmi	r4, [r3], #-2375	; 0x947
80001d2c:	5059545f 	subspl	r5, r9, pc, asr r4
80001d30:	003a5245 	eorseq	r5, sl, r5, asr #4

80001d34 <.LC5>:
80001d34:	675f6162 	ldrbvs	r6, [pc, -r2, ror #2]
80001d38:	3a636369 	bcc	818daae4 <end_bss+0x18d8ac7>
80001d3c:	00000000 	andeq	r0, r0, r0

80001d40 <.LC6>:
80001d40:	43434947 	movtmi	r4, #14663	; 0x3947
80001d44:	4c54435f 	mrrcmi	3, 5, r4, r4, cr15	; <UNPREDICTABLE>
80001d48:	00003a52 	andeq	r3, r0, r2, asr sl

80001d4c <.LC7>:
80001d4c:	43494720 	movtmi	r4, #38688	; 0x9720
80001d50:	4d505f43 	ldclmi	15, cr5, [r0, #-268]	; 0xfffffef4
80001d54:	00003a52 	andeq	r3, r0, r2, asr sl

80001d58 <.LC8>:
80001d58:	43494720 	movtmi	r4, #38688	; 0x9720
80001d5c:	50425f43 	subpl	r5, r2, r3, asr #30
80001d60:	00003a52 	andeq	r3, r0, r2, asr sl

80001d64 <.LC9>:
80001d64:	43494720 	movtmi	r4, #38688	; 0x9720
80001d68:	50525f43 	subspl	r5, r2, r3, asr #30
80001d6c:	00003a52 	andeq	r3, r0, r2, asr sl

80001d70 <.LC10>:
80001d70:	43434947 	movtmi	r4, #14663	; 0x3947
80001d74:	5050485f 	subspl	r4, r0, pc, asr r8
80001d78:	003a5249 	eorseq	r5, sl, r9, asr #4

80001d7c <.LC11>:
80001d7c:	43434947 	movtmi	r4, #14663	; 0x3947
80001d80:	4449495f 	strbmi	r4, [r9], #-2399	; 0x95f
80001d84:	00003a52 	andeq	r3, r0, r2, asr sl

80001d88 <.LC12>:
80001d88:	76434947 	strbvc	r4, [r3], -r7, asr #18
80001d8c:	6e552032 	mrcvs	0, 2, r2, cr5, cr2, {1}
80001d90:	70707573 	rsbsvc	r7, r0, r3, ror r5
80001d94:	6574726f 	ldrbvs	r7, [r4, #-623]!	; 0x26f
80001d98:	000d0a64 	andeq	r0, sp, r4, ror #20

80001d9c <.LC13>:
80001d9c:	7264696d 	rsbvc	r6, r4, #1785856	; 0x1b4000
80001da0:	6e70702e 	cdpvs	0, 7, cr7, cr0, cr14, {1}
80001da4:	0000003a 	andeq	r0, r0, sl, lsr r0

80001da8 <.LC0>:
80001da8:	76656476 			; <UNDEFINED> instruction: 0x76656476
80001dac:	6d61735f 	stclvs	3, cr7, [r1, #-380]!	; 0xfffffe84
80001db0:	3a656c70 	bcc	8195cf78 <end_bss+0x195af5b>
80001db4:	61745320 	cmnvs	r4, r0, lsr #6
80001db8:	6e697472 	mcrvs	4, 3, r7, cr9, cr2, {3}
80001dbc:	65742067 	ldrbvs	r2, [r4, #-103]!	; 0x67
80001dc0:	2e2e7473 	mcrcs	4, 1, r7, cr14, cr3, {3}
80001dc4:	62202c2e 	eorvs	r2, r0, #11776	; 0x2e00
80001dc8:	3a657361 	bcc	8195eb54 <end_bss+0x195cb37>
80001dcc:	00000000 	andeq	r0, r0, r0

80001dd0 <.LC1>:
80001dd0:	00000d0a 	andeq	r0, r0, sl, lsl #26

80001dd4 <.LC2>:
80001dd4:	00283176 	eoreq	r3, r8, r6, ror r1

80001dd8 <.LC3>:
80001dd8:	32762b29 	rsbscc	r2, r6, #41984	; 0xa400
80001ddc:	00000028 	andeq	r0, r0, r8, lsr #32

80001de0 <.LC4>:
80001de0:	000d0a29 	andeq	r0, sp, r9, lsr #20

80001de4 <.LC5>:
80001de4:	20202020 	eorcs	r2, r0, r0, lsr #32
80001de8:	2872203d 	ldmdacs	r2!, {r0, r2, r3, r4, r5, sp}^
80001dec:	00000000 	andeq	r0, r0, r0

80001df0 <.LC6>:
80001df0:	202d2029 	eorcs	r2, sp, r9, lsr #32
80001df4:	00004b4f 	andeq	r4, r0, pc, asr #22

80001df8 <.LC7>:
80001df8:	202d2029 	eorcs	r2, sp, r9, lsr #32
80001dfc:	4c494146 	stfmie	f4, [r9], {70}	; 0x46
80001e00:	00004445 	andeq	r4, r0, r5, asr #8

80001e04 <.LC8>:
80001e04:	76656476 			; <UNDEFINED> instruction: 0x76656476
80001e08:	6d61735f 	stclvs	3, cr7, [r1, #-380]!	; 0xfffffe84
80001e0c:	3a656c70 	bcc	8195cfd4 <end_bss+0x195afb7>
80001e10:	646e4520 	strbtvs	r4, [lr], #-1312	; 0x520
80001e14:	00000d0a 	andeq	r0, r0, sl, lsl #26

80001e18 <hexchars.3940>:
80001e18:	33323130 	teqcc	r2, #48, 2
80001e1c:	37363534 			; <UNDEFINED> instruction: 0x37363534
80001e20:	42413938 	submi	r3, r1, #56, 18	; 0xe0000
80001e24:	46454443 	strbmi	r4, [r5], -r3, asr #8
80001e28:	00000000 	andeq	r0, r0, r0

80001e2c <.LC0>:
80001e2c:	00007830 	andeq	r7, r0, r0, lsr r8

80001e30 <.LC0>:
80001e30:	3d3d3d3d 	ldccc	13, cr3, [sp, #-244]!	; 0xffffff0c
80001e34:	3d3d3d3d 	ldccc	13, cr3, [sp, #-244]!	; 0xffffff0c
80001e38:	3d3d3d3d 	ldccc	13, cr3, [sp, #-244]!	; 0xffffff0c
80001e3c:	3d3d3d3d 	ldccc	13, cr3, [sp, #-244]!	; 0xffffff0c
80001e40:	3d3d3d3d 	ldccc	13, cr3, [sp, #-244]!	; 0xffffff0c
80001e44:	3d3d3d3d 	ldccc	13, cr3, [sp, #-244]!	; 0xffffff0c
80001e48:	3d3d3d3d 	ldccc	13, cr3, [sp, #-244]!	; 0xffffff0c
80001e4c:	3d3d3d3d 	ldccc	13, cr3, [sp, #-244]!	; 0xffffff0c
80001e50:	3d3d3d3d 	ldccc	13, cr3, [sp, #-244]!	; 0xffffff0c
80001e54:	0a3d3d3d 	beq	80f51350 <end_bss+0xf4f333>
80001e58:	0000000d 	andeq	r0, r0, sp

80001e5c <.LC1>:
80001e5c:	30387073 	eorscc	r7, r8, r3, ror r0
80001e60:	00003a34 	andeq	r3, r0, r4, lsr sl

80001e64 <.LC2>:
80001e64:	00000d0a 	andeq	r0, r0, sl, lsl #26

Disassembly of section .data:

80001e68 <base>:
80001e68:	3fffe000 	svccc	0x00ffe000

Disassembly of section .bss:

80001e6c <begin_bss>:
	...

8000201c <_dummy_byte>:
	...

Disassembly of section .ARM.attributes:

00000000 <.ARM.attributes>:
   0:	00003d41 	andeq	r3, r0, r1, asr #26
   4:	61656100 	cmnvs	r5, r0, lsl #2
   8:	01006962 	tsteq	r0, r2, ror #18
   c:	00000033 	andeq	r0, r0, r3, lsr r0
  10:	726f4305 	rsbvc	r4, pc, #335544320	; 0x14000000
  14:	2d786574 	cfldr64cs	mvdx6, [r8, #-464]!	; 0xfffffe30
  18:	00353141 	eorseq	r3, r5, r1, asr #2
  1c:	41070a06 	tstmi	r7, r6, lsl #20
  20:	02090108 	andeq	r0, r9, #8, 2
  24:	0412040a 	ldreq	r0, [r2], #-1034	; 0x40a
  28:	01150114 	tsteq	r5, r4, lsl r1
  2c:	01180317 	tsteq	r8, r7, lsl r3
  30:	031b021a 	tsteq	fp, #-1610612735	; 0xa0000001
  34:	0122011c 	teqeq	r2, ip, lsl r1
  38:	022c012a 	eoreq	r0, ip, #-2147483638	; 0x8000000a
  3c:	Address 0x000000000000003c is out of bounds.


Disassembly of section .comment:

00000000 <.comment>:
   0:	3a434347 	bcc	10d0d24 <GUEST_OFFSET-0x7ef2f2dc>
   4:	62552820 	subsvs	r2, r5, #32, 16	; 0x200000
   8:	75746e75 	ldrbvc	r6, [r4, #-3701]!	; 0xe75
   c:	6e694c2f 	cdpvs	12, 6, cr4, cr9, cr15, {1}
  10:	206f7261 	rsbcs	r7, pc, r1, ror #4
  14:	2e372e34 	mrccs	14, 1, r2, cr7, cr4, {1}
  18:	31312d33 	teqcc	r1, r3, lsr sp
  1c:	6e756275 	mrcvs	2, 3, r6, cr5, cr5, {3}
  20:	29317574 	ldmdbcs	r1!, {r2, r4, r5, r6, r8, sl, ip, sp, lr}
  24:	372e3420 	strcc	r3, [lr, -r0, lsr #8]!
  28:	Address 0x0000000000000028 is out of bounds.


Disassembly of section .debug_line:

00000000 <.debug_line>:
   0:	00000032 	andeq	r0, r0, r2, lsr r0
   4:	001d0002 	andseq	r0, sp, r2
   8:	01020000 	mrseq	r0, (UNDEF: 2)
   c:	000d0efb 	strdeq	r0, [sp], -fp
  10:	01010101 	tsteq	r1, r1, lsl #2
  14:	01000000 	mrseq	r0, (UNDEF: 0)
  18:	00010000 	andeq	r0, r1, r0
  1c:	746f6f62 	strbtvc	r6, [pc], #-3938	; 24 <GUEST_OFFSET-0x7fffffdc>
  20:	0000532e 	andeq	r5, r0, lr, lsr #6
  24:	00000000 	andeq	r0, r0, r0
  28:	00000205 	andeq	r0, r0, r5, lsl #4
  2c:	0f038000 	svceq	0x00038000
  30:	00020201 	andeq	r0, r2, r1, lsl #4
  34:	003b0101 	eorseq	r0, fp, r1, lsl #2
  38:	00020000 	andeq	r0, r2, r0
  3c:	0000001d 	andeq	r0, r0, sp, lsl r0
  40:	0efb0102 	cdpeq	1, 15, cr0, cr11, cr2, {0}
  44:	0101000d 	tsteq	r1, sp
  48:	00000101 	andeq	r0, r0, r1, lsl #2
  4c:	00000100 	andeq	r0, r0, r0, lsl #2
  50:	616d0001 	cmnvs	sp, r1
  54:	632e6e69 	teqvs	lr, #1680	; 0x690
  58:	00000000 	andeq	r0, r0, r0
  5c:	02050000 	andeq	r0, r5, #0
  60:	80000004 	andhi	r0, r0, r4
  64:	4c011303 	stcmi	3, cr1, [r1], {3}
  68:	04020067 	streq	r0, [r2], #-103	; 0x67
  6c:	66190301 	ldrvs	r0, [r9], -r1, lsl #6
  70:	01000202 	tsteq	r0, r2, lsl #4
  74:	00008f01 	andeq	r8, r0, r1, lsl #30
  78:	3e000200 	cdpcc	2, 0, cr0, cr0, cr0, {0}
  7c:	02000000 	andeq	r0, r0, #0
  80:	0d0efb01 	vstreq	d15, [lr, #-4]
  84:	01010100 	mrseq	r0, (UNDEF: 17)
  88:	00000001 	andeq	r0, r0, r1
  8c:	01000001 	tsteq	r0, r1
  90:	2e2f2e2e 	cdpcs	14, 2, cr2, cr15, cr14, {1}
  94:	2e2e2f2e 	cdpcs	15, 2, cr2, cr14, cr14, {1}
  98:	2f2e2e2f 	svccs	0x002e2e2f
  9c:	6d6d6f63 	stclvs	15, cr6, [sp, #-396]!	; 0xfffffe74
  a0:	672f6e6f 	strvs	r6, [pc, -pc, ror #28]!
  a4:	74736575 	ldrbtvc	r6, [r3], #-1397	; 0x575
  a8:	726f632f 	rsbvc	r6, pc, #-1140850688	; 0xbc000000
  ac:	63000065 	movwvs	r0, #101	; 0x65
  b0:	6174735f 	cmnvs	r4, pc, asr r3
  b4:	632e7472 	teqvs	lr, #1912602624	; 0x72000000
  b8:	00000100 	andeq	r0, r0, r0, lsl #2
  bc:	02050000 	andeq	r0, r5, #0
  c0:	80000028 	andhi	r0, r0, r8, lsr #32
  c4:	67013303 	strvs	r3, [r1, -r3, lsl #6]
  c8:	0402004b 	streq	r0, [r2], #-75	; 0x4b
  cc:	00660602 	rsbeq	r0, r6, r2, lsl #12
  d0:	66010402 	strvs	r0, [r1], -r2, lsl #8
  d4:	67698406 	strbvs	r8, [r9, -r6, lsl #8]!
  d8:	68692f4e 	stmdavs	r9!, {r1, r2, r3, r6, r8, r9, sl, fp, sp}^
  dc:	09034c30 	stmdbeq	r3, {r4, r5, sl, fp, lr}
  e0:	6767672e 	strbvs	r6, [r7, -lr, lsr #14]!
  e4:	83336767 	teqhi	r3, #27000832	; 0x19c0000
  e8:	672f6767 	strvs	r6, [pc, -r7, ror #14]!
  ec:	2f676784 	svccs	0x00676784
  f0:	63036e67 	movwvs	r6, #15975	; 0x3e67
  f4:	0402002e 	streq	r0, [r2], #-46	; 0x2e
  f8:	06660601 	strbteq	r0, [r6], -r1, lsl #12
  fc:	67822003 	strvs	r2, [r2, r3]
 100:	022f6867 	eoreq	r6, pc, #6750208	; 0x670000
 104:	01010004 	tsteq	r1, r4
 108:	0000005b 	andeq	r0, r0, fp, asr r0
 10c:	00400002 	subeq	r0, r0, r2
 110:	01020000 	mrseq	r0, (UNDEF: 2)
 114:	000d0efb 	strdeq	r0, [sp], -fp
 118:	01010101 	tsteq	r1, r1, lsl #2
 11c:	01000000 	mrseq	r0, (UNDEF: 0)
 120:	2e010000 	cdpcs	0, 0, cr0, cr1, cr0, {0}
 124:	2e2e2f2e 	cdpcs	15, 2, cr2, cr14, cr14, {1}
 128:	2f2e2e2f 	svccs	0x002e2e2f
 12c:	632f2e2e 	teqvs	pc, #736	; 0x2e0
 130:	6f6d6d6f 	svcvs	0x006d6d6f
 134:	75672f6e 	strbvc	r2, [r7, #-3950]!	; 0xf6e
 138:	2f747365 	svccs	0x00747365
 13c:	65726f63 	ldrbvs	r6, [r2, #-3939]!	; 0xf63
 140:	78650000 	stmdavc	r5!, {}^	; <UNPREDICTABLE>
 144:	74706563 	ldrbtvc	r6, [r0], #-1379	; 0x563
 148:	2e6e6f69 	cdpcs	15, 6, cr6, cr14, cr9, {3}
 14c:	00010063 	andeq	r0, r1, r3, rrx
 150:	05000000 	streq	r0, [r0, #-0]
 154:	0001bc02 	andeq	fp, r1, r2, lsl #24
 158:	010a0380 	smlabbeq	sl, r0, r3, r0
 15c:	69836983 	stmibvs	r3, {r0, r1, r7, r8, fp, sp, lr}
 160:	04026783 	streq	r6, [r2], #-1923	; 0x783
 164:	46010100 	strmi	r0, [r1], -r0, lsl #2
 168:	02000001 	andeq	r0, r0, #1
 16c:	00008700 	andeq	r8, r0, r0, lsl #14
 170:	fb010200 	blx	4097a <GUEST_OFFSET-0x7ffbf686>
 174:	01000d0e 	tsteq	r0, lr, lsl #26
 178:	00010101 	andeq	r0, r1, r1, lsl #2
 17c:	00010000 	andeq	r0, r1, r0
 180:	2e2e0100 	sufcse	f0, f6, f0
 184:	2f2e2e2f 	svccs	0x002e2e2f
 188:	2e2f2e2e 	cdpcs	14, 2, cr2, cr15, cr14, {1}
 18c:	6f632f2e 	svcvs	0x00632f2e
 190:	6e6f6d6d 	cdpvs	13, 6, cr6, cr15, cr13, {3}
 194:	636e692f 	cmnvs	lr, #770048	; 0xbc000
 198:	6564756c 	strbvs	r7, [r4, #-1388]!	; 0x56c
 19c:	2f2e2e00 	svccs	0x002e2e00
 1a0:	2e2f2e2e 	cdpcs	14, 2, cr2, cr15, cr14, {1}
 1a4:	2e2e2f2e 	cdpcs	15, 2, cr2, cr14, cr14, {1}
 1a8:	6d6f632f 	stclvs	3, cr6, [pc, #-188]!	; f4 <GUEST_OFFSET-0x7fffff0c>
 1ac:	2f6e6f6d 	svccs	0x006e6f6d
 1b0:	73657567 	cmnvc	r5, #432013312	; 0x19c00000
 1b4:	6f632f74 	svcvs	0x00632f74
 1b8:	00006572 	andeq	r6, r0, r2, ror r5
 1bc:	2e706d73 	mrccs	13, 3, r6, cr0, cr3, {3}
 1c0:	00010068 	andeq	r0, r1, r8, rrx
 1c4:	63696700 	cmnvs	r9, #0, 14
 1c8:	0200632e 	andeq	r6, r0, #-1207959552	; 0xb8000000
 1cc:	72610000 	rsbvc	r0, r1, #0
 1d0:	745f6863 	ldrbvc	r6, [pc], #-2147	; 1d8 <GUEST_OFFSET-0x7ffffe28>
 1d4:	73657079 	cmnvc	r5, #121	; 0x79
 1d8:	0100682e 	tsteq	r0, lr, lsr #16
 1dc:	76680000 	strbtvc	r0, [r8], -r0
 1e0:	745f6d6d 	ldrbvc	r6, [pc], #-3437	; 1e8 <GUEST_OFFSET-0x7ffffe18>
 1e4:	73657079 	cmnvc	r5, #121	; 0x79
 1e8:	0100682e 	tsteq	r0, lr, lsr #16
 1ec:	69670000 	stmdbvs	r7!, {}^	; <UNPREDICTABLE>
 1f0:	00682e63 	rsbeq	r2, r8, r3, ror #28
 1f4:	00000002 	andeq	r0, r0, r2
 1f8:	18020500 	stmdane	r2, {r8, sl}
 1fc:	03800002 	orreq	r0, r0, #2
 200:	83670115 	cmnhi	r7, #1073741829	; 0x40000005
 204:	22030204 	andcs	r0, r3, #4, 4	; 0x40000000
 208:	bbbb6982 	bllt	feeda818 <guest_stacklimit+0x6eeda818>
 20c:	bcbbbbbb 	fldmiaxlt	fp!, {d11-d103}	;@ Deprecated
 210:	67d7839f 	bfcvs	r8, #7, #17
 214:	68d7839f 	ldmvs	r7, {r0, r1, r2, r3, r4, r7, r8, r9, pc}^
 218:	6783694d 	strvs	r6, [r3, sp, asr #18]
 21c:	67bc674b 	ldrvs	r6, [ip, fp, asr #14]!
 220:	9f67679f 	svcls	0x0067679f
 224:	67d76767 	ldrbvs	r6, [r7, r7, ror #14]
 228:	67679f67 	strbvs	r9, [r7, -r7, ror #30]!
 22c:	d76767bb 			; <UNDEFINED> instruction: 0xd76767bb
 230:	67d76767 	ldrbvs	r6, [r7, r7, ror #14]
 234:	6767d767 	strbvs	sp, [r7, -r7, ror #14]!
 238:	d76767d7 			; <UNDEFINED> instruction: 0xd76767d7
 23c:	844d3168 	strbhi	r3, [sp], #-360	; 0x168
 240:	4b67834c 	blmi	19e0f78 <GUEST_OFFSET-0x7e61f088>
 244:	f383bb6d 			; <UNDEFINED> instruction: 0xf383bb6d
 248:	676768f3 			; <UNDEFINED> instruction: 0x676768f3
 24c:	2f4d679f 	svccs	0x004d679f
 250:	9108836b 	tstls	r8, fp, ror #6
 254:	0883852f 	stmeq	r3, {r0, r1, r2, r3, r5, r8, sl, pc}
 258:	bb862f91 	bllt	fe18c0a4 <guest_stacklimit+0x6e18c0a4>
 25c:	3d08674b 	stccc	7, cr6, [r8, #-300]	; 0xfffffed4
 260:	67852f4c 	strvs	r2, [r5, ip, asr #30]
 264:	0402004d 	streq	r0, [r2], #-77	; 0x4d
 268:	02006702 	andeq	r6, r0, #524288	; 0x80000
 26c:	3b080204 	blcc	200a84 <GUEST_OFFSET-0x7fdff57c>
 270:	01040200 	mrseq	r0, R12_usr
 274:	69066606 	stmdbvs	r6, {r1, r2, r9, sl, sp, lr}
 278:	bb3e0868 	bllt	f82420 <GUEST_OFFSET-0x7f07dbe0>
 27c:	4b833067 	blmi	fe0cc420 <guest_stacklimit+0x6e0cc420>
 280:	0200a067 	andeq	sl, r0, #103	; 0x67
 284:	00670204 	rsbeq	r0, r7, r4, lsl #4
 288:	08020402 	stmdaeq	r2, {r1, sl}
 28c:	0402001f 	streq	r0, [r2], #-31
 290:	06660601 	strbteq	r0, [r6], -r1, lsl #12
 294:	a6692f69 	strbtge	r2, [r9], -r9, ror #30
 298:	679f4d4c 	ldrvs	r4, [pc, ip, asr #26]
 29c:	9f6767bb 	svcls	0x006767bb
 2a0:	699f6767 	ldmibvs	pc, {r0, r1, r2, r5, r6, r8, r9, sl, sp, lr}	; <UNPREDICTABLE>
 2a4:	af085908 	svcge	0x00085908
 2a8:	ba0903bb 	blt	24119c <GUEST_OFFSET-0x7fdbee64>
 2ac:	01000402 	tsteq	r0, r2, lsl #8
 2b0:	0000ad01 	andeq	sl, r0, r1, lsl #26
 2b4:	72000200 	andvc	r0, r0, #0, 4
 2b8:	02000000 	andeq	r0, r0, #0
 2bc:	0d0efb01 	vstreq	d15, [lr, #-4]
 2c0:	01010100 	mrseq	r0, (UNDEF: 17)
 2c4:	00000001 	andeq	r0, r0, r1
 2c8:	01000001 	tsteq	r0, r1
 2cc:	2e2f2e2e 	cdpcs	14, 2, cr2, cr15, cr14, {1}
 2d0:	2e2e2f2e 	cdpcs	15, 2, cr2, cr14, cr14, {1}
 2d4:	2f2e2e2f 	svccs	0x002e2e2f
 2d8:	6d6d6f63 	stclvs	15, cr6, [sp, #-396]!	; 0xfffffe74
 2dc:	672f6e6f 	strvs	r6, [pc, -pc, ror #28]!
 2e0:	74736575 	ldrbtvc	r6, [r3], #-1397	; 0x575
 2e4:	7365742f 	cmnvc	r5, #788529152	; 0x2f000000
 2e8:	2e2e0074 	mcrcs	0, 1, r0, cr14, cr4, {3}
 2ec:	2f2e2e2f 	svccs	0x002e2e2f
 2f0:	2e2f2e2e 	cdpcs	14, 2, cr2, cr15, cr14, {1}
 2f4:	6f632f2e 	svcvs	0x00632f2e
 2f8:	6e6f6d6d 	cdpvs	13, 6, cr6, cr15, cr13, {3}
 2fc:	636e692f 	cmnvs	lr, #770048	; 0xbc000
 300:	6564756c 	strbvs	r7, [r4, #-1388]!	; 0x56c
 304:	65740000 	ldrbvs	r0, [r4, #-0]!
 308:	765f7473 			; <UNDEFINED> instruction: 0x765f7473
 30c:	5f766564 	svcpl	0x00766564
 310:	706d6173 	rsbvc	r6, sp, r3, ror r1
 314:	632e656c 	teqvs	lr, #108, 10	; 0x1b000000
 318:	00000100 	andeq	r0, r0, r0, lsl #2
 31c:	68637261 	stmdavs	r3!, {r0, r5, r6, r9, ip, sp, lr}^
 320:	7079745f 	rsbsvc	r7, r9, pc, asr r4
 324:	682e7365 	stmdavs	lr!, {r0, r2, r5, r6, r8, r9, ip, sp, lr}
 328:	00000200 	andeq	r0, r0, r0, lsl #4
 32c:	02050000 	andeq	r0, r5, #0
 330:	80000aa0 	andhi	r0, r0, r0, lsr #21
 334:	67010a03 	strvs	r0, [r1, -r3, lsl #20]
 338:	69674b67 	stmdbvs	r7!, {r0, r1, r2, r5, r6, r8, r9, fp, lr}^
 33c:	67676767 	strbvs	r6, [r7, -r7, ror #14]!
 340:	6767bb83 	strbvs	fp, [r7, -r3, lsl #23]!
 344:	67676767 	strbvs	r6, [r7, -r7, ror #14]!
 348:	67676767 	strbvs	r6, [r7, -r7, ror #14]!
 34c:	036884bb 	cmneq	r8, #-1157627904	; 0xbb000000
 350:	0200666e 	andeq	r6, r0, #115343360	; 0x6e00000
 354:	66060104 	strvs	r0, [r6], -r4, lsl #2
 358:	66140306 	ldrvs	r0, [r4], -r6, lsl #6
 35c:	00040267 	andeq	r0, r4, r7, ror #4
 360:	00820101 	addeq	r0, r2, r1, lsl #2
 364:	00020000 	andeq	r0, r2, r0
 368:	0000006d 	andeq	r0, r0, sp, rrx
 36c:	0efb0102 	cdpeq	1, 15, cr0, cr11, cr2, {0}
 370:	0101000d 	tsteq	r1, sp
 374:	00000101 	andeq	r0, r0, r1, lsl #2
 378:	00000100 	andeq	r0, r0, r0, lsl #2
 37c:	2f2e2e01 	svccs	0x002e2e01
 380:	2e2f2e2e 	cdpcs	14, 2, cr2, cr15, cr14, {1}
 384:	2e2e2f2e 	cdpcs	15, 2, cr2, cr14, cr14, {1}
 388:	6d6f632f 	stclvs	3, cr6, [pc, #-188]!	; 2d4 <GUEST_OFFSET-0x7ffffd2c>
 38c:	2f6e6f6d 	svccs	0x006e6f6d
 390:	73657567 	cmnvc	r5, #432013312	; 0x19c00000
 394:	65742f74 	ldrbvs	r2, [r4, #-3956]!	; 0xf74
 398:	2e007473 	mcrcs	4, 0, r7, cr0, cr3, {3}
 39c:	2e2e2f2e 	cdpcs	15, 2, cr2, cr14, cr14, {1}
 3a0:	2f2e2e2f 	svccs	0x002e2e2f
 3a4:	632f2e2e 	teqvs	pc, #736	; 0x2e0
 3a8:	6f6d6d6f 	svcvs	0x006d6d6f
 3ac:	6e692f6e 	cdpvs	15, 6, cr2, cr9, cr14, {3}
 3b0:	64756c63 	ldrbtvs	r6, [r5], #-3171	; 0xc63
 3b4:	74000065 	strvc	r0, [r0], #-101	; 0x65
 3b8:	5f747365 	svcpl	0x00747365
 3bc:	6d697476 	cfstrdvs	mvd7, [r9, #-472]!	; 0xfffffe28
 3c0:	632e7265 	teqvs	lr, #1342177286	; 0x50000006
 3c4:	00000100 	andeq	r0, r0, r0, lsl #2
 3c8:	68637261 	stmdavs	r3!, {r0, r5, r6, r9, ip, sp, lr}^
 3cc:	7079745f 	rsbsvc	r7, r9, pc, asr r4
 3d0:	682e7365 	stmdavs	lr!, {r0, r2, r5, r6, r8, r9, ip, sp, lr}
 3d4:	00000200 	andeq	r0, r0, r0, lsl #4
 3d8:	02050000 	andeq	r0, r5, #0
 3dc:	80000c14 	andhi	r0, r0, r4, lsl ip
 3e0:	029f831a 	addseq	r8, pc, #1744830464	; 0x68000000
 3e4:	01010006 	tsteq	r1, r6
 3e8:	00000254 	andeq	r0, r0, r4, asr r2
 3ec:	00d40002 	sbcseq	r0, r4, r2
 3f0:	01020000 	mrseq	r0, (UNDEF: 2)
 3f4:	000d0efb 	strdeq	r0, [sp], -fp
 3f8:	01010101 	tsteq	r1, r1, lsl #2
 3fc:	01000000 	mrseq	r0, (UNDEF: 0)
 400:	2e010000 	cdpcs	0, 0, cr0, cr1, cr0, {0}
 404:	2e2e2f2e 	cdpcs	15, 2, cr2, cr14, cr14, {1}
 408:	2f2e2e2f 	svccs	0x002e2e2f
 40c:	632f2e2e 	teqvs	pc, #736	; 0x2e0
 410:	6f6d6d6f 	svcvs	0x006d6d6f
 414:	6f6c2f6e 	svcvs	0x006c2f6e
 418:	752f0067 	strvc	r0, [pc, #-103]!	; 3b9 <GUEST_OFFSET-0x7ffffc47>
 41c:	6c2f7273 	sfmvs	f7, 4, [pc], #-460	; 258 <GUEST_OFFSET-0x7ffffda8>
 420:	672f6269 	strvs	r6, [pc, -r9, ror #4]!
 424:	632d6363 	teqvs	sp, #-1946157055	; 0x8c000001
 428:	73736f72 	cmnvc	r3, #456	; 0x1c8
 42c:	6d72612f 	ldfvse	f6, [r2, #-188]!	; 0xffffff44
 430:	6e696c2d 	cdpvs	12, 6, cr6, cr9, cr13, {1}
 434:	672d7875 			; <UNDEFINED> instruction: 0x672d7875
 438:	6165756e 	cmnvs	r5, lr, ror #10
 43c:	66686962 	strbtvs	r6, [r8], -r2, ror #18
 440:	372e342f 	strcc	r3, [lr, -pc, lsr #8]!
 444:	2f2e2e2f 	svccs	0x002e2e2f
 448:	2e2f2e2e 	cdpcs	14, 2, cr2, cr15, cr14, {1}
 44c:	2e2e2f2e 	cdpcs	15, 2, cr2, cr14, cr14, {1}
 450:	6d72612f 	ldfvse	f6, [r2, #-188]!	; 0xffffff44
 454:	6e696c2d 	cdpvs	12, 6, cr6, cr9, cr13, {1}
 458:	672d7875 			; <UNDEFINED> instruction: 0x672d7875
 45c:	6165756e 	cmnvs	r5, lr, ror #10
 460:	66686962 	strbtvs	r6, [r8], -r2, ror #18
 464:	636e692f 	cmnvs	lr, #770048	; 0xbc000
 468:	6564756c 	strbvs	r7, [r4, #-1388]!	; 0x56c
 46c:	73752f00 	cmnvc	r5, #0, 30
 470:	696c2f72 	stmdbvs	ip!, {r1, r4, r5, r6, r8, r9, sl, fp, sp}^
 474:	63672f62 	cmnvs	r7, #392	; 0x188
 478:	72632d63 	rsbvc	r2, r3, #6336	; 0x18c0
 47c:	2f73736f 	svccs	0x0073736f
 480:	2d6d7261 	sfmcs	f7, 2, [sp, #-388]!	; 0xfffffe7c
 484:	756e696c 	strbvc	r6, [lr, #-2412]!	; 0x96c
 488:	6e672d78 	mcrvs	13, 3, r2, cr7, cr8, {3}
 48c:	62616575 	rsbvs	r6, r1, #490733568	; 0x1d400000
 490:	2f666869 	svccs	0x00666869
 494:	2f372e34 	svccs	0x00372e34
 498:	6c636e69 	stclvs	14, cr6, [r3], #-420	; 0xfffffe5c
 49c:	00656475 	rsbeq	r6, r5, r5, ror r4
 4a0:	72747300 	rsbsvc	r7, r4, #0, 6
 4a4:	2e676e69 	cdpcs	14, 6, cr6, cr7, cr9, {3}
 4a8:	00010063 	andeq	r0, r1, r3, rrx
 4ac:	72747300 	rsbsvc	r7, r4, #0, 6
 4b0:	2e676e69 	cdpcs	14, 6, cr6, cr7, cr9, {3}
 4b4:	00020068 	andeq	r0, r2, r8, rrx
 4b8:	64747300 	ldrbtvs	r7, [r4], #-768	; 0x300
 4bc:	2e666564 	cdpcs	5, 6, cr6, cr6, cr4, {3}
 4c0:	00030068 	andeq	r0, r3, r8, rrx
 4c4:	05000000 	streq	r0, [r0, #-0]
 4c8:	000c4402 	andeq	r4, ip, r2, lsl #8
 4cc:	83bb1580 			; <UNDEFINED> instruction: 0x83bb1580
 4d0:	0402002f 	streq	r0, [r2], #-47	; 0x2f
 4d4:	083b0801 	ldmdaeq	fp!, {r0, fp}
 4d8:	bb852f3f 	bllt	fe14c1dc <guest_stacklimit+0x6e14c1dc>
 4dc:	2f68499f 	svccs	0x0068499f
 4e0:	01040200 	mrseq	r0, R12_usr
 4e4:	3f083b08 	svccc	0x00083b08
 4e8:	9fbb852f 	svcls	0x00bb852f
 4ec:	bc83bb69 	fstmiaxlt	r3, {d11-d62}	;@ Deprecated
 4f0:	4bbb699f 	blmi	feedab74 <guest_stacklimit+0x6eedab74>
 4f4:	0200672f 	andeq	r6, r0, #12320768	; 0xbc0000
 4f8:	00640104 	rsbeq	r0, r4, r4, lsl #2
 4fc:	06020402 	streq	r0, [r2], -r2, lsl #8
 500:	67be0666 	ldrvs	r0, [lr, r6, ror #12]!
 504:	83852f4c 	orrhi	r2, r5, #76, 30	; 0x130
 508:	02002f4b 	andeq	r2, r0, #300	; 0x12c
 50c:	84650104 	strbthi	r0, [r5], #-260	; 0x104
 510:	4bbb8567 	blmi	feee1ab4 <guest_stacklimit+0x6eee1ab4>
 514:	0402002f 	streq	r0, [r2], #-47	; 0x2f
 518:	3e08d501 	cfsh32cc	mvfx13, mvfx8, #1
 51c:	4bbb852f 	blmi	feee19e0 <guest_stacklimit+0x6eee19e0>
 520:	4bbb2f4b 	blmi	feecc254 <guest_stacklimit+0x6eecc254>
 524:	00674cbb 	strhteq	r4, [r7], #-203	; 0xffffff35
 528:	03010402 	movweq	r0, #5122	; 0x1402
 52c:	09036679 	stmdbeq	r3, {r0, r3, r4, r5, r6, r9, sl, sp, lr}
 530:	852f3c08 	strhi	r3, [pc, #-3080]!	; fffff930 <guest_stacklimit+0x6ffff930>
 534:	4bbb2f9f 	blmi	feecc3b8 <guest_stacklimit+0x6eecc3b8>
 538:	00674cbb 	strhteq	r4, [r7], #-203	; 0xffffff35
 53c:	03010402 	movweq	r0, #5122	; 0x1402
 540:	02006679 	andeq	r6, r0, #126877696	; 0x7900000
 544:	82060204 	andhi	r0, r6, #4, 4	; 0x40000000
 548:	82090306 	andhi	r0, r9, #402653184	; 0x18000000
 54c:	01040200 	mrseq	r0, R12_usr
 550:	83068206 	movwhi	r8, #25094	; 0x6206
 554:	2f4c834b 	svccs	0x004c834b
 558:	bb2fbb85 	bllt	bef374 <GUEST_OFFSET-0x7f410c8c>
 55c:	674bbb4b 	strbvs	fp, [fp, -fp, asr #22]
 560:	01040200 	mrseq	r0, R12_usr
 564:	00667a03 	rsbeq	r7, r6, r3, lsl #20
 568:	06020402 	streq	r0, [r2], -r2, lsl #8
 56c:	04020082 	streq	r0, [r2], #-130	; 0x82
 570:	08068201 	stmdaeq	r6, {r0, r9, pc}
 574:	04020044 	streq	r0, [r2], #-68	; 0x44
 578:	06660601 	strbteq	r0, [r6], -r1, lsl #12
 57c:	4c834bf3 	fstmiaxmi	r3, {d4-d124}	;@ Deprecated
 580:	4b9f852f 	blmi	fe7e1a44 <guest_stacklimit+0x6e7e1a44>
 584:	0402002f 	streq	r0, [r2], #-47	; 0x2f
 588:	02006501 	andeq	r6, r0, #4194304	; 0x400000
 58c:	82060204 	andhi	r0, r6, #4, 4	; 0x40000000
 590:	4c83bd06 	stcmi	13, cr11, [r3], {6}
 594:	00a0852f 	adceq	r8, r0, pc, lsr #10
 598:	67020402 	strvs	r0, [r2, -r2, lsl #8]
 59c:	02040200 	andeq	r0, r4, #0, 4
 5a0:	040200f1 	streq	r0, [r2], #-241	; 0xf1
 5a4:	06660601 	strbteq	r0, [r6], -r1, lsl #12
 5a8:	852f9fbd 	strhi	r9, [pc, #-4029]!	; fffff5f3 <guest_stacklimit+0x6ffff5f3>
 5ac:	004c4b83 	subeq	r4, ip, r3, lsl #23
 5b0:	06010402 	streq	r0, [r1], -r2, lsl #8
 5b4:	4c9f0682 	ldcmi	6, cr0, [pc], {130}	; 0x82
 5b8:	0402002f 	streq	r0, [r2], #-47	; 0x2f
 5bc:	06ba0601 	ldrteq	r0, [sl], r1, lsl #12
 5c0:	003d08bb 	ldrhteq	r0, [sp], -fp
 5c4:	06010402 	streq	r0, [r1], -r2, lsl #8
 5c8:	08bb06ba 	ldmeq	fp!, {r1, r3, r4, r5, r7, r9, sl}
 5cc:	0402003d 	streq	r0, [r2], #-61	; 0x3d
 5d0:	06ba0601 	ldrteq	r0, [sl], r1, lsl #12
 5d4:	032108bb 	teqeq	r1, #12255232	; 0xbb0000
 5d8:	02008279 	andeq	r8, r0, #-1879048185	; 0x90000007
 5dc:	2e060104 	adfcss	f0, f6, f4
 5e0:	ba0a0306 	blt	281200 <GUEST_OFFSET-0x7fd7ee00>
 5e4:	4d9f852f 	cfldr32mi	mvfx8, [pc, #188]	; 6a8 <GUEST_OFFSET-0x7ffff958>
 5e8:	04020067 	streq	r0, [r2], #-103	; 0x67
 5ec:	06660601 	strbteq	r0, [r6], -r1, lsl #12
 5f0:	842df3f6 	strthi	pc, [sp], #-1014	; 0x3f6
 5f4:	02002b7e 	andeq	r2, r0, #129024	; 0x1f800
 5f8:	66060104 	strvs	r0, [r6], -r4, lsl #2
 5fc:	66090306 	strvs	r0, [r9], -r6, lsl #6
 600:	9f689f67 	svcls	0x00689f67
 604:	002f9f69 	eoreq	r9, pc, r9, ror #30
 608:	65010402 	strvs	r0, [r1, #-1026]	; 0x402
 60c:	67832f85 	strvs	r2, [r3, r5, lsl #31]
 610:	01040200 	mrseq	r0, R12_usr
 614:	2f678763 	svccs	0x00678763
 618:	bbbc8385 	bllt	fef21434 <guest_stacklimit+0x6ef21434>
 61c:	082f694b 	stmdaeq	pc!, {r0, r1, r3, r6, r8, fp, sp, lr}	; <UNPREDICTABLE>
 620:	02008091 	andeq	r8, r0, #145	; 0x91
 624:	2e060104 	adfcss	f0, f6, f4
 628:	0200bf06 	andeq	fp, r0, #6, 30
 62c:	66060104 	strvs	r0, [r6], -r4, lsl #2
 630:	02040200 	andeq	r0, r4, #0, 4
 634:	04020066 	streq	r0, [r2], #-102	; 0x66
 638:	022f0603 	eoreq	r0, pc, #3145728	; 0x300000
 63c:	01010008 	tsteq	r1, r8
 640:	00000086 	andeq	r0, r0, r6, lsl #1
 644:	003c0002 	eorseq	r0, ip, r2
 648:	01020000 	mrseq	r0, (UNDEF: 2)
 64c:	000d0efb 	strdeq	r0, [sp], -fp
 650:	01010101 	tsteq	r1, r1, lsl #2
 654:	01000000 	mrseq	r0, (UNDEF: 0)
 658:	2e010000 	cdpcs	0, 0, cr0, cr1, cr0, {0}
 65c:	2e2e2f2e 	cdpcs	15, 2, cr2, cr14, cr14, {1}
 660:	2f2e2e2f 	svccs	0x002e2e2f
 664:	632f2e2e 	teqvs	pc, #736	; 0x2e0
 668:	6f6d6d6f 	svcvs	0x006d6d6f
 66c:	75672f6e 	strbvc	r2, [r7, #-3950]!	; 0xf6e
 670:	2f747365 	svccs	0x00747365
 674:	65726f63 	ldrbvs	r6, [r2, #-3939]!	; 0xf63
 678:	75670000 	strbvc	r0, [r7, #-0]!
 67c:	2e747365 	cdpcs	3, 7, cr7, cr4, cr5, {3}
 680:	00010053 	andeq	r0, r1, r3, asr r0
 684:	05000000 	streq	r0, [r0, #-0]
 688:	00174002 	andseq	r4, r7, r2
 68c:	010f0380 	smlabbeq	pc, r0, r3, r0	; <UNPREDICTABLE>
 690:	2f312f31 	svccs	0x00312f31
 694:	03312f31 	teqeq	r1, #49, 30	; 0xc4
 698:	f7302e0e 			; <UNDEFINED> instruction: 0xf7302e0e
 69c:	2f2f2f2f 	svccs	0x002f2f2f
 6a0:	2f322f2f 	svccs	0x00322f2f
 6a4:	312f302f 	teqcc	pc, pc, lsr #32
 6a8:	322f2f2f 	eorcc	r2, pc, #47, 30	; 0xbc
 6ac:	2f302f2f 	svccs	0x00302f2f
 6b0:	2f2f2f31 	svccs	0x002f2f31
 6b4:	302f2f32 	eorcc	r2, pc, r2, lsr pc	; <UNPREDICTABLE>
 6b8:	2f2f312f 	svccs	0x002f312f
 6bc:	a2033331 	andge	r3, r3, #-1006632960	; 0xc4000000
 6c0:	32322e7f 	eorscc	r2, r2, #2032	; 0x7f0
 6c4:	00020231 	andeq	r0, r2, r1, lsr r2
 6c8:	005d0101 	subseq	r0, sp, r1, lsl #2
 6cc:	00020000 	andeq	r0, r2, r0
 6d0:	00000025 	andeq	r0, r0, r5, lsr #32
 6d4:	0efb0102 	cdpeq	1, 15, cr0, cr11, cr2, {0}
 6d8:	0101000d 	tsteq	r1, sp
 6dc:	00000101 	andeq	r0, r0, r1, lsl #2
 6e0:	00000100 	andeq	r0, r0, r0, lsl #2
 6e4:	69726401 	ldmdbvs	r2!, {r0, sl, sp, lr}^
 6e8:	73726576 	cmnvc	r2, #494927872	; 0x1d800000
 6ec:	61750000 	cmnvs	r5, r0
 6f0:	632e7472 	teqvs	lr, #1912602624	; 0x72000000
 6f4:	00000100 	andeq	r0, r0, r0, lsl #2
 6f8:	02050000 	andeq	r0, r5, #0
 6fc:	80001820 	andhi	r1, r0, r0, lsr #16
 700:	4a090319 	bmi	24136c <GUEST_OFFSET-0x7fdbec94>
 704:	2f678369 	svccs	0x00678369
 708:	01040200 	mrseq	r0, R12_usr
 70c:	9f6984d5 	svcls	0x006984d5
 710:	83696767 	cmnhi	r9, #27000832	; 0x19c0000
 714:	d767674d 	strble	r6, [r7, -sp, asr #14]!
 718:	03678467 	cmneq	r7, #1728053248	; 0x67000000
 71c:	0200827a 	andeq	r8, r0, #-1610612729	; 0xa0000007
 720:	66060104 	strvs	r0, [r6], -r4, lsl #2
 724:	04026e06 	streq	r6, [r2], #-3590	; 0xe06
 728:	ab010100 	blge	40b30 <GUEST_OFFSET-0x7ffbf4d0>
 72c:	02000000 	andeq	r0, r0, #0
 730:	00006700 	andeq	r6, r0, r0, lsl #14
 734:	fb010200 	blx	40f3e <GUEST_OFFSET-0x7ffbf0c2>
 738:	01000d0e 	tsteq	r0, lr, lsl #26
 73c:	00010101 	andeq	r0, r1, r1, lsl #2
 740:	00010000 	andeq	r0, r1, r0
 744:	72640100 	rsbvc	r0, r4, #0, 2
 748:	72657669 	rsbvc	r7, r5, #110100480	; 0x6900000
 74c:	2e2e0073 	mcrcs	0, 1, r0, cr14, cr3, {3}
 750:	2f2e2e2f 	svccs	0x002e2e2f
 754:	2e2f2e2e 	cdpcs	14, 2, cr2, cr15, cr14, {1}
 758:	6f632f2e 	svcvs	0x00632f2e
 75c:	6e6f6d6d 	cdpvs	13, 6, cr6, cr15, cr13, {3}
 760:	636e692f 	cmnvs	lr, #770048	; 0xbc000
 764:	6564756c 	strbvs	r7, [r4, #-1388]!	; 0x56c
 768:	70730000 	rsbsvc	r0, r3, r0
 76c:	5f343038 	svcpl	0x00343038
 770:	656d6974 	strbvs	r6, [sp, #-2420]!	; 0x974
 774:	00632e72 	rsbeq	r2, r3, r2, ror lr
 778:	61000001 	tstvs	r0, r1
 77c:	5f686372 	svcpl	0x00686372
 780:	65707974 	ldrbvs	r7, [r0, #-2420]!	; 0x974
 784:	00682e73 	rsbeq	r2, r8, r3, ror lr
 788:	68000002 	stmdavs	r0, {r1}
 78c:	5f6d6d76 	svcpl	0x006d6d76
 790:	65707974 	ldrbvs	r7, [r0, #-2420]!	; 0x974
 794:	00682e73 	rsbeq	r2, r8, r3, ror lr
 798:	00000002 	andeq	r0, r0, r2
 79c:	68020500 	stmdavs	r2, {r8, sl}
 7a0:	03800019 	orreq	r0, r0, #25
 7a4:	679f012a 	ldrvs	r0, [pc, sl, lsr #2]
 7a8:	844ba169 	strbhi	sl, [fp], #-361	; 0x169
 7ac:	4d678467 	cfstrdmi	mvd8, [r7, #-412]!	; 0xfffffe64
 7b0:	83678483 	cmnhi	r7, #-2097152000	; 0x83000000
 7b4:	4b679f68 	blmi	19e855c <GUEST_OFFSET-0x7e617aa4>
 7b8:	6983834e 	stmibvs	r3, {r1, r2, r3, r6, r8, r9, pc}
 7bc:	83678383 	cmnhi	r7, #201326594	; 0xc000002
 7c0:	85678369 	strbhi	r8, [r7, #-873]!	; 0x369
 7c4:	be698383 	cdplt	3, 6, cr8, cr9, cr3, {4}
 7c8:	4b678368 	blmi	19e1570 <GUEST_OFFSET-0x7e61ea90>
 7cc:	4d676868 	stclmi	8, cr6, [r7, #-416]!	; 0xfffffe60
 7d0:	a04b9f4d 	subge	r9, fp, sp, asr #30
 7d4:	0004022f 	andeq	r0, r4, pc, lsr #4
 7d8:	Address 0x00000000000007d8 is out of bounds.


Disassembly of section .debug_info:

00000000 <.debug_info>:
       0:	00000077 	andeq	r0, r0, r7, ror r0
       4:	00000002 	andeq	r0, r0, r2
       8:	01040000 	mrseq	r0, (UNDEF: 4)
       c:	00000000 	andeq	r0, r0, r0
      10:	80000000 	andhi	r0, r0, r0
      14:	80000004 	andhi	r0, r0, r4
      18:	746f6f62 	strbtvc	r6, [pc], #-3938	; 20 <GUEST_OFFSET-0x7fffffe0>
      1c:	2f00532e 	svccs	0x0000532e
      20:	656d6f68 	strbvs	r6, [sp, #-3944]!	; 0xf68
      24:	7361632f 	cmnvc	r1, #-1140850688	; 0xbc000000
      28:	776e6f69 	strbvc	r6, [lr, -r9, ror #30]!
      2c:	6b2f6f6f 	blvs	bdbdf0 <GUEST_OFFSET-0x7f424210>
      30:	65707968 	ldrbvs	r7, [r0, #-2408]!	; 0x968
      34:	73697672 	cmnvc	r9, #119537664	; 0x7200000
      38:	702f726f 	eorvc	r7, pc, pc, ror #4
      3c:	6674616c 	ldrbtvs	r6, [r4], -ip, ror #2
      40:	2d6d726f 	sfmcs	f7, 2, [sp, #-444]!	; 0xfffffe44
      44:	69766564 	ldmdbvs	r6!, {r2, r5, r6, r8, sl, sp, lr}^
      48:	632f6563 	teqvs	pc, #415236096	; 0x18c00000
      4c:	6574726f 	ldrbvs	r7, [r4, #-623]!	; 0x26f
      50:	31615f78 	smccc	5624	; 0x15f8
      54:	5f327835 	svcpl	0x00327835
      58:	6d737472 	cfldrdvs	mvd7, [r3, #-456]!	; 0xfffffe38
      5c:	6575672f 	ldrbvs	r6, [r5, #-1839]!	; 0x72f
      60:	736f7473 	cmnvc	pc, #1929379840	; 0x73000000
      64:	676d622f 	strbvs	r6, [sp, -pc, lsr #4]!
      68:	74736575 	ldrbtvc	r6, [r3], #-1397	; 0x575
      6c:	554e4700 	strbpl	r4, [lr, #-1792]	; 0x700
      70:	20534120 	subscs	r4, r3, r0, lsr #2
      74:	34322e32 	ldrtcc	r2, [r2], #-3634	; 0xe32
      78:	6a800100 	bvs	fe000480 <guest_stacklimit+0x6e000480>
      7c:	02000000 	andeq	r0, r0, #0
      80:	00001400 	andeq	r1, r0, r0, lsl #8
      84:	07010400 	streq	r0, [r1, -r0, lsl #8]
      88:	01000000 	mrseq	r0, (UNDEF: 0)
      8c:	00000000 	andeq	r0, r0, r0
      90:	0000003d 	andeq	r0, r0, sp, lsr r0
      94:	80000004 	andhi	r0, r0, r4
      98:	80000028 	andhi	r0, r0, r8, lsr #32
      9c:	00000036 	andeq	r0, r0, r6, lsr r0
      a0:	69050402 	stmdbvs	r5, {r1, sl}
      a4:	0300746e 	movweq	r7, #1134	; 0x46e
      a8:	001d0704 	andseq	r0, sp, r4, lsl #14
      ac:	02030000 	andeq	r0, r3, #0
      b0:	00008b07 	andeq	r8, r0, r7, lsl #22
      b4:	07080300 	streq	r0, [r8, -r0, lsl #6]
      b8:	00000013 	andeq	r0, r0, r3, lsl r0
      bc:	2a080103 	bcs	2004d0 <GUEST_OFFSET-0x7fdffb30>
      c0:	04000000 	streq	r0, [r0], #-0
      c4:	00003801 	andeq	r3, r0, r1, lsl #16
      c8:	25130100 	ldrcs	r0, [r3, #-256]	; 0x100
      cc:	04000000 	streq	r0, [r0], #-0
      d0:	28800000 	stmcs	r0, {}	; <UNPREDICTABLE>
      d4:	00800000 	addeq	r0, r0, r0
      d8:	01000000 	mrseq	r0, (UNDEF: 0)
      dc:	6c617605 	stclvs	6, cr7, [r1], #-20	; 0xffffffec
      e0:	25150100 	ldrcs	r0, [r5, #-256]	; 0x100
      e4:	00000000 	andeq	r0, r0, r0
      e8:	0000a300 	andeq	sl, r0, r0, lsl #6
      ec:	63000200 	movwvs	r0, #512	; 0x200
      f0:	04000000 	streq	r0, [r0], #-0
      f4:	00000701 	andeq	r0, r0, r1, lsl #14
      f8:	009e0100 	addseq	r0, lr, r0, lsl #2
      fc:	003d0000 	eorseq	r0, sp, r0
     100:	00280000 	eoreq	r0, r8, r0
     104:	01bc8000 			; <UNDEFINED> instruction: 0x01bc8000
     108:	00758000 	rsbseq	r8, r5, r0
     10c:	04020000 	streq	r0, [r2], #-0
     110:	746e6905 	strbtvc	r6, [lr], #-2309	; 0x905
     114:	07040300 	streq	r0, [r4, -r0, lsl #6]
     118:	0000001d 	andeq	r0, r0, sp, lsl r0
     11c:	8b070203 	blhi	1c0930 <GUEST_OFFSET-0x7fe3f6d0>
     120:	03000000 	movweq	r0, #0
     124:	00130708 	andseq	r0, r3, r8, lsl #14
     128:	01030000 	mrseq	r0, (UNDEF: 3)
     12c:	00002a08 	andeq	r2, r0, r8, lsl #20
     130:	c6010400 	strgt	r0, [r1], -r0, lsl #8
     134:	01000000 	mrseq	r0, (UNDEF: 0)
     138:	00280133 	eoreq	r0, r8, r3, lsr r1
     13c:	00708000 	rsbseq	r8, r0, r0
     140:	002c8000 	eoreq	r8, ip, r0
     144:	6f010000 	svcvs	0x00010000
     148:	05000000 	streq	r0, [r0, #-0]
     14c:	35010069 	strcc	r0, [r1, #-105]	; 0x69
     150:	0000006f 	andeq	r0, r0, pc, rrx
     154:	00749102 	rsbseq	r9, r4, r2, lsl #2
     158:	00002506 	andeq	r2, r0, r6, lsl #10
     15c:	d0010700 	andle	r0, r1, r0, lsl #14
     160:	01000000 	mrseq	r0, (UNDEF: 0)
     164:	0070013a 	rsbseq	r0, r0, sl, lsr r1
     168:	01bc8000 			; <UNDEFINED> instruction: 0x01bc8000
     16c:	00588000 	subseq	r8, r8, r0
     170:	05010000 	streq	r0, [r1, #-0]
     174:	3c010069 	stccc	0, cr0, [r1], {105}	; 0x69
     178:	00000025 	andeq	r0, r0, r5, lsr #32
     17c:	08749102 	ldmdaeq	r4!, {r1, r8, ip, pc}^
     180:	00003801 	andeq	r3, r0, r1, lsl #16
     184:	25770100 	ldrbcs	r0, [r7, #-256]!	; 0x100
     188:	01000000 	mrseq	r0, (UNDEF: 0)
     18c:	00000009 	andeq	r0, r0, r9
     190:	0000010d 	andeq	r0, r0, sp, lsl #2
     194:	00eb0002 	rsceq	r0, fp, r2
     198:	01040000 	mrseq	r0, (UNDEF: 4)
     19c:	00000007 	andeq	r0, r0, r7
     1a0:	0000eb01 	andeq	lr, r0, r1, lsl #22
     1a4:	00003d00 	andeq	r3, r0, r0, lsl #26
     1a8:	0001bc00 	andeq	fp, r1, r0, lsl #24
     1ac:	00021880 	andeq	r1, r2, r0, lsl #17
     1b0:	00010880 	andeq	r0, r1, r0, lsl #17
     1b4:	011a0200 	tsteq	sl, r0, lsl #4
     1b8:	013c0000 	teqeq	ip, r0
     1bc:	00005b03 	andeq	r5, r0, r3, lsl #22
     1c0:	01150300 	tsteq	r5, r0, lsl #6
     1c4:	04010000 	streq	r0, [r1], #-0
     1c8:	0000005b 	andeq	r0, r0, fp, asr r0
     1cc:	04002302 	streq	r2, [r0], #-770	; 0x302
     1d0:	01006370 	tsteq	r0, r0, ror r3
     1d4:	00005b05 	andeq	r5, r0, r5, lsl #22
     1d8:	04230200 	strteq	r0, [r3], #-512	; 0x200
     1dc:	72706704 	rsbsvc	r6, r0, #4, 14	; 0x100000
     1e0:	62060100 	andvs	r0, r6, #0, 2
     1e4:	02000000 	andeq	r0, r0, #0
     1e8:	05000823 	streq	r0, [r0, #-2083]	; 0x823
     1ec:	001d0704 	andseq	r0, sp, r4, lsl #14
     1f0:	5b060000 	blpl	1801f8 <GUEST_OFFSET-0x7fe7fe08>
     1f4:	72000000 	andvc	r0, r0, #0
     1f8:	07000000 	streq	r0, [r0, -r0]
     1fc:	00000072 	andeq	r0, r0, r2, ror r0
     200:	0405000c 	streq	r0, [r5], #-12
     204:	00013007 	andeq	r3, r1, r7
     208:	d9010800 	stmdble	r1, {fp}
     20c:	01000000 	mrseq	r0, (UNDEF: 0)
     210:	01bc010a 			; <UNDEFINED> instruction: 0x01bc010a
     214:	01d88000 	bicseq	r8, r8, r0
     218:	00848000 	addeq	r8, r4, r0
     21c:	a2010000 	andge	r0, r1, #0
     220:	09000000 	stmdbeq	r0, {}	; <UNPREDICTABLE>
     224:	0000011f 	andeq	r0, r0, pc, lsl r1
     228:	00a20a01 	adceq	r0, r2, r1, lsl #20
     22c:	91020000 	mrsls	r0, (UNDEF: 2)
     230:	040a0074 	streq	r0, [sl], #-116	; 0x74
     234:	00000025 	andeq	r0, r0, r5, lsr #32
     238:	01470108 	cmpeq	r7, r8, lsl #2
     23c:	0e010000 	cdpeq	0, 0, cr0, cr1, cr0, {0}
     240:	0001d801 	andeq	sp, r1, r1, lsl #16
     244:	0001f480 	andeq	pc, r1, r0, lsl #9
     248:	0000b080 	andeq	fp, r0, r0, lsl #1
     24c:	00d10100 	sbcseq	r0, r1, r0, lsl #2
     250:	1f090000 	svcne	0x00090000
     254:	01000001 	tsteq	r0, r1
     258:	0000a20e 	andeq	sl, r0, lr, lsl #4
     25c:	74910200 	ldrvc	r0, [r1], #512	; 0x200
     260:	24010b00 	strcs	r0, [r1], #-2816	; 0xb00
     264:	01000001 	tsteq	r0, r1
     268:	01f40112 	mvnseq	r0, r2, lsl r1
     26c:	02188000 	andseq	r8, r8, #0
     270:	00dc8000 	sbcseq	r8, ip, r0
     274:	09010000 	stmdbeq	r1, {}	; <UNPREDICTABLE>
     278:	09000001 	stmdbeq	r0, {r0}
     27c:	0000011f 	andeq	r0, r0, pc, lsl r1
     280:	00a21201 	adceq	r1, r2, r1, lsl #4
     284:	91020000 	mrsls	r0, (UNDEF: 2)
     288:	39010c74 	stmdbcc	r1, {r2, r4, r5, r6, sl, fp}
     28c:	01000001 	tsteq	r0, r1
     290:	00010914 	andeq	r0, r1, r4, lsl r9
     294:	000d0100 	andeq	r0, sp, r0, lsl #2
     298:	05040e00 	streq	r0, [r4, #-3584]	; 0xe00
     29c:	00746e69 	rsbseq	r6, r4, r9, ror #28
     2a0:	0003f700 	andeq	pc, r3, r0, lsl #14
     2a4:	b6000200 	strlt	r0, [r0], -r0, lsl #4
     2a8:	04000001 	streq	r0, [r0], #-1
     2ac:	00000701 	andeq	r0, r0, r1, lsl #14
     2b0:	02100100 	andseq	r0, r0, #0, 2
     2b4:	003d0000 	eorseq	r0, sp, r0
     2b8:	02180000 	andseq	r0, r8, #0
     2bc:	0aa08000 	beq	fe8202c4 <guest_stacklimit+0x6e8202c4>
     2c0:	01678000 	cmneq	r7, r0
     2c4:	04020000 	streq	r0, [r2], #-0
     2c8:	746e6905 	strbtvc	r6, [lr], #-2309	; 0x905
     2cc:	03070300 	movweq	r0, #29440	; 0x7300
     2d0:	05030000 	streq	r0, [r3, #-0]
     2d4:	00000037 	andeq	r0, r0, r7, lsr r0
     2d8:	1d070404 	cfstrsne	mvf0, [r7, #-16]
     2dc:	04000000 	streq	r0, [r0], #-0
     2e0:	008b0702 	addeq	r0, fp, r2, lsl #14
     2e4:	08040000 	stmdaeq	r4, {}	; <UNPREDICTABLE>
     2e8:	00001307 	andeq	r1, r0, r7, lsl #6
     2ec:	02590300 	subseq	r0, r9, #0, 6
     2f0:	08030000 	stmdaeq	r3, {}	; <UNPREDICTABLE>
     2f4:	00000057 	andeq	r0, r0, r7, asr r0
     2f8:	2a080104 	bcs	200710 <GUEST_OFFSET-0x7fdff8f0>
     2fc:	05000000 	streq	r0, [r0, #-0]
     300:	0000031b 	andeq	r0, r0, fp, lsl r3
     304:	95090404 	strls	r0, [r9, #-1028]	; 0x404
     308:	06000000 	streq	r0, [r0], -r0
     30c:	000001c2 	andeq	r0, r0, r2, asr #3
     310:	02cd0600 	sbceq	r0, sp, #0, 12
     314:	067f0000 	ldrbteq	r0, [pc], -r0
     318:	000002e7 	andeq	r0, r0, r7, ror #5
     31c:	02bc067e 	adcseq	r0, ip, #132120576	; 0x7e00000
     320:	067d0000 	ldrbteq	r0, [sp], -r0
     324:	000001f4 	strdeq	r0, [r0], -r4
     328:	019c067c 	orrseq	r0, ip, ip, ror r6
     32c:	067b0000 	ldrbteq	r0, [fp], -r0
     330:	000002a8 	andeq	r0, r0, r8, lsr #5
     334:	7303007a 	movwvc	r0, #12410	; 0x307a
     338:	04000002 	streq	r0, [r0], #-2
     33c:	00005e11 	andeq	r5, r0, r1, lsl lr
     340:	02810300 	addeq	r0, r1, #0, 6
     344:	0e050000 	cdpeq	0, 0, cr0, cr5, cr0, {0}
     348:	000000ab 	andeq	r0, r0, fp, lsr #1
     34c:	00b10407 	adcseq	r0, r1, r7, lsl #8
     350:	01080000 	mrseq	r0, (UNDEF: 8)
     354:	000000c7 	andeq	r0, r0, r7, asr #1
     358:	00002509 	andeq	r2, r0, r9, lsl #10
     35c:	00c70900 	sbceq	r0, r7, r0, lsl #18
     360:	c7090000 	strgt	r0, [r9, -r0]
     364:	00000000 	andeq	r0, r0, r0
     368:	670b040a 	strvs	r0, [fp, -sl, lsl #8]
     36c:	b0006369 	andlt	r6, r0, r9, ror #6
     370:	3a2d0201 	bcc	b40b7c <GUEST_OFFSET-0x7f4bf484>
     374:	0c000001 	stceq	0, cr0, [r0], {1}
     378:	0000026a 	andeq	r0, r0, sl, ror #4
     37c:	002c2e02 	eoreq	r2, ip, r2, lsl #28
     380:	23020000 	movwcs	r0, #8192	; 0x2000
     384:	015b0c00 	cmpeq	fp, r0, lsl #24
     388:	2f020000 	svccs	0x00020000
     38c:	0000013a 	andeq	r0, r0, sl, lsr r1
     390:	0c042302 	stceq	3, cr2, [r4], {2}
     394:	00000153 	andeq	r0, r0, r3, asr r1
     398:	013a3002 	teqeq	sl, r2
     39c:	23020000 	movwcs	r0, #8192	; 0x2000
     3a0:	01e90c08 	mvneq	r0, r8, lsl #24
     3a4:	31020000 	mrscc	r0, (UNDEF: 2)
     3a8:	0000002c 	andeq	r0, r0, ip, lsr #32
     3ac:	0c0c2302 	stceq	3, cr2, [ip], {2}
     3b0:	00000316 	andeq	r0, r0, r6, lsl r3
     3b4:	002c3202 	eoreq	r3, ip, r2, lsl #4
     3b8:	23020000 	movwcs	r0, #8192	; 0x2000
     3bc:	02930c10 	addseq	r0, r3, #16, 24	; 0x1000
     3c0:	33020000 	movwcc	r0, #8192	; 0x2000
     3c4:	00000145 	andeq	r0, r0, r5, asr #2
     3c8:	0c142302 	ldceq	3, cr2, [r4], {2}
     3cc:	00000190 	muleq	r0, r0, r1
     3d0:	002c3402 	eoreq	r3, ip, r2, lsl #8
     3d4:	23030000 	movwcs	r0, #12288	; 0x3000
     3d8:	070003ac 	streq	r0, [r0, -ip, lsr #7]
     3dc:	00014004 	andeq	r4, r1, r4
     3e0:	002c0d00 	eoreq	r0, ip, r0, lsl #26
     3e4:	a00e0000 	andge	r0, lr, r0
     3e8:	55000000 	strpl	r0, [r0, #-0]
     3ec:	0f000001 	svceq	0x00000001
     3f0:	00000155 	andeq	r0, r0, r5, asr r1
     3f4:	04040065 	streq	r0, [r4], #-101	; 0x65
     3f8:	00013007 	andeq	r3, r1, r7
     3fc:	01691000 	cmneq	r9, r0
     400:	15010000 	strne	r0, [r1, #-0]
     404:	00002c01 	andeq	r2, r0, r1, lsl #24
     408:	00021800 	andeq	r1, r2, r0, lsl #16
     40c:	00024480 	andeq	r4, r2, r0, lsl #9
     410:	00010880 	andeq	r0, r1, r0, lsl #17
     414:	01920100 	orrseq	r0, r2, r0, lsl #2
     418:	24110000 	ldrcs	r0, [r1], #-0
     41c:	30800002 	addcc	r0, r0, r2
     420:	12800002 	addne	r0, r0, #2
     424:	000001ef 	andeq	r0, r0, pc, ror #3
     428:	002c1701 	eoreq	r1, ip, r1, lsl #14
     42c:	91020000 	mrsls	r0, (UNDEF: 2)
     430:	13000074 	movwne	r0, #116	; 0x74
     434:	00000327 	andeq	r0, r0, r7, lsr #6
     438:	44013902 	strmi	r3, [r1], #-2306	; 0x902
     43c:	80800002 	addhi	r0, r0, r2
     440:	34800003 	strcc	r0, [r0], #3
     444:	01000001 	tsteq	r0, r1
     448:	000001ba 			; <UNDEFINED> instruction: 0x000001ba
     44c:	00029c12 	andeq	r9, r2, r2, lsl ip
     450:	ba3b0200 	blt	ec0c58 <GUEST_OFFSET-0x7f13f3a8>
     454:	02000001 	andeq	r0, r0, #1
     458:	07007491 			; <UNDEFINED> instruction: 0x07007491
     45c:	0001c004 	andeq	ip, r1, r4
     460:	004c0d00 	subeq	r0, ip, r0, lsl #26
     464:	d6130000 	ldrle	r0, [r3], -r0
     468:	02000001 	andeq	r0, r0, #1
     46c:	0380014f 	orreq	r0, r0, #-1073741805	; 0xc0000013
     470:	05cc8000 	strbeq	r8, [ip]
     474:	01608000 	cmneq	r0, r0
     478:	1e010000 	cdpne	0, 0, cr0, cr1, cr0, {0}
     47c:	12000002 	andne	r0, r0, #2
     480:	000002a3 	andeq	r0, r0, r3, lsr #5
     484:	002c5102 	eoreq	r5, ip, r2, lsl #2
     488:	91020000 	mrsls	r0, (UNDEF: 2)
     48c:	038c1468 	orreq	r1, ip, #104, 8	; 0x68000000
     490:	03988000 	orrseq	r8, r8, #0
     494:	02088000 	andeq	r8, r8, #0
     498:	ef120000 	svc	0x00120000
     49c:	02000001 	andeq	r0, r0, #1
     4a0:	00002c53 	andeq	r2, r0, r3, asr ip
     4a4:	6c910200 	lfmvs	f0, 4, [r1], {0}
     4a8:	03d41100 	bicseq	r1, r4, #0, 2
     4ac:	05c48000 	strbeq	r8, [r4]
     4b0:	36158000 	ldrcc	r8, [r5], -r0
     4b4:	02000005 	andeq	r0, r0, #5
     4b8:	00002c58 	andeq	r2, r0, r8, asr ip
     4bc:	16000000 	strne	r0, [r0], -r0
     4c0:	00000261 	andeq	r0, r0, r1, ror #4
     4c4:	95017d02 	strls	r7, [r1, #-3330]	; 0xd02
     4c8:	cc000000 	stcgt	0, cr0, [r0], {-0}
     4cc:	d8800005 	stmle	r0, {r0, r2}
     4d0:	8c800006 	stchi	0, cr0, [r0], {6}
     4d4:	01000001 	tsteq	r0, r1
     4d8:	0000027e 	andeq	r0, r0, lr, ror r2
     4dc:	00025117 	andeq	r5, r2, r7, lsl r1
     4e0:	7e7d0200 	cdpvc	2, 7, cr0, cr13, cr0, {0}
     4e4:	02000002 	andeq	r0, r0, #2
     4e8:	a3125c91 	tstge	r2, #37120	; 0x9100
     4ec:	02000002 	andeq	r0, r0, #2
     4f0:	00002c7f 	andeq	r2, r0, pc, ror ip
     4f4:	64910200 	ldrvs	r0, [r1], #512	; 0x200
     4f8:	00017a12 	andeq	r7, r1, r2, lsl sl
     4fc:	95800200 	strls	r0, [r0, #512]	; 0x200
     500:	02000000 	andeq	r0, r0, #0
     504:	e4116c91 	ldr	r6, [r1], #-3217	; 0xc91
     508:	f0800005 			; <UNDEFINED> instruction: 0xf0800005
     50c:	12800005 	addne	r0, r0, #5
     510:	000001ef 	andeq	r0, r0, pc, ror #3
     514:	002c8202 	eoreq	r8, ip, r2, lsl #4
     518:	91020000 	mrsls	r0, (UNDEF: 2)
     51c:	07000068 	streq	r0, [r0, -r8, rrx]
     520:	00002c04 	andeq	r2, r0, r4, lsl #24
     524:	81011800 	tsthi	r1, r0, lsl #16
     528:	02000001 	andeq	r0, r0, #1
     52c:	0095019e 	umullseq	r0, r5, lr, r1
     530:	06d80000 	ldrbeq	r0, [r8], r0
     534:	07308000 	ldreq	r8, [r0, -r0]!
     538:	01b88000 			; <UNDEFINED> instruction: 0x01b88000
     53c:	b1010000 	mrslt	r0, (UNDEF: 1)
     540:	19000002 	stmdbne	r0, {r1}
     544:	00717269 	rsbseq	r7, r1, r9, ror #4
     548:	002c9e02 	eoreq	r9, ip, r2, lsl #28
     54c:	91020000 	mrsls	r0, (UNDEF: 2)
     550:	01180074 	tsteq	r8, r4, ror r0
     554:	000001b2 			; <UNDEFINED> instruction: 0x000001b2
     558:	9501a402 	strls	sl, [r1, #-1026]	; 0x402
     55c:	30000000 	andcc	r0, r0, r0
     560:	88800007 	stmhi	r0, {r0, r1, r2}
     564:	e4800007 	str	r0, [r0], #7
     568:	01000001 	tsteq	r0, r1
     56c:	000002de 	ldrdeq	r0, [r0], -lr
     570:	71726919 	cmnvc	r2, r9, lsl r9
     574:	2ca40200 	sfmcs	f0, 4, [r4]
     578:	02000000 	andeq	r0, r0, #0
     57c:	18007491 	stmdane	r0, {r0, r4, r7, sl, ip, sp, lr}
     580:	00023d01 	andeq	r3, r2, r1, lsl #26
     584:	01aa0200 			; <UNDEFINED> instruction: 0x01aa0200
     588:	00000095 	muleq	r0, r5, r0
     58c:	80000788 	andhi	r0, r0, r8, lsl #15
     590:	800007f8 	strdhi	r0, [r0], -r8
     594:	00000210 	andeq	r0, r0, r0, lsl r2
     598:	00033501 	andeq	r3, r3, r1, lsl #10
     59c:	72691900 	rsbvc	r1, r9, #0, 18
     5a0:	aa020071 	bge	8076c <GUEST_OFFSET-0x7ff7f894>
     5a4:	00000025 	andeq	r0, r0, r5, lsr #32
     5a8:	176c9102 	strbne	r9, [ip, -r2, lsl #2]!
     5ac:	00000249 	andeq	r0, r0, r9, asr #4
     5b0:	00a0aa02 	adceq	sl, r0, r2, lsl #20
     5b4:	91020000 	mrsls	r0, (UNDEF: 2)
     5b8:	01631768 	cmneq	r3, r8, ror #14
     5bc:	ab020000 	blge	805c4 <GUEST_OFFSET-0x7ff7fa3c>
     5c0:	000000c7 	andeq	r0, r0, r7, asr #1
     5c4:	12649102 	rsbne	r9, r4, #-2147483648	; 0x80000000
     5c8:	0000017a 	andeq	r0, r0, sl, ror r1
     5cc:	0095ad02 	addseq	sl, r5, r2, lsl #26
     5d0:	91020000 	mrsls	r0, (UNDEF: 2)
     5d4:	011a0074 	tsteq	sl, r4, ror r0
     5d8:	00000234 	andeq	r0, r0, r4, lsr r2
     5dc:	9501b502 	strls	fp, [r1, #-1282]	; 0x502
     5e0:	f8000000 			; <UNDEFINED> instruction: 0xf8000000
     5e4:	44800007 	strmi	r0, [r0], #7
     5e8:	3c800009 	stccc	0, cr0, [r0], {9}
     5ec:	01000002 	tsteq	r0, r2
     5f0:	0000036e 	andeq	r0, r0, lr, ror #6
     5f4:	00017a12 	andeq	r7, r1, r2, lsl sl
     5f8:	95b70200 	ldrls	r0, [r7, #512]!	; 0x200
     5fc:	02000000 	andeq	r0, r0, #0
     600:	691b7091 	ldmdbvs	fp, {r0, r4, r7, ip, sp, lr}
     604:	25b80200 	ldrcs	r0, [r8, #512]!	; 0x200
     608:	02000000 	andeq	r0, r0, #0
     60c:	1c007491 	cfstrsne	mvf7, [r0], {145}	; 0x91
     610:	00013901 	andeq	r3, r1, r1, lsl #18
     614:	01d00200 	bicseq	r0, r0, r0, lsl #4
     618:	80000944 	andhi	r0, r0, r4, asr #18
     61c:	80000aa0 	andhi	r0, r0, r0, lsr #21
     620:	00000268 	andeq	r0, r0, r8, ror #4
     624:	0003e301 	andeq	lr, r3, r1, lsl #6
     628:	69661900 	stmdbvs	r6!, {r8, fp, ip}^
     62c:	d0020071 	andle	r0, r2, r1, ror r0
     630:	00000025 	andeq	r0, r0, r5, lsr #32
     634:	17649102 	strbne	r9, [r4, -r2, lsl #2]!
     638:	00000310 	andeq	r0, r0, r0, lsl r3
     63c:	00c7d002 	sbceq	sp, r7, r2
     640:	91020000 	mrsls	r0, (UNDEF: 2)
     644:	61691b60 	cmnvs	r9, r0, ror #22
     648:	d7020072 	smlsdxle	r2, r2, r0, r0
     64c:	0000002c 	andeq	r0, r0, ip, lsr #32
     650:	1b6c9102 	blne	1b24a60 <GUEST_OFFSET-0x7e4db5a0>
     654:	00717269 	rsbseq	r7, r1, r9, ror #4
     658:	002cd802 	eoreq	sp, ip, r2, lsl #16
     65c:	91020000 	mrsls	r0, (UNDEF: 2)
     660:	011a1d68 	tsteq	sl, r8, ror #26
     664:	12010000 	andne	r0, r1, #0
     668:	0000011f 	andeq	r0, r0, pc, lsl r1
     66c:	03e3d902 	mvneq	sp, #32768	; 0x8000
     670:	91020000 	mrsls	r0, (UNDEF: 2)
     674:	70631b74 	rsbvc	r1, r3, r4, ror fp
     678:	db020075 	blle	80854 <GUEST_OFFSET-0x7ff7f7ac>
     67c:	0000002c 	andeq	r0, r0, ip, lsr #32
     680:	00709102 	rsbseq	r9, r0, r2, lsl #2
     684:	03c00407 	biceq	r0, r0, #117440512	; 0x7000000
     688:	0b120000 	bleq	480690 <GUEST_OFFSET-0x7fb7f970>
     68c:	02000002 	andeq	r0, r0, #2
     690:	0000c937 	andeq	ip, r0, r7, lsr r9
     694:	6c030500 	cfstr32vs	mvfx0, [r3], {-0}
     698:	0080001e 	addeq	r0, r0, lr, lsl r0
     69c:	000000df 	ldrdeq	r0, [r0], -pc	; <UNPREDICTABLE>
     6a0:	03600002 	cmneq	r0, #2
     6a4:	01040000 	mrseq	r0, (UNDEF: 4)
     6a8:	00000007 	andeq	r0, r0, r7
     6ac:	00035f01 	andeq	r5, r3, r1, lsl #30
     6b0:	00003d00 	andeq	r3, r0, r0, lsl #26
     6b4:	000aa000 	andeq	sl, sl, r0
     6b8:	000c1480 	andeq	r1, ip, r0, lsl #9
     6bc:	0002b180 	andeq	fp, r2, r0, lsl #3
     6c0:	05040200 	streq	r0, [r4, #-512]	; 0x200
     6c4:	00746e69 	rsbseq	r6, r4, r9, ror #28
     6c8:	00030703 	andeq	r0, r3, r3, lsl #14
     6cc:	37050200 	strcc	r0, [r5, -r0, lsl #4]
     6d0:	04000000 	streq	r0, [r0], #-0
     6d4:	001d0704 	andseq	r0, sp, r4, lsl #14
     6d8:	02040000 	andeq	r0, r4, #0
     6dc:	00008b07 	andeq	r8, r0, r7, lsl #22
     6e0:	07080400 	streq	r0, [r8, -r0, lsl #8]
     6e4:	00000013 	andeq	r0, r0, r3, lsl r0
     6e8:	2a080104 	bcs	200b00 <GUEST_OFFSET-0x7fdff500>
     6ec:	05000000 	streq	r0, [r0, #-0]
     6f0:	00034801 	andeq	r4, r3, r1, lsl #16
     6f4:	a00a0100 	andge	r0, sl, r0, lsl #2
     6f8:	1480000a 	strne	r0, [r0], #10
     6fc:	9480000c 	strls	r0, [r0], #12
     700:	01000002 	tsteq	r0, r2
     704:	000000d7 	ldrdeq	r0, [r0], -r7
     708:	00052c06 	andeq	r2, r5, r6, lsl #24
     70c:	d70c0100 	strle	r0, [ip, -r0, lsl #2]
     710:	02000000 	andeq	r0, r0, #0
     714:	59067091 	stmdbpl	r6, {r0, r4, r7, ip, sp, lr}
     718:	01000003 	tsteq	r0, r3
     71c:	0000d70d 	andeq	sp, r0, sp, lsl #14
     720:	6c910200 	lfmvs	f0, 4, [r1], {0}
     724:	00033c06 	andeq	r3, r3, r6, lsl #24
     728:	d70e0100 	strle	r0, [lr, -r0, lsl #2]
     72c:	02000000 	andeq	r0, r0, #0
     730:	42066891 	andmi	r6, r6, #9502720	; 0x910000
     734:	01000003 	tsteq	r0, r3
     738:	0000d70f 	andeq	sp, r0, pc, lsl #14
     73c:	64910200 	ldrvs	r0, [r1], #512	; 0x200
     740:	01006907 	tsteq	r0, r7, lsl #18
     744:	00002510 	andeq	r2, r0, r0, lsl r5
     748:	74910200 	ldrvc	r0, [r1], #512	; 0x200
     74c:	00317607 	eorseq	r7, r1, r7, lsl #12
     750:	00251101 	eoreq	r1, r5, r1, lsl #2
     754:	91020000 	mrsls	r0, (UNDEF: 2)
     758:	32760760 	rsbscc	r0, r6, #96, 14	; 0x1800000
     75c:	25110100 	ldrcs	r0, [r1, #-256]	; 0x100
     760:	02000000 	andeq	r0, r0, #0
     764:	72075c91 	andvc	r5, r7, #37120	; 0x9100
     768:	25110100 	ldrcs	r0, [r1, #-256]	; 0x100
     76c:	02000000 	andeq	r0, r0, #0
     770:	08005891 	stmdaeq	r0, {r0, r4, r7, fp, ip, lr}
     774:	0000dd04 	andeq	sp, r0, r4, lsl #26
     778:	002c0900 	eoreq	r0, ip, r0, lsl #18
     77c:	96000000 	strls	r0, [r0], -r0
     780:	02000000 	andeq	r0, r0, #0
     784:	0003dd00 	andeq	sp, r3, r0, lsl #26
     788:	07010400 	streq	r0, [r1, -r0, lsl #8]
     78c:	01000000 	mrseq	r0, (UNDEF: 0)
     790:	0000039c 	muleq	r0, ip, r3
     794:	0000003d 	andeq	r0, r0, sp, lsr r0
     798:	80000c14 	andhi	r0, r0, r4, lsl ip
     79c:	80000c44 	andhi	r0, r0, r4, asr #24
     7a0:	00000362 	andeq	r0, r0, r2, ror #6
     7a4:	69050402 	stmdbvs	r5, {r1, sl}
     7a8:	0300746e 	movweq	r7, #1134	; 0x46e
     7ac:	00000307 	andeq	r0, r0, r7, lsl #6
     7b0:	00370502 	eorseq	r0, r7, r2, lsl #10
     7b4:	04040000 	streq	r0, [r4], #-0
     7b8:	00001d07 	andeq	r1, r0, r7, lsl #26
     7bc:	07020400 	streq	r0, [r2, -r0, lsl #8]
     7c0:	0000008b 	andeq	r0, r0, fp, lsl #1
     7c4:	13070804 	movwne	r0, #30724	; 0x7804
     7c8:	04000000 	streq	r0, [r0], #-0
     7cc:	002a0801 	eoreq	r0, sl, r1, lsl #16
     7d0:	01050000 	mrseq	r0, (UNDEF: 5)
     7d4:	00000390 	muleq	r0, r0, r3
     7d8:	14010801 	strne	r0, [r1], #-2049	; 0x801
     7dc:	4480000c 	strmi	r0, [r0], #12
     7e0:	c080000c 	addgt	r0, r0, ip
     7e4:	01000002 	tsteq	r0, r2
     7e8:	0000007c 	andeq	r0, r0, ip, ror r0
     7ec:	00053606 	andeq	r3, r5, r6, lsl #12
     7f0:	2c080100 	stfcss	f0, [r8], {-0}
     7f4:	02000000 	andeq	r0, r0, #0
     7f8:	07007491 			; <UNDEFINED> instruction: 0x07007491
     7fc:	0000052c 	andeq	r0, r0, ip, lsr #10
     800:	008e0601 	addeq	r0, lr, r1, lsl #12
     804:	05010000 	streq	r0, [r1, #-0]
     808:	001e6803 	andseq	r6, lr, r3, lsl #16
     80c:	94040880 	strls	r0, [r4], #-2176	; 0x880
     810:	09000000 	stmdbeq	r0, {}	; <UNPREDICTABLE>
     814:	0000002c 	andeq	r0, r0, ip, lsr #32
     818:	00056900 	andeq	r6, r5, r0, lsl #18
     81c:	5e000200 	cdppl	2, 0, cr0, cr0, cr0, {0}
     820:	04000004 	streq	r0, [r0], #-4
     824:	00000701 	andeq	r0, r0, r1, lsl #14
     828:	04880100 	streq	r0, [r8], #256	; 0x100
     82c:	003d0000 	eorseq	r0, sp, r0
     830:	0c440000 	mareq	acc0, r0, r4
     834:	17408000 	strbne	r8, [r0, -r0]
     838:	03e88000 	mvneq	r8, #0
     83c:	ce020000 	cdpgt	0, 0, cr0, cr2, cr0, {0}
     840:	03000003 	movweq	r0, #3
     844:	000030d5 	ldrdeq	r3, [r0], -r5
     848:	07040300 	streq	r0, [r4, -r0, lsl #6]
     84c:	0000001d 	andeq	r0, r0, sp, lsl r0
     850:	30070403 	andcc	r0, r7, r3, lsl #8
     854:	03000001 	movweq	r0, #1
     858:	008b0702 	addeq	r0, fp, r2, lsl #14
     85c:	04040000 	streq	r0, [r4], #-0
     860:	746e6905 	strbtvc	r6, [lr], #-2309	; 0x905
     864:	52040500 	andpl	r0, r4, #0, 10
     868:	06000000 	streq	r0, [r0], -r0
     86c:	00000057 	andeq	r0, r0, r7, asr r0
     870:	33080103 	movwcc	r0, #33027	; 0x8103
     874:	07000000 	streq	r0, [r0, -r0]
     878:	00000425 	andeq	r0, r0, r5, lsr #8
     87c:	be010301 	cdplt	3, 0, cr0, cr1, cr1, {0}
     880:	44000000 	strmi	r0, [r0], #-0
     884:	d480000c 	strle	r0, [r0], #12
     888:	ec80000c 	stc	0, cr0, [r0], {12}
     88c:	01000002 	tsteq	r0, r2
     890:	000000be 	strheq	r0, [r0], -lr
     894:	0003e408 	andeq	lr, r3, r8, lsl #8
     898:	be030100 	adflts	f0, f3, f0
     89c:	02000000 	andeq	r0, r0, #0
     8a0:	c8086c91 	stmdagt	r8, {r0, r4, r7, sl, fp, sp, lr}
     8a4:	01000003 	tsteq	r0, r3
     8a8:	0000c003 	andeq	ip, r0, r3
     8ac:	68910200 	ldmvs	r1, {r9}
     8b0:	6e5f5f09 	cdpvs	15, 5, cr5, cr15, cr9, {0}
     8b4:	25030100 	strcs	r0, [r3, #-256]	; 0x100
     8b8:	02000000 	andeq	r0, r0, #0
     8bc:	640a6491 	strvs	r6, [sl], #-1169	; 0x491
     8c0:	c7050100 	strgt	r0, [r5, -r0, lsl #2]
     8c4:	02000000 	andeq	r0, r0, #0
     8c8:	730a7491 	movwvc	r7, #42129	; 0xa491
     8cc:	c7050100 	strgt	r0, [r5, -r0, lsl #2]
     8d0:	02000000 	andeq	r0, r0, #0
     8d4:	0b007091 	bleq	1cb20 <GUEST_OFFSET-0x7ffe34e0>
     8d8:	c6040504 	strgt	r0, [r4], -r4, lsl #10
     8dc:	0c000000 	stceq	0, cr0, [r0], {-0}
     8e0:	00cd0405 	sbceq	r0, sp, r5, lsl #8
     8e4:	01030000 	mrseq	r0, (UNDEF: 3)
     8e8:	00002a08 	andeq	r2, r0, r8, lsl #20
     8ec:	045f0700 	ldrbeq	r0, [pc], #-1792	; 8f4 <GUEST_OFFSET-0x7ffff70c>
     8f0:	0c010000 	stceq	0, cr0, [r1], {-0}
     8f4:	0000be01 	andeq	fp, r0, r1, lsl #28
     8f8:	000cd400 	andeq	sp, ip, r0, lsl #8
     8fc:	000d7c80 	andeq	r7, sp, r0, lsl #25
     900:	00031880 	andeq	r1, r3, r0, lsl #17
     904:	01340100 	teqeq	r4, r0, lsl #2
     908:	e4080000 	str	r0, [r8], #-0
     90c:	01000003 	tsteq	r0, r3
     910:	0000be0c 	andeq	fp, r0, ip, lsl #28
     914:	6c910200 	lfmvs	f0, 4, [r1], {0}
     918:	0003c808 	andeq	ip, r3, r8, lsl #16
     91c:	c00c0100 	andgt	r0, ip, r0, lsl #2
     920:	02000000 	andeq	r0, r0, #0
     924:	5f096891 	svcpl	0x00096891
     928:	01006e5f 	tsteq	r0, pc, asr lr
     92c:	0000250c 	andeq	r2, r0, ip, lsl #10
     930:	64910200 	ldrvs	r0, [r1], #512	; 0x200
     934:	0100640a 	tsteq	r0, sl, lsl #8
     938:	0000c70e 	andeq	ip, r0, lr, lsl #14
     93c:	74910200 	ldrvc	r0, [r1], #512	; 0x200
     940:	0100730a 	tsteq	r0, sl, lsl #6
     944:	0000c70e 	andeq	ip, r0, lr, lsl #14
     948:	70910200 	addsvc	r0, r1, r0, lsl #4
     94c:	73010d00 	movwvc	r0, #7424	; 0x1d00
     950:	02000004 	andeq	r0, r0, #4
     954:	00be012e 	adcseq	r0, lr, lr, lsr #2
     958:	0d7c0000 	ldcleq	0, cr0, [ip, #-0]
     95c:	0db48000 	ldceq	0, cr8, [r4]
     960:	03448000 	movteq	r8, #16384	; 0x4000
     964:	7d010000 	stcvc	0, cr0, [r1, #-0]
     968:	08000001 	stmdaeq	r0, {r0}
     96c:	000003e4 	andeq	r0, r0, r4, ror #7
     970:	00be1601 	adcseq	r1, lr, r1, lsl #12
     974:	91020000 	mrsls	r0, (UNDEF: 2)
     978:	03c80874 	biceq	r0, r8, #116, 16	; 0x740000
     97c:	16010000 	strne	r0, [r1], -r0
     980:	000000c0 	andeq	r0, r0, r0, asr #1
     984:	09709102 	ldmdbeq	r0!, {r1, r8, ip, pc}^
     988:	006e5f5f 	rsbeq	r5, lr, pc, asr pc
     98c:	00251601 	eoreq	r1, r5, r1, lsl #12
     990:	91020000 	mrsls	r0, (UNDEF: 2)
     994:	010d006c 	tsteq	sp, ip, rrx
     998:	000003dc 	ldrdeq	r0, [r0], -ip
     99c:	be013202 	cdplt	2, 0, cr3, cr1, cr2, {0}
     9a0:	b4000000 	strlt	r0, [r0], #-0
     9a4:	1480000d 	strne	r0, [r0], #13
     9a8:	7080000e 	addvc	r0, r0, lr
     9ac:	01000003 	tsteq	r0, r3
     9b0:	000001c6 	andeq	r0, r0, r6, asr #3
     9b4:	0003e408 	andeq	lr, r3, r8, lsl #8
     9b8:	be1b0100 	muflte	f0, f3, f0
     9bc:	02000000 	andeq	r0, r0, #0
     9c0:	c8087491 	stmdagt	r8, {r0, r4, r7, sl, ip, sp, lr}
     9c4:	01000003 	tsteq	r0, r3
     9c8:	0000c01b 	andeq	ip, r0, fp, lsl r0
     9cc:	70910200 	addsvc	r0, r1, r0, lsl #4
     9d0:	6e5f5f09 	cdpvs	15, 5, cr5, cr15, cr9, {0}
     9d4:	251b0100 	ldrcs	r0, [fp, #-256]	; 0x100
     9d8:	02000000 	andeq	r0, r0, #0
     9dc:	0e006c91 	mcreq	12, 0, r6, cr0, cr1, {4}
     9e0:	0003eb01 	andeq	lr, r3, r1, lsl #22
     9e4:	01600200 	cmneq	r0, r0, lsl #4
     9e8:	000000be 	strheq	r0, [r0], -lr
     9ec:	80000e14 	andhi	r0, r0, r4, lsl lr
     9f0:	80000e9c 	mulhi	r0, ip, lr
     9f4:	0000039c 	muleq	r0, ip, r3
     9f8:	00021601 	andeq	r1, r2, r1, lsl #12
     9fc:	00730900 	rsbseq	r0, r3, r0, lsl #18
     a00:	00c02301 	sbceq	r2, r0, r1, lsl #6
     a04:	91020000 	mrsls	r0, (UNDEF: 2)
     a08:	0063096c 	rsbeq	r0, r3, ip, ror #18
     a0c:	00452301 	subeq	r2, r5, r1, lsl #6
     a10:	91020000 	mrsls	r0, (UNDEF: 2)
     a14:	006e0968 	rsbeq	r0, lr, r8, ror #18
     a18:	00252301 	eoreq	r2, r5, r1, lsl #6
     a1c:	91020000 	mrsls	r0, (UNDEF: 2)
     a20:	735f0a64 	cmpvc	pc, #100, 20	; 0x64000
     a24:	16250100 	strtne	r0, [r5], -r0, lsl #2
     a28:	02000002 	andeq	r0, r0, #2
     a2c:	05007491 	streq	r7, [r0, #-1169]	; 0x491
     a30:	00021c04 	andeq	r1, r2, r4, lsl #24
     a34:	00cd0600 	sbceq	r0, sp, r0, lsl #12
     a38:	010f0000 	mrseq	r0, CPSR
     a3c:	000003f9 	strdeq	r0, [r0], -r9
     a40:	01018f02 	tsteq	r1, r2, lsl #30
     a44:	00000025 	andeq	r0, r0, r5, lsr #32
     a48:	80000e9c 	mulhi	r0, ip, lr
     a4c:	80000ef0 	strdhi	r0, [r0], -r0	; <UNPREDICTABLE>
     a50:	000003c8 	andeq	r0, r0, r8, asr #7
     a54:	00025a01 	andeq	r5, r2, r1, lsl #20
     a58:	00730900 	rsbseq	r0, r3, r0, lsl #18
     a5c:	004c3001 	subeq	r3, ip, r1
     a60:	91020000 	mrsls	r0, (UNDEF: 2)
     a64:	63730a6c 	cmnvs	r3, #108, 20	; 0x6c000
     a68:	4c320100 	ldfmis	f0, [r2], #-0
     a6c:	02000000 	andeq	r0, r0, #0
     a70:	0e007491 	mcreq	4, 0, r7, cr0, cr1, {4}
     a74:	00041e01 	andeq	r1, r4, r1, lsl #28
     a78:	01420200 	mrseq	r0, (UNDEF: 98)
     a7c:	000000be 	strheq	r0, [r0], -lr
     a80:	80000ef0 	strdhi	r0, [r0], -r0	; <UNPREDICTABLE>
     a84:	80000f6c 	andhi	r0, r0, ip, ror #30
     a88:	000003f4 	strdeq	r0, [r0], -r4
     a8c:	0002ac01 	andeq	sl, r2, r1, lsl #24
     a90:	00730900 	rsbseq	r0, r3, r0, lsl #18
     a94:	00be3801 	adcseq	r3, lr, r1, lsl #16
     a98:	91020000 	mrsls	r0, (UNDEF: 2)
     a9c:	0063096c 	rsbeq	r0, r3, ip, ror #18
     aa0:	00453801 	subeq	r3, r5, r1, lsl #16
     aa4:	91020000 	mrsls	r0, (UNDEF: 2)
     aa8:	04820868 	streq	r0, [r2], #2152	; 0x868
     aac:	38010000 	stmdacc	r1, {}	; <UNPREDICTABLE>
     ab0:	00000025 	andeq	r0, r0, r5, lsr #32
     ab4:	0a649102 	beq	1924ec4 <GUEST_OFFSET-0x7e6db13c>
     ab8:	01007378 	tsteq	r0, r8, ror r3
     abc:	0002ac3a 	andeq	sl, r2, sl, lsr ip
     ac0:	74910200 	ldrvc	r0, [r1], #512	; 0x200
     ac4:	57040500 	strpl	r0, [r4, -r0, lsl #10]
     ac8:	0e000000 	cdpeq	0, 0, cr0, cr0, cr0, {0}
     acc:	0003d501 	andeq	sp, r3, r1, lsl #10
     ad0:	01450200 	mrseq	r0, (UNDEF: 101)
     ad4:	00000045 	andeq	r0, r0, r5, asr #32
     ad8:	80000f6c 	andhi	r0, r0, ip, ror #30
     adc:	8000102c 	andhi	r1, r0, ip, lsr #32
     ae0:	00000420 	andeq	r0, r0, r0, lsr #8
     ae4:	00031301 	andeq	r1, r3, r1, lsl #6
     ae8:	31700900 	cmncc	r0, r0, lsl #18
     aec:	c0400100 	subgt	r0, r0, r0, lsl #2
     af0:	02000000 	andeq	r0, r0, #0
     af4:	70096c91 	mulvc	r9, r1, ip
     af8:	40010032 	andmi	r0, r1, r2, lsr r0
     afc:	000000c0 	andeq	r0, r0, r0, asr #1
     b00:	09689102 	stmdbeq	r8!, {r1, r8, ip, pc}^
     b04:	4001006e 	andmi	r0, r1, lr, rrx
     b08:	00000025 	andeq	r0, r0, r5, lsr #32
     b0c:	0a649102 	beq	1924f1c <GUEST_OFFSET-0x7e6db0e4>
     b10:	0031705f 	eorseq	r7, r1, pc, asr r0
     b14:	02164201 	andseq	r4, r6, #268435456	; 0x10000000
     b18:	91020000 	mrsls	r0, (UNDEF: 2)
     b1c:	705f0a74 	subsvc	r0, pc, r4, ror sl	; <UNPREDICTABLE>
     b20:	43010032 	movwmi	r0, #4146	; 0x1032
     b24:	00000216 	andeq	r0, r0, r6, lsl r2
     b28:	00709102 	rsbseq	r9, r0, r2, lsl #2
     b2c:	046c010e 	strbteq	r0, [ip], #-270	; 0x10e
     b30:	90020000 	andls	r0, r2, r0
     b34:	00004501 	andeq	r4, r0, r1, lsl #10
     b38:	00102c00 	andseq	r2, r0, r0, lsl #24
     b3c:	00111080 	andseq	r1, r1, r0, lsl #1
     b40:	00044c80 	andeq	r4, r4, r0, lsl #25
     b44:	034c0100 	movteq	r0, #49408	; 0xc100
     b48:	73090000 	movwvc	r0, #36864	; 0x9000
     b4c:	50010031 	andpl	r0, r1, r1, lsr r0
     b50:	0000004c 	andeq	r0, r0, ip, asr #32
     b54:	09749102 	ldmdbeq	r4!, {r1, r8, ip, pc}^
     b58:	01003273 	tsteq	r0, r3, ror r2
     b5c:	00004c50 	andeq	r4, r0, r0, asr ip
     b60:	70910200 	addsvc	r0, r1, r0, lsl #4
     b64:	7a010e00 	bvc	4436c <GUEST_OFFSET-0x7ffbbc94>
     b68:	02000004 	andeq	r0, r0, #4
     b6c:	00450193 	umaaleq	r0, r5, r3, r1
     b70:	11100000 	tstne	r0, r0
     b74:	122c8000 	eorne	r8, ip, #0
     b78:	04788000 	ldrbteq	r8, [r8], #-0
     b7c:	91010000 	mrsls	r0, (UNDEF: 1)
     b80:	09000003 	stmdbeq	r0, {r0, r1}
     b84:	01003173 	tsteq	r0, r3, ror r1
     b88:	00004c63 	andeq	r4, r0, r3, ror #24
     b8c:	74910200 	ldrvc	r0, [r1], #512	; 0x200
     b90:	00327309 	eorseq	r7, r2, r9, lsl #6
     b94:	004c6301 	subeq	r6, ip, r1, lsl #6
     b98:	91020000 	mrsls	r0, (UNDEF: 2)
     b9c:	006e0970 	rsbeq	r0, lr, r0, ror r9
     ba0:	00256301 	eoreq	r6, r5, r1, lsl #6
     ba4:	91020000 	mrsls	r0, (UNDEF: 2)
     ba8:	010e006c 	tsteq	lr, ip, rrx
     bac:	000003f2 	strdeq	r0, [r0], -r2
     bb0:	ac01ec02 	stcge	12, cr14, [r1], {2}
     bb4:	2c000002 	stccs	0, cr0, [r0], {2}
     bb8:	ac800012 	stcge	0, cr0, [r0], {18}
     bbc:	a4800012 	strge	r0, [r0], #18
     bc0:	01000004 	tsteq	r0, r4
     bc4:	000003d5 	ldrdeq	r0, [r0], -r5
     bc8:	01007309 	tsteq	r0, r9, lsl #6
     bcc:	00004c75 	andeq	r4, r0, r5, ror ip
     bd0:	6c910200 	lfmvs	f0, 4, [r1], {0}
     bd4:	01006309 	tsteq	r0, r9, lsl #6
     bd8:	00004575 	andeq	r4, r0, r5, ror r5
     bdc:	68910200 	ldmvs	r1, {r9}
     be0:	00735f0a 	rsbseq	r5, r3, sl, lsl #30
     be4:	02167701 	andseq	r7, r6, #262144	; 0x40000
     be8:	91020000 	mrsls	r0, (UNDEF: 2)
     bec:	010e0074 	tsteq	lr, r4, ror r0
     bf0:	00000410 	andeq	r0, r0, r0, lsl r4
     bf4:	ac018102 	stfged	f0, [r1], {2}
     bf8:	ac000002 	stcge	0, cr0, [r0], {2}
     bfc:	38800012 	stmcc	r0, {r1, r4}
     c00:	d0800013 	addle	r0, r0, r3, lsl r0
     c04:	01000004 	tsteq	r0, r4
     c08:	0000041c 	andeq	r0, r0, ip, lsl r4
     c0c:	0003e608 	andeq	lr, r3, r8, lsl #12
     c10:	ac810100 	stfges	f0, [r1], {0}
     c14:	02000002 	andeq	r0, r0, #2
     c18:	73096c91 	movwvc	r6, #40081	; 0x9c91
     c1c:	01006372 	tsteq	r0, r2, ror r3
     c20:	00004c81 	andeq	r4, r0, r1, lsl #25
     c24:	68910200 	ldmvs	r1, {r9}
     c28:	0100690a 	tsteq	r0, sl, lsl #18
     c2c:	00003083 	andeq	r3, r0, r3, lsl #1
     c30:	74910200 	ldrvc	r0, [r1], #512	; 0x200
     c34:	00010e00 	andeq	r0, r1, r0, lsl #28
     c38:	01000004 	tsteq	r0, r4
     c3c:	0030018b 	eorseq	r0, r0, fp, lsl #3
     c40:	13380000 	teqne	r8, #0
     c44:	14cc8000 	strbne	r8, [ip], #0
     c48:	04fc8000 	ldrbteq	r8, [ip], #0
     c4c:	65010000 	strvs	r0, [r1, #-0]
     c50:	09000004 	stmdbeq	r0, {r2}
     c54:	00637273 	rsbeq	r7, r3, r3, ror r2
     c58:	02ac8b01 	adceq	r8, ip, #1024	; 0x400
     c5c:	91020000 	mrsls	r0, (UNDEF: 2)
     c60:	61760a6c 	cmnvs	r6, ip, ror #20
     c64:	8d01006c 	stchi	0, cr0, [r1, #-432]	; 0xfffffe50
     c68:	00000030 	andeq	r0, r0, r0, lsr r0
     c6c:	0a749102 	beq	1d2507c <GUEST_OFFSET-0x7e2daf84>
     c70:	00736f70 	rsbseq	r6, r3, r0, ror pc
     c74:	00458e01 	subeq	r8, r5, r1, lsl #28
     c78:	91020000 	mrsls	r0, (UNDEF: 2)
     c7c:	01100070 	tsteq	r0, r0, ror r0
     c80:	00000434 	andeq	r0, r0, r4, lsr r4
     c84:	cc01a001 	stcgt	0, cr10, [r1], {1}
     c88:	cc800014 	stcgt	0, cr0, [r0], {20}
     c8c:	28800015 	stmcs	r0, {r0, r2, r4}
     c90:	01000005 	tsteq	r0, r5
     c94:	000004c9 	andeq	r0, r0, r9, asr #9
     c98:	74736409 	ldrbtvc	r6, [r3], #-1033	; 0x409
     c9c:	aca00100 	stfges	f0, [r0]
     ca0:	02000002 	andeq	r0, r0, #2
     ca4:	73096c91 	movwvc	r6, #40081	; 0x9c91
     ca8:	01006372 	tsteq	r0, r2, ror r3
     cac:	000030a0 	andeq	r3, r0, r0, lsr #1
     cb0:	68910200 	ldmvs	r1, {r9}
     cb4:	6574690a 	ldrbvs	r6, [r4, #-2314]!	; 0x90a
     cb8:	45a20100 	strmi	r0, [r2, #256]!	; 0x100
     cbc:	02000000 	andeq	r0, r0, #0
     cc0:	700a7491 	mulvc	sl, r1, r4
     cc4:	0100736f 	tsteq	r0, pc, ror #6
     cc8:	000045a2 	andeq	r4, r0, r2, lsr #11
     ccc:	70910200 	addsvc	r0, r1, r0, lsl #4
     cd0:	00044a11 	andeq	r4, r4, r1, lsl sl
     cd4:	d9a30100 	stmible	r3!, {r8}
     cd8:	05000004 	streq	r0, [r0, #-4]
     cdc:	001e1803 	andseq	r1, lr, r3, lsl #16
     ce0:	57120080 	ldrpl	r0, [r2, -r0, lsl #1]
     ce4:	d9000000 	stmdble	r0, {}	; <UNPREDICTABLE>
     ce8:	13000004 	movwne	r0, #4
     cec:	00000037 	andeq	r0, r0, r7, lsr r0
     cf0:	c9060010 	stmdbgt	r6, {r4}
     cf4:	0e000004 	cdpeq	0, 0, cr0, cr0, cr4, {0}
     cf8:	00041701 	andeq	r1, r4, r1, lsl #14
     cfc:	01890200 	orreq	r0, r9, r0, lsl #4
     d00:	000002ac 	andeq	r0, r0, ip, lsr #5
     d04:	800015cc 	andhi	r1, r0, ip, asr #11
     d08:	8000165c 	andhi	r1, r0, ip, asr r6
     d0c:	00000554 	andeq	r0, r0, r4, asr r5
     d10:	00051901 	andeq	r1, r5, r1, lsl #18
     d14:	03e60800 	mvneq	r0, #0, 16
     d18:	b5010000 	strlt	r0, [r1, #-0]
     d1c:	000002ac 	andeq	r0, r0, ip, lsr #5
     d20:	09749102 	ldmdbeq	r4!, {r1, r8, ip, pc}^
     d24:	00637273 	rsbeq	r7, r3, r3, ror r2
     d28:	004cb501 	subeq	fp, ip, r1, lsl #10
     d2c:	91020000 	mrsls	r0, (UNDEF: 2)
     d30:	01140070 	tsteq	r4, r0, ror r0
     d34:	00000453 	andeq	r0, r0, r3, asr r4
     d38:	4501c301 	strmi	ip, [r1, #-769]	; 0x301
     d3c:	5c000000 	stcpl	0, cr0, [r0], {-0}
     d40:	40800016 	addmi	r0, r0, r6, lsl r0
     d44:	80800017 	addhi	r0, r0, r7, lsl r0
     d48:	01000005 	tsteq	r0, r5
     d4c:	63727309 	cmnvs	r2, #603979776	; 0x24000000
     d50:	acc30100 	stfgee	f0, [r3], {0}
     d54:	02000002 	andeq	r0, r0, #2
     d58:	760a6491 			; <UNDEFINED> instruction: 0x760a6491
     d5c:	01006c61 	tsteq	r0, r1, ror #24
     d60:	000045c5 	andeq	r4, r0, r5, asr #11
     d64:	74910200 	ldrvc	r0, [r1], #512	; 0x200
     d68:	736f700a 	cmnvc	pc, #10
     d6c:	45c50100 	strbmi	r0, [r5, #256]	; 0x100
     d70:	02000000 	andeq	r0, r0, #0
     d74:	44117091 	ldrmi	r7, [r1], #-145	; 0x91
     d78:	01000004 	tsteq	r0, r4
     d7c:	000045c5 	andeq	r4, r0, r5, asr #11
     d80:	6c910200 	lfmvs	f0, 4, [r1], {0}
     d84:	00960000 	addseq	r0, r6, r0
     d88:	00020000 	andeq	r0, r2, r0
     d8c:	000005a1 	andeq	r0, r0, r1, lsr #11
     d90:	06400104 	strbeq	r0, [r0], -r4, lsl #2
     d94:	17400000 	strbne	r0, [r0, -r0]
     d98:	18208000 	stmdane	r0!, {pc}
     d9c:	2e2e8000 	cdpcs	0, 2, cr8, cr14, cr0, {0}
     da0:	2f2e2e2f 	svccs	0x002e2e2f
     da4:	2e2f2e2e 	cdpcs	14, 2, cr2, cr15, cr14, {1}
     da8:	6f632f2e 	svcvs	0x00632f2e
     dac:	6e6f6d6d 	cdpvs	13, 6, cr6, cr15, cr13, {3}
     db0:	6575672f 	ldrbvs	r6, [r5, #-1839]!	; 0x72f
     db4:	632f7473 	teqvs	pc, #1929379840	; 0x73000000
     db8:	2f65726f 	svccs	0x0065726f
     dbc:	73657567 	cmnvc	r5, #432013312	; 0x19c00000
     dc0:	00532e74 	subseq	r2, r3, r4, ror lr
     dc4:	6d6f682f 	stclvs	8, cr6, [pc, #-188]!	; d10 <GUEST_OFFSET-0x7ffff2f0>
     dc8:	61632f65 	cmnvs	r3, r5, ror #30
     dcc:	6e6f6973 	mcrvs	9, 3, r6, cr15, cr3, {3}
     dd0:	2f6f6f77 	svccs	0x006f6f77
     dd4:	7079686b 	rsbsvc	r6, r9, fp, ror #16
     dd8:	69767265 	ldmdbvs	r6!, {r0, r2, r5, r6, r9, ip, sp, lr}^
     ddc:	2f726f73 	svccs	0x00726f73
     de0:	74616c70 	strbtvc	r6, [r1], #-3184	; 0xc70
     de4:	6d726f66 	ldclvs	15, cr6, [r2, #-408]!	; 0xfffffe68
     de8:	7665642d 	strbtvc	r6, [r5], -sp, lsr #8
     dec:	2f656369 	svccs	0x00656369
     df0:	74726f63 	ldrbtvc	r6, [r2], #-3939	; 0xf63
     df4:	615f7865 	cmpvs	pc, r5, ror #16
     df8:	32783531 	rsbscc	r3, r8, #205520896	; 0xc400000
     dfc:	7374725f 	cmnvc	r4, #-268435451	; 0xf0000005
     e00:	75672f6d 	strbvc	r2, [r7, #-3949]!	; 0xf6d
     e04:	6f747365 	svcvs	0x00747365
     e08:	6d622f73 	stclvs	15, cr2, [r2, #-460]!	; 0xfffffe34
     e0c:	73657567 	cmnvc	r5, #432013312	; 0x19c00000
     e10:	4e470074 	mcrmi	0, 2, r0, cr7, cr4, {3}
     e14:	53412055 	movtpl	r2, #4181	; 0x1055
     e18:	322e3220 	eorcc	r3, lr, #32, 4
     e1c:	80010034 	andhi	r0, r1, r4, lsr r0
     e20:	00000128 	andeq	r0, r0, r8, lsr #2
     e24:	05b50002 	ldreq	r0, [r5, #2]!
     e28:	01040000 	mrseq	r0, (UNDEF: 4)
     e2c:	00000007 	andeq	r0, r0, r7
     e30:	0004cd01 	andeq	ip, r4, r1, lsl #26
     e34:	00003d00 	andeq	r3, r0, r0, lsl #26
     e38:	00182000 	andseq	r2, r8, r0
     e3c:	00196880 	andseq	r6, r9, r0, lsl #17
     e40:	0006ca80 	andeq	ip, r6, r0, lsl #21
     e44:	b3010200 	movwlt	r0, #4608	; 0x1200
     e48:	01000004 	tsteq	r0, r4
     e4c:	18200107 	stmdane	r0!, {r0, r1, r2, r8}
     e50:	18348000 	ldmdane	r4!, {pc}
     e54:	05ac8000 	streq	r8, [ip, #0]!
     e58:	03010000 	movweq	r0, #4096	; 0x1000
     e5c:	0004a801 	andeq	sl, r4, r1, lsl #16
     e60:	01130100 	tsteq	r3, r0, lsl #2
     e64:	80001834 	andhi	r1, r0, r4, lsr r8
     e68:	8000188c 	andhi	r1, r0, ip, lsl #17
     e6c:	000005d8 	ldrdeq	r0, [r0], -r8
     e70:	00007201 	andeq	r7, r0, r1, lsl #4
     e74:	74730400 	ldrbtvc	r0, [r3], #-1024	; 0x400
     e78:	13010072 	movwne	r0, #4210	; 0x1072
     e7c:	00000072 	andeq	r0, r0, r2, ror r0
     e80:	056c9102 	strbeq	r9, [ip, #-258]!	; 0x102
     e84:	000004bd 			; <UNDEFINED> instruction: 0x000004bd
     e88:	00721501 	rsbseq	r1, r2, r1, lsl #10
     e8c:	91020000 	mrsls	r0, (UNDEF: 2)
     e90:	04060074 	streq	r0, [r6], #-116	; 0x74
     e94:	00000078 	andeq	r0, r0, r8, ror r0
     e98:	33080107 	movwcc	r0, #33031	; 0x8107
     e9c:	03000000 	movweq	r0, #0
     ea0:	0004c301 	andeq	ip, r4, r1, lsl #6
     ea4:	011a0100 	tsteq	sl, r0, lsl #2
     ea8:	8000188c 	andhi	r1, r0, ip, lsl #17
     eac:	800018c4 	andhi	r1, r0, r4, asr #17
     eb0:	00000604 	andeq	r0, r0, r4, lsl #12
     eb4:	0000b401 	andeq	fp, r0, r1, lsl #8
     eb8:	00630400 	rsbeq	r0, r3, r0, lsl #8
     ebc:	00781a01 	rsbseq	r1, r8, r1, lsl #20
     ec0:	91020000 	mrsls	r0, (UNDEF: 2)
     ec4:	04bd056f 	ldrteq	r0, [sp], #1391	; 0x56f
     ec8:	1c010000 	stcne	0, cr0, [r1], {-0}
     ecc:	000000b4 	strheq	r0, [r0], -r4
     ed0:	00749102 	rsbseq	r9, r4, r2, lsl #2
     ed4:	00ba0406 	adcseq	r0, sl, r6, lsl #8
     ed8:	78080000 	stmdavc	r8, {}	; <UNPREDICTABLE>
     edc:	09000000 	stmdbeq	r0, {}	; <UNPREDICTABLE>
     ee0:	0004e801 	andeq	lr, r4, r1, lsl #16
     ee4:	01200100 	teqeq	r0, r0, lsl #2
     ee8:	800018c4 	andhi	r1, r0, r4, asr #17
     eec:	80001968 	andhi	r1, r0, r8, ror #18
     ef0:	00000630 	andeq	r0, r0, r0, lsr r6
     ef4:	00010c01 	andeq	r0, r1, r1, lsl #24
     ef8:	00760400 	rsbseq	r0, r6, r0, lsl #8
     efc:	010c2001 	tsteq	ip, r1
     f00:	91020000 	mrsls	r0, (UNDEF: 2)
     f04:	04f90564 	ldrbteq	r0, [r9], #1380	; 0x564
     f08:	22010000 	andcs	r0, r1, #0
     f0c:	0000010c 	andeq	r0, r0, ip, lsl #2
     f10:	0a6c9102 	beq	1b25320 <GUEST_OFFSET-0x7e4dace0>
     f14:	23010063 	movwcs	r0, #4195	; 0x1063
     f18:	0000010c 	andeq	r0, r0, ip, lsl #2
     f1c:	0a749102 	beq	1d2532c <GUEST_OFFSET-0x7e2dacd4>
     f20:	24010069 	strcs	r0, [r1], #-105	; 0x69
     f24:	00000113 	andeq	r0, r0, r3, lsl r1
     f28:	00709102 	rsbseq	r9, r0, r2, lsl #2
     f2c:	1d070407 	cfstrsne	mvf0, [r7, #-28]	; 0xffffffe4
     f30:	0b000000 	bleq	f38 <GUEST_OFFSET-0x7ffff0c8>
     f34:	6e690504 	cdpvs	5, 6, cr0, cr9, cr4, {0}
     f38:	dc050074 	stcle	0, cr0, [r5], {116}	; 0x74
     f3c:	01000004 	tsteq	r0, r4
     f40:	00007805 	andeq	r7, r0, r5, lsl #16
     f44:	1c030500 	cfstr32ne	mvfx0, [r3], {-0}
     f48:	00800020 	addeq	r0, r0, r0, lsr #32
     f4c:	000002d2 	ldrdeq	r0, [r0], -r2
     f50:	06680002 	strbteq	r0, [r8], -r2
     f54:	01040000 	mrseq	r0, (UNDEF: 4)
     f58:	00000007 	andeq	r0, r0, r7
     f5c:	00053c01 	andeq	r3, r5, r1, lsl #24
     f60:	00003d00 	andeq	r3, r0, r0, lsl #26
     f64:	00196800 	andseq	r6, r9, r0, lsl #16
     f68:	001bec80 	andseq	lr, fp, r0, lsl #25
     f6c:	00072b80 	andeq	r2, r7, r0, lsl #23
     f70:	05040200 	streq	r0, [r4, #-512]	; 0x200
     f74:	00746e69 	rsbseq	r6, r4, r9, ror #28
     f78:	00030703 	andeq	r0, r3, r3, lsl #14
     f7c:	37050200 	strcc	r0, [r5, -r0, lsl #4]
     f80:	04000000 	streq	r0, [r0], #-0
     f84:	001d0704 	andseq	r0, sp, r4, lsl #14
     f88:	02040000 	andeq	r0, r4, #0
     f8c:	00008b07 	andeq	r8, r0, r7, lsl #22
     f90:	07080400 	streq	r0, [r8, -r0, lsl #8]
     f94:	00000013 	andeq	r0, r0, r3, lsl r0
     f98:	00025903 	andeq	r5, r2, r3, lsl #18
     f9c:	57080200 	strpl	r0, [r8, -r0, lsl #4]
     fa0:	04000000 	streq	r0, [r0], #-0
     fa4:	002a0801 	eoreq	r0, sl, r1, lsl #16
     fa8:	1b050000 	blne	140fb0 <GUEST_OFFSET-0x7febf050>
     fac:	04000003 	streq	r0, [r0], #-3
     fb0:	00950903 	addseq	r0, r5, r3, lsl #18
     fb4:	c2060000 	andgt	r0, r6, #0
     fb8:	00000001 	andeq	r0, r0, r1
     fbc:	0002cd06 	andeq	ip, r2, r6, lsl #26
     fc0:	e7067f00 	str	r7, [r6, -r0, lsl #30]
     fc4:	7e000002 	cdpvc	0, 0, cr0, cr0, cr2, {0}
     fc8:	0002bc06 	andeq	fp, r2, r6, lsl #24
     fcc:	f4067d00 			; <UNDEFINED> instruction: 0xf4067d00
     fd0:	7c000001 	stcvc	0, cr0, [r0], {1}
     fd4:	00019c06 	andeq	r9, r1, r6, lsl #24
     fd8:	a8067b00 	stmdage	r6, {r8, r9, fp, ip, sp, lr}
     fdc:	7a000002 	bvc	fec <GUEST_OFFSET-0x7ffff014>
     fe0:	02730300 	rsbseq	r0, r3, #0, 6
     fe4:	11030000 	mrsne	r0, (UNDEF: 3)
     fe8:	0000005e 	andeq	r0, r0, lr, asr r0
     fec:	0005d403 	andeq	sp, r5, r3, lsl #8
     ff0:	4c1b0300 	ldcmi	3, cr0, [fp], {-0}
     ff4:	07000000 	streq	r0, [r0, -r0]
     ff8:	c1010804 	tstgt	r1, r4, lsl #16
     ffc:	01000005 	tsteq	r0, r5
    1000:	1968012a 	stmdbne	r8!, {r1, r3, r5, r8}^
    1004:	19948000 	ldmibne	r4, {pc}
    1008:	065c8000 	ldrbeq	r8, [ip], -r0
    100c:	e4010000 	str	r0, [r1], #-0
    1010:	09000000 	stmdbeq	r0, {}	; <UNPREDICTABLE>
    1014:	000005cc 	andeq	r0, r0, ip, asr #11
    1018:	002c2a01 	eoreq	r2, ip, r1, lsl #20
    101c:	91020000 	mrsls	r0, (UNDEF: 2)
    1020:	05260974 	streq	r0, [r6, #-2420]!	; 0x974
    1024:	2a010000 	bcs	4102c <GUEST_OFFSET-0x7ffbefd4>
    1028:	0000002c 	andeq	r0, r0, ip, lsr #32
    102c:	00709102 	rsbseq	r9, r0, r2, lsl #2
    1030:	05ad010a 	streq	r0, [sp, #266]!	; 0x10a
    1034:	2f010000 	svccs	0x00010000
    1038:	00199401 	andseq	r9, r9, r1, lsl #8
    103c:	0019f080 	andseq	pc, r9, r0, lsl #1
    1040:	00068880 	andeq	r8, r6, r0, lsl #17
    1044:	01290100 	teqeq	r9, r0, lsl #2
    1048:	26090000 	strcs	r0, [r9], -r0
    104c:	01000005 	tsteq	r0, r5
    1050:	00002c2f 	andeq	r2, r0, pc, lsr #24
    1054:	6c910200 	lfmvs	f0, 4, [r1], {0}
    1058:	00053109 	andeq	r3, r5, r9, lsl #2
    105c:	2c2f0100 	stfcss	f0, [pc], #-0	; 1064 <GUEST_OFFSET-0x7fffef9c>
    1060:	02000000 	andeq	r0, r0, #0
    1064:	720b6891 	andvc	r6, fp, #9502720	; 0x910000
    1068:	01006765 	tsteq	r0, r5, ror #14
    106c:	00012931 	andeq	r2, r1, r1, lsr r9
    1070:	74910200 	ldrvc	r0, [r1], #512	; 0x200
    1074:	002c0c00 	eoreq	r0, ip, r0, lsl #24
    1078:	01080000 	mrseq	r0, (UNDEF: 8)
    107c:	00000552 	andeq	r0, r0, r2, asr r5
    1080:	f0013c01 			; <UNDEFINED> instruction: 0xf0013c01
    1084:	38800019 	stmcc	r0, {r0, r3, r4}
    1088:	b480001a 	strlt	r0, [r0], #26
    108c:	01000006 	tsteq	r0, r6
    1090:	00000165 	andeq	r0, r0, r5, ror #2
    1094:	00052609 	andeq	r2, r5, r9, lsl #12
    1098:	2c3c0100 	ldfcss	f0, [ip], #-0
    109c:	02000000 	andeq	r0, r0, #0
    10a0:	720b6c91 	andvc	r6, fp, #37120	; 0x9100
    10a4:	01006765 	tsteq	r0, r5, ror #14
    10a8:	0001293e 	andeq	r2, r1, lr, lsr r9
    10ac:	74910200 	ldrvc	r0, [r1], #512	; 0x200
    10b0:	ff010a00 			; <UNDEFINED> instruction: 0xff010a00
    10b4:	01000004 	tsteq	r0, r4
    10b8:	1a380143 	bne	e015cc <GUEST_OFFSET-0x7f1fea34>
    10bc:	1a688000 	bne	1a210c4 <GUEST_OFFSET-0x7e5def3c>
    10c0:	06e08000 	strbteq	r8, [r0], r0
    10c4:	9c010000 	stcls	0, cr0, [r1], {-0}
    10c8:	09000001 	stmdbeq	r0, {r0}
    10cc:	00000526 	andeq	r0, r0, r6, lsr #10
    10d0:	002c4301 	eoreq	r4, ip, r1, lsl #6
    10d4:	91020000 	mrsls	r0, (UNDEF: 2)
    10d8:	05310974 	ldreq	r0, [r1, #-2420]!	; 0x974
    10dc:	43010000 	movwmi	r0, #4096	; 0x1000
    10e0:	0000002c 	andeq	r0, r0, ip, lsr #32
    10e4:	00709102 	rsbseq	r9, r0, r2, lsl #2
    10e8:	05650108 	strbeq	r0, [r5, #-264]!	; 0x108
    10ec:	4a010000 	bmi	410f4 <GUEST_OFFSET-0x7ffbef0c>
    10f0:	001a6801 	andseq	r6, sl, r1, lsl #16
    10f4:	001a9480 	andseq	r9, sl, r0, lsl #9
    10f8:	00070c80 	andeq	r0, r7, r0, lsl #25
    10fc:	01c50100 	biceq	r0, r5, r0, lsl #2
    1100:	26090000 	strcs	r0, [r9], -r0
    1104:	01000005 	tsteq	r0, r5
    1108:	00002c4a 	andeq	r2, r0, sl, asr #24
    110c:	74910200 	ldrvc	r0, [r1], #512	; 0x200
    1110:	0a010800 	beq	43118 <GUEST_OFFSET-0x7ffbcee8>
    1114:	01000005 	tsteq	r0, r5
    1118:	1a94014f 	bne	fe50165c <guest_stacklimit+0x6e50165c>
    111c:	1adc8000 	bne	ff721124 <guest_stacklimit+0x6f721124>
    1120:	07388000 	ldreq	r8, [r8, -r0]!
    1124:	fc010000 	stc2	0, cr0, [r1], {-0}
    1128:	09000001 	stmdbeq	r0, {r0}
    112c:	00000526 	andeq	r0, r0, r6, lsr #10
    1130:	002c4f01 	eoreq	r4, ip, r1, lsl #30
    1134:	91020000 	mrsls	r0, (UNDEF: 2)
    1138:	65720b6c 	ldrbvs	r0, [r2, #-2924]!	; 0xb6c
    113c:	51010067 	tstpl	r1, r7, rrx
    1140:	00000129 	andeq	r0, r0, r9, lsr #2
    1144:	00749102 	rsbseq	r9, r4, r2, lsl #2
    1148:	058b010d 	streq	r0, [fp, #269]	; 0x10d
    114c:	56010000 	strpl	r0, [r1], -r0
    1150:	00002c01 	andeq	r2, r0, r1, lsl #24
    1154:	001adc00 	andseq	sp, sl, r0, lsl #24
    1158:	001b0880 	andseq	r0, fp, r0, lsl #17
    115c:	00076480 	andeq	r6, r7, r0, lsl #9
    1160:	02290100 	eoreq	r0, r9, #0, 2
    1164:	26090000 	strcs	r0, [r9], -r0
    1168:	01000005 	tsteq	r0, r5
    116c:	00002c56 	andeq	r2, r0, r6, asr ip
    1170:	74910200 	ldrvc	r0, [r1], #512	; 0x200
    1174:	16010800 	strne	r0, [r1], -r0, lsl #16
    1178:	01000005 	tsteq	r0, r5
    117c:	1b08015b 	blne	2016f0 <GUEST_OFFSET-0x7fdfe910>
    1180:	1b348000 	blne	d21188 <GUEST_OFFSET-0x7f2dee78>
    1184:	07908000 	ldreq	r8, [r0, r0]
    1188:	52010000 	andpl	r0, r1, #0
    118c:	09000002 	stmdbeq	r0, {r1}
    1190:	00000526 	andeq	r0, r0, r6, lsr #10
    1194:	002c5b01 	eoreq	r5, ip, r1, lsl #22
    1198:	91020000 	mrsls	r0, (UNDEF: 2)
    119c:	010a0074 	tsteq	sl, r4, ror r0
    11a0:	00000575 	andeq	r0, r0, r5, ror r5
    11a4:	34016001 	strcc	r6, [r1], #-1
    11a8:	a880001b 	stmge	r0, {r0, r1, r3, r4}
    11ac:	bc80001b 	stclt	0, cr0, [r0], {27}
    11b0:	01000007 	tsteq	r0, r7
    11b4:	000002bb 			; <UNDEFINED> instruction: 0x000002bb
    11b8:	7172690e 	cmnvc	r2, lr, lsl #18
    11bc:	25600100 	strbcs	r0, [r0, #-256]!	; 0x100
    11c0:	02000000 	andeq	r0, r0, #0
    11c4:	10096c91 	mulne	r9, r1, ip
    11c8:	01000003 	tsteq	r0, r3
    11cc:	0000ab60 	andeq	sl, r0, r0, ror #22
    11d0:	68910200 	ldmvs	r1, {r9}
    11d4:	00016309 	andeq	r6, r1, r9, lsl #6
    11d8:	ab600100 	blge	18015e0 <GUEST_OFFSET-0x7e7fea20>
    11dc:	02000000 	andeq	r0, r0, #0
    11e0:	630f6491 	movwvs	r6, #62609	; 0xf491
    11e4:	01006c74 	tsteq	r0, r4, ror ip
    11e8:	00002c62 	andeq	r2, r0, r2, ror #24
    11ec:	61760b00 	cmnvs	r6, r0, lsl #22
    11f0:	6301006c 	movwvs	r0, #4204	; 0x106c
    11f4:	0000002c 	andeq	r0, r0, ip, lsr #32
    11f8:	10749102 	rsbsne	r9, r4, r2, lsl #2
    11fc:	00000570 	andeq	r0, r0, r0, ror r5
    1200:	00a06401 	adceq	r6, r0, r1, lsl #8
    1204:	11000000 	mrsne	r0, (UNDEF: 0)
    1208:	00059601 	andeq	r9, r5, r1, lsl #12
    120c:	01710100 	cmneq	r1, r0, lsl #2
    1210:	00000095 	muleq	r0, r5, r0
    1214:	80001ba8 	andhi	r1, r0, r8, lsr #23
    1218:	80001bec 	andhi	r1, r0, ip, ror #23
    121c:	000007e8 	andeq	r0, r0, r8, ror #15
    1220:	Address 0x0000000000001220 is out of bounds.


Disassembly of section .debug_abbrev:

00000000 <.debug_abbrev>:
   0:	10001101 	andne	r1, r0, r1, lsl #2
   4:	12011106 	andne	r1, r1, #-2147483647	; 0x80000001
   8:	1b080301 	blne	200c14 <GUEST_OFFSET-0x7fdff3ec>
   c:	13082508 	movwne	r2, #34056	; 0x8508
  10:	00000005 	andeq	r0, r0, r5
  14:	25011101 	strcs	r1, [r1, #-257]	; 0x101
  18:	030b130e 	movweq	r1, #45838	; 0xb30e
  1c:	110e1b0e 	tstne	lr, lr, lsl #22
  20:	10011201 	andne	r1, r1, r1, lsl #4
  24:	02000006 	andeq	r0, r0, #6
  28:	0b0b0024 	bleq	2c00c0 <GUEST_OFFSET-0x7fd3ff40>
  2c:	08030b3e 	stmdaeq	r3, {r1, r2, r3, r4, r5, r8, r9, fp}
  30:	24030000 	strcs	r0, [r3], #-0
  34:	3e0b0b00 	vmlacc.f64	d0, d11, d0
  38:	000e030b 	andeq	r0, lr, fp, lsl #6
  3c:	012e0400 	teqeq	lr, r0, lsl #8
  40:	0e030c3f 	mcreq	12, 0, r0, cr3, cr15, {1}
  44:	0b3b0b3a 	bleq	ec2d34 <GUEST_OFFSET-0x7f13d2cc>
  48:	01111349 	tsteq	r1, r9, asr #6
  4c:	06400112 			; <UNDEFINED> instruction: 0x06400112
  50:	000c4296 	muleq	ip, r6, r2
  54:	00340500 	eorseq	r0, r4, r0, lsl #10
  58:	0b3a0803 	bleq	e8206c <GUEST_OFFSET-0x7f17df94>
  5c:	13490b3b 	movtne	r0, #39739	; 0x9b3b
  60:	01000000 	mrseq	r0, (UNDEF: 0)
  64:	0e250111 	mcreq	1, 1, r0, cr5, cr1, {0}
  68:	0e030b13 	vmoveq.32	d3[0], r0
  6c:	01110e1b 	tsteq	r1, fp, lsl lr
  70:	06100112 			; <UNDEFINED> instruction: 0x06100112
  74:	24020000 	strcs	r0, [r2], #-0
  78:	3e0b0b00 	vmlacc.f64	d0, d11, d0
  7c:	0008030b 	andeq	r0, r8, fp, lsl #6
  80:	00240300 	eoreq	r0, r4, r0, lsl #6
  84:	0b3e0b0b 	bleq	f82cb8 <GUEST_OFFSET-0x7f07d348>
  88:	00000e03 	andeq	r0, r0, r3, lsl #28
  8c:	3f012e04 	svccc	0x00012e04
  90:	3a0e030c 	bcc	380cc8 <GUEST_OFFSET-0x7fc7f338>
  94:	270b3b0b 	strcs	r3, [fp, -fp, lsl #22]
  98:	1201110c 	andne	r1, r1, #12, 2
  9c:	97064001 	strls	r4, [r6, -r1]
  a0:	13010c42 	movwne	r0, #7234	; 0x1c42
  a4:	34050000 	strcc	r0, [r5], #-0
  a8:	3a080300 	bcc	200cb0 <GUEST_OFFSET-0x7fdff350>
  ac:	490b3b0b 	stmdbmi	fp, {r0, r1, r3, r8, r9, fp, ip, sp}
  b0:	000a0213 	andeq	r0, sl, r3, lsl r2
  b4:	00350600 	eorseq	r0, r5, r0, lsl #12
  b8:	00001349 	andeq	r1, r0, r9, asr #6
  bc:	3f012e07 	svccc	0x00012e07
  c0:	3a0e030c 	bcc	380cf8 <GUEST_OFFSET-0x7fc7f308>
  c4:	270b3b0b 	strcs	r3, [fp, -fp, lsl #22]
  c8:	1201110c 	andne	r1, r1, #12, 2
  cc:	96064001 	strls	r4, [r6], -r1
  d0:	00000c42 	andeq	r0, r0, r2, asr #24
  d4:	3f012e08 	svccc	0x00012e08
  d8:	3a0e030c 	bcc	380d10 <GUEST_OFFSET-0x7fc7f2f0>
  dc:	490b3b0b 	stmdbmi	fp, {r0, r1, r3, r8, r9, fp, ip, sp}
  e0:	000c3c13 	andeq	r3, ip, r3, lsl ip
  e4:	00180900 	andseq	r0, r8, r0, lsl #18
  e8:	01000000 	mrseq	r0, (UNDEF: 0)
  ec:	0e250111 	mcreq	1, 1, r0, cr5, cr1, {0}
  f0:	0e030b13 	vmoveq.32	d3[0], r0
  f4:	01110e1b 	tsteq	r1, fp, lsl lr
  f8:	06100112 			; <UNDEFINED> instruction: 0x06100112
  fc:	13020000 	movwne	r0, #8192	; 0x2000
 100:	0b0e0301 	bleq	380d0c <GUEST_OFFSET-0x7fc7f2f4>
 104:	3b0b3a0b 	blcc	2ce938 <GUEST_OFFSET-0x7fd316c8>
 108:	0013010b 	andseq	r0, r3, fp, lsl #2
 10c:	000d0300 	andeq	r0, sp, r0, lsl #6
 110:	0b3a0e03 	bleq	e83924 <GUEST_OFFSET-0x7f17c6dc>
 114:	13490b3b 	movtne	r0, #39739	; 0x9b3b
 118:	00000a38 	andeq	r0, r0, r8, lsr sl
 11c:	03000d04 	movweq	r0, #3332	; 0xd04
 120:	3b0b3a08 	blcc	2ce948 <GUEST_OFFSET-0x7fd316b8>
 124:	3813490b 	ldmdacc	r3, {r0, r1, r3, r8, fp, lr}
 128:	0500000a 	streq	r0, [r0, #-10]
 12c:	0b0b0024 	bleq	2c01c4 <GUEST_OFFSET-0x7fd3fe3c>
 130:	0e030b3e 	vmoveq.16	d3[0], r0
 134:	01060000 	mrseq	r0, (UNDEF: 6)
 138:	01134901 	tsteq	r3, r1, lsl #18
 13c:	07000013 	smladeq	r0, r3, r0, r0
 140:	13490021 	movtne	r0, #36897	; 0x9021
 144:	00000b2f 	andeq	r0, r0, pc, lsr #22
 148:	3f012e08 	svccc	0x00012e08
 14c:	3a0e030c 	bcc	380d84 <GUEST_OFFSET-0x7fc7f27c>
 150:	270b3b0b 	strcs	r3, [fp, -fp, lsl #22]
 154:	1201110c 	andne	r1, r1, #12, 2
 158:	97064001 	strls	r4, [r6, -r1]
 15c:	13010c42 	movwne	r0, #7234	; 0x1c42
 160:	05090000 	streq	r0, [r9, #-0]
 164:	3a0e0300 	bcc	380d6c <GUEST_OFFSET-0x7fc7f294>
 168:	490b3b0b 	stmdbmi	fp, {r0, r1, r3, r8, r9, fp, ip, sp}
 16c:	000a0213 	andeq	r0, sl, r3, lsl r2
 170:	000f0a00 	andeq	r0, pc, r0, lsl #20
 174:	13490b0b 	movtne	r0, #39691	; 0x9b0b
 178:	2e0b0000 	cdpcs	0, 0, cr0, cr11, cr0, {0}
 17c:	030c3f01 	movweq	r3, #52993	; 0xcf01
 180:	3b0b3a0e 	blcc	2ce9c0 <GUEST_OFFSET-0x7fd31640>
 184:	110c270b 	tstne	ip, fp, lsl #14
 188:	40011201 	andmi	r1, r1, r1, lsl #4
 18c:	0c429606 	mcrreq	6, 0, r9, r2, cr6
 190:	00001301 	andeq	r1, r0, r1, lsl #6
 194:	3f012e0c 	svccc	0x00012e0c
 198:	3a0e030c 	bcc	380dd0 <GUEST_OFFSET-0x7fc7f230>
 19c:	490b3b0b 	stmdbmi	fp, {r0, r1, r3, r8, r9, fp, ip, sp}
 1a0:	000c3c13 	andeq	r3, ip, r3, lsl ip
 1a4:	00180d00 	andseq	r0, r8, r0, lsl #26
 1a8:	240e0000 	strcs	r0, [lr], #-0
 1ac:	3e0b0b00 	vmlacc.f64	d0, d11, d0
 1b0:	0008030b 	andeq	r0, r8, fp, lsl #6
 1b4:	11010000 	mrsne	r0, (UNDEF: 1)
 1b8:	130e2501 	movwne	r2, #58625	; 0xe501
 1bc:	1b0e030b 	blne	380df0 <GUEST_OFFSET-0x7fc7f210>
 1c0:	1201110e 	andne	r1, r1, #-2147483645	; 0x80000003
 1c4:	00061001 	andeq	r1, r6, r1
 1c8:	00240200 	eoreq	r0, r4, r0, lsl #4
 1cc:	0b3e0b0b 	bleq	f82e00 <GUEST_OFFSET-0x7f07d200>
 1d0:	00000803 	andeq	r0, r0, r3, lsl #16
 1d4:	03001603 	movweq	r1, #1539	; 0x603
 1d8:	3b0b3a0e 	blcc	2cea18 <GUEST_OFFSET-0x7fd315e8>
 1dc:	0013490b 	andseq	r4, r3, fp, lsl #18
 1e0:	00240400 	eoreq	r0, r4, r0, lsl #8
 1e4:	0b3e0b0b 	bleq	f82e18 <GUEST_OFFSET-0x7f07d1e8>
 1e8:	00000e03 	andeq	r0, r0, r3, lsl #28
 1ec:	03010405 	movweq	r0, #5125	; 0x1405
 1f0:	3a0b0b0e 	bcc	2c2e30 <GUEST_OFFSET-0x7fd3d1d0>
 1f4:	010b3b0b 	tsteq	fp, fp, lsl #22
 1f8:	06000013 			; <UNDEFINED> instruction: 0x06000013
 1fc:	0e030028 	cdpeq	0, 0, cr0, cr3, cr8, {1}
 200:	00000d1c 	andeq	r0, r0, ip, lsl sp
 204:	0b000f07 	bleq	3e28 <GUEST_OFFSET-0x7fffc1d8>
 208:	0013490b 	andseq	r4, r3, fp, lsl #18
 20c:	01150800 	tsteq	r5, r0, lsl #16
 210:	13010c27 	movwne	r0, #7207	; 0x1c27
 214:	05090000 	streq	r0, [r9, #-0]
 218:	00134900 	andseq	r4, r3, r0, lsl #18
 21c:	000f0a00 	andeq	r0, pc, r0, lsl #20
 220:	00000b0b 	andeq	r0, r0, fp, lsl #22
 224:	0301130b 	movweq	r1, #4875	; 0x130b
 228:	3a050b08 	bcc	142e50 <GUEST_OFFSET-0x7febd1b0>
 22c:	010b3b0b 	tsteq	fp, fp, lsl #22
 230:	0c000013 	stceq	0, cr0, [r0], {19}
 234:	0e03000d 	cdpeq	0, 0, cr0, cr3, cr13, {0}
 238:	0b3b0b3a 	bleq	ec2f28 <GUEST_OFFSET-0x7f13d0d8>
 23c:	0a381349 	beq	e04f68 <GUEST_OFFSET-0x7f1fb098>
 240:	350d0000 	strcc	r0, [sp, #-0]
 244:	00134900 	andseq	r4, r3, r0, lsl #18
 248:	01010e00 	tsteq	r1, r0, lsl #28
 24c:	13011349 	movwne	r1, #4937	; 0x1349
 250:	210f0000 	mrscs	r0, CPSR
 254:	2f134900 	svccs	0x00134900
 258:	1000000b 	andne	r0, r0, fp
 25c:	0e03012e 	adfeqsp	f0, f3, #0.5
 260:	0b3b0b3a 	bleq	ec2f50 <GUEST_OFFSET-0x7f13d0b0>
 264:	13490c27 	movtne	r0, #39975	; 0x9c27
 268:	01120111 	tsteq	r2, r1, lsl r1
 26c:	42970640 	addsmi	r0, r7, #64, 12	; 0x4000000
 270:	0013010c 	andseq	r0, r3, ip, lsl #2
 274:	010b1100 	mrseq	r1, (UNDEF: 27)
 278:	01120111 	tsteq	r2, r1, lsl r1
 27c:	34120000 	ldrcc	r0, [r2], #-0
 280:	3a0e0300 	bcc	380e88 <GUEST_OFFSET-0x7fc7f178>
 284:	490b3b0b 	stmdbmi	fp, {r0, r1, r3, r8, r9, fp, ip, sp}
 288:	000a0213 	andeq	r0, sl, r3, lsl r2
 28c:	012e1300 	teqeq	lr, r0, lsl #6
 290:	0b3a0e03 	bleq	e83aa4 <GUEST_OFFSET-0x7f17c55c>
 294:	0c270b3b 	stceq	11, cr0, [r7], #-236	; 0xffffff14
 298:	01120111 	tsteq	r2, r1, lsl r1
 29c:	42960640 	addsmi	r0, r6, #64, 12	; 0x4000000
 2a0:	0013010c 	andseq	r0, r3, ip, lsl #2
 2a4:	010b1400 	tsteq	fp, r0, lsl #8
 2a8:	01120111 	tsteq	r2, r1, lsl r1
 2ac:	00001301 	andeq	r1, r0, r1, lsl #6
 2b0:	03003415 	movweq	r3, #1045	; 0x415
 2b4:	3b0b3a0e 	blcc	2ceaf4 <GUEST_OFFSET-0x7fd3150c>
 2b8:	0013490b 	andseq	r4, r3, fp, lsl #18
 2bc:	012e1600 	teqeq	lr, r0, lsl #12
 2c0:	0b3a0e03 	bleq	e83ad4 <GUEST_OFFSET-0x7f17c52c>
 2c4:	0c270b3b 	stceq	11, cr0, [r7], #-236	; 0xffffff14
 2c8:	01111349 	tsteq	r1, r9, asr #6
 2cc:	06400112 			; <UNDEFINED> instruction: 0x06400112
 2d0:	010c4296 			; <UNDEFINED> instruction: 0x010c4296
 2d4:	17000013 	smladne	r0, r3, r0, r0
 2d8:	0e030005 	cdpeq	0, 0, cr0, cr3, cr5, {0}
 2dc:	0b3b0b3a 	bleq	ec2fcc <GUEST_OFFSET-0x7f13d034>
 2e0:	0a021349 	beq	8500c <GUEST_OFFSET-0x7ff7aff4>
 2e4:	2e180000 	cdpcs	0, 1, cr0, cr8, cr0, {0}
 2e8:	030c3f01 	movweq	r3, #52993	; 0xcf01
 2ec:	3b0b3a0e 	blcc	2ceb2c <GUEST_OFFSET-0x7fd314d4>
 2f0:	490c270b 	stmdbmi	ip, {r0, r1, r3, r8, r9, sl, sp}
 2f4:	12011113 	andne	r1, r1, #-1073741820	; 0xc0000004
 2f8:	97064001 	strls	r4, [r6, -r1]
 2fc:	13010c42 	movwne	r0, #7234	; 0x1c42
 300:	05190000 	ldreq	r0, [r9, #-0]
 304:	3a080300 	bcc	200f0c <GUEST_OFFSET-0x7fdff0f4>
 308:	490b3b0b 	stmdbmi	fp, {r0, r1, r3, r8, r9, fp, ip, sp}
 30c:	000a0213 	andeq	r0, sl, r3, lsl r2
 310:	012e1a00 	teqeq	lr, r0, lsl #20
 314:	0e030c3f 	mcreq	12, 0, r0, cr3, cr15, {1}
 318:	0b3b0b3a 	bleq	ec3008 <GUEST_OFFSET-0x7f13cff8>
 31c:	13490c27 	movtne	r0, #39975	; 0x9c27
 320:	01120111 	tsteq	r2, r1, lsl r1
 324:	42960640 	addsmi	r0, r6, #64, 12	; 0x4000000
 328:	0013010c 	andseq	r0, r3, ip, lsl #2
 32c:	00341b00 	eorseq	r1, r4, r0, lsl #22
 330:	0b3a0803 	bleq	e82344 <GUEST_OFFSET-0x7f17dcbc>
 334:	13490b3b 	movtne	r0, #39739	; 0x9b3b
 338:	00000a02 	andeq	r0, r0, r2, lsl #20
 33c:	3f012e1c 	svccc	0x00012e1c
 340:	3a0e030c 	bcc	380f78 <GUEST_OFFSET-0x7fc7f088>
 344:	270b3b0b 	strcs	r3, [fp, -fp, lsl #22]
 348:	1201110c 	andne	r1, r1, #12, 2
 34c:	96064001 	strls	r4, [r6], -r1
 350:	13010c42 	movwne	r0, #7234	; 0x1c42
 354:	131d0000 	tstne	sp, #0
 358:	3c0e0300 	stccc	3, cr0, [lr], {-0}
 35c:	0000000c 	andeq	r0, r0, ip
 360:	25011101 	strcs	r1, [r1, #-257]	; 0x101
 364:	030b130e 	movweq	r1, #45838	; 0xb30e
 368:	110e1b0e 	tstne	lr, lr, lsl #22
 36c:	10011201 	andne	r1, r1, r1, lsl #4
 370:	02000006 	andeq	r0, r0, #6
 374:	0b0b0024 	bleq	2c040c <GUEST_OFFSET-0x7fd3fbf4>
 378:	08030b3e 	stmdaeq	r3, {r1, r2, r3, r4, r5, r8, r9, fp}
 37c:	16030000 	strne	r0, [r3], -r0
 380:	3a0e0300 	bcc	380f88 <GUEST_OFFSET-0x7fc7f078>
 384:	490b3b0b 	stmdbmi	fp, {r0, r1, r3, r8, r9, fp, ip, sp}
 388:	04000013 	streq	r0, [r0], #-19
 38c:	0b0b0024 	bleq	2c0424 <GUEST_OFFSET-0x7fd3fbdc>
 390:	0e030b3e 	vmoveq.16	d3[0], r0
 394:	2e050000 	cdpcs	0, 0, cr0, cr5, cr0, {0}
 398:	030c3f01 	movweq	r3, #52993	; 0xcf01
 39c:	3b0b3a0e 	blcc	2cebdc <GUEST_OFFSET-0x7fd31424>
 3a0:	1201110b 	andne	r1, r1, #-1073741822	; 0xc0000002
 3a4:	96064001 	strls	r4, [r6], -r1
 3a8:	13010c42 	movwne	r0, #7234	; 0x1c42
 3ac:	34060000 	strcc	r0, [r6], #-0
 3b0:	3a0e0300 	bcc	380fb8 <GUEST_OFFSET-0x7fc7f048>
 3b4:	490b3b0b 	stmdbmi	fp, {r0, r1, r3, r8, r9, fp, ip, sp}
 3b8:	000a0213 	andeq	r0, sl, r3, lsl r2
 3bc:	00340700 	eorseq	r0, r4, r0, lsl #14
 3c0:	0b3a0803 	bleq	e823d4 <GUEST_OFFSET-0x7f17dc2c>
 3c4:	13490b3b 	movtne	r0, #39739	; 0x9b3b
 3c8:	00000a02 	andeq	r0, r0, r2, lsl #20
 3cc:	0b000f08 	bleq	3ff4 <GUEST_OFFSET-0x7fffc00c>
 3d0:	0013490b 	andseq	r4, r3, fp, lsl #18
 3d4:	00350900 	eorseq	r0, r5, r0, lsl #18
 3d8:	00001349 	andeq	r1, r0, r9, asr #6
 3dc:	01110100 	tsteq	r1, r0, lsl #2
 3e0:	0b130e25 	bleq	4c3c7c <GUEST_OFFSET-0x7fb3c384>
 3e4:	0e1b0e03 	cdpeq	14, 1, cr0, cr11, cr3, {0}
 3e8:	01120111 	tsteq	r2, r1, lsl r1
 3ec:	00000610 	andeq	r0, r0, r0, lsl r6
 3f0:	0b002402 	bleq	9400 <GUEST_OFFSET-0x7fff6c00>
 3f4:	030b3e0b 	movweq	r3, #48651	; 0xbe0b
 3f8:	03000008 	movweq	r0, #8
 3fc:	0e030016 	mcreq	0, 0, r0, cr3, cr6, {0}
 400:	0b3b0b3a 	bleq	ec30f0 <GUEST_OFFSET-0x7f13cf10>
 404:	00001349 	andeq	r1, r0, r9, asr #6
 408:	0b002404 	bleq	9420 <GUEST_OFFSET-0x7fff6be0>
 40c:	030b3e0b 	movweq	r3, #48651	; 0xbe0b
 410:	0500000e 	streq	r0, [r0, #-14]
 414:	0c3f012e 	ldfeqs	f0, [pc], #-184	; 364 <GUEST_OFFSET-0x7ffffc9c>
 418:	0b3a0e03 	bleq	e83c2c <GUEST_OFFSET-0x7f17c3d4>
 41c:	0c270b3b 	stceq	11, cr0, [r7], #-236	; 0xffffff14
 420:	01120111 	tsteq	r2, r1, lsl r1
 424:	42970640 	addsmi	r0, r7, #64, 12	; 0x4000000
 428:	0013010c 	andseq	r0, r3, ip, lsl #2
 42c:	00050600 	andeq	r0, r5, r0, lsl #12
 430:	0b3a0e03 	bleq	e83c44 <GUEST_OFFSET-0x7f17c3bc>
 434:	13490b3b 	movtne	r0, #39739	; 0x9b3b
 438:	00000a02 	andeq	r0, r0, r2, lsl #20
 43c:	03003407 	movweq	r3, #1031	; 0x407
 440:	3b0b3a0e 	blcc	2cec80 <GUEST_OFFSET-0x7fd31380>
 444:	3f13490b 	svccc	0x0013490b
 448:	000a020c 	andeq	r0, sl, ip, lsl #4
 44c:	000f0800 	andeq	r0, pc, r0, lsl #16
 450:	13490b0b 	movtne	r0, #39691	; 0x9b0b
 454:	35090000 	strcc	r0, [r9, #-0]
 458:	00134900 	andseq	r4, r3, r0, lsl #18
 45c:	11010000 	mrsne	r0, (UNDEF: 1)
 460:	130e2501 	movwne	r2, #58625	; 0xe501
 464:	1b0e030b 	blne	381098 <GUEST_OFFSET-0x7fc7ef68>
 468:	1201110e 	andne	r1, r1, #-2147483645	; 0x80000003
 46c:	00061001 	andeq	r1, r6, r1
 470:	00160200 	andseq	r0, r6, r0, lsl #4
 474:	0b3a0e03 	bleq	e83c88 <GUEST_OFFSET-0x7f17c378>
 478:	13490b3b 	movtne	r0, #39739	; 0x9b3b
 47c:	24030000 	strcs	r0, [r3], #-0
 480:	3e0b0b00 	vmlacc.f64	d0, d11, d0
 484:	000e030b 	andeq	r0, lr, fp, lsl #6
 488:	00240400 	eoreq	r0, r4, r0, lsl #8
 48c:	0b3e0b0b 	bleq	f830c0 <GUEST_OFFSET-0x7f07cf40>
 490:	00000803 	andeq	r0, r0, r3, lsl #16
 494:	0b000f05 	bleq	40b0 <GUEST_OFFSET-0x7fffbf50>
 498:	0013490b 	andseq	r4, r3, fp, lsl #18
 49c:	00260600 	eoreq	r0, r6, r0, lsl #12
 4a0:	00001349 	andeq	r1, r0, r9, asr #6
 4a4:	03012e07 	movweq	r2, #7687	; 0x1e07
 4a8:	3b0b3a0e 	blcc	2cece8 <GUEST_OFFSET-0x7fd31318>
 4ac:	490c270b 	stmdbmi	ip, {r0, r1, r3, r8, r9, sl, sp}
 4b0:	12011113 	andne	r1, r1, #-1073741820	; 0xc0000004
 4b4:	97064001 	strls	r4, [r6, -r1]
 4b8:	13010c42 	movwne	r0, #7234	; 0x1c42
 4bc:	05080000 	streq	r0, [r8, #-0]
 4c0:	3a0e0300 	bcc	3810c8 <GUEST_OFFSET-0x7fc7ef38>
 4c4:	490b3b0b 	stmdbmi	fp, {r0, r1, r3, r8, r9, fp, ip, sp}
 4c8:	000a0213 	andeq	r0, sl, r3, lsl r2
 4cc:	00050900 	andeq	r0, r5, r0, lsl #18
 4d0:	0b3a0803 	bleq	e824e4 <GUEST_OFFSET-0x7f17db1c>
 4d4:	13490b3b 	movtne	r0, #39739	; 0x9b3b
 4d8:	00000a02 	andeq	r0, r0, r2, lsl #20
 4dc:	0300340a 	movweq	r3, #1034	; 0x40a
 4e0:	3b0b3a08 	blcc	2ced08 <GUEST_OFFSET-0x7fd312f8>
 4e4:	0213490b 	andseq	r4, r3, #180224	; 0x2c000
 4e8:	0b00000a 	bleq	518 <GUEST_OFFSET-0x7ffffae8>
 4ec:	0b0b000f 	bleq	2c0530 <GUEST_OFFSET-0x7fd3fad0>
 4f0:	260c0000 	strcs	r0, [ip], -r0
 4f4:	0d000000 	stceq	0, cr0, [r0, #-0]
 4f8:	0c3f012e 	ldfeqs	f0, [pc], #-184	; 448 <GUEST_OFFSET-0x7ffffbb8>
 4fc:	0b3a0e03 	bleq	e83d10 <GUEST_OFFSET-0x7f17c2f0>
 500:	0c270b3b 	stceq	11, cr0, [r7], #-236	; 0xffffff14
 504:	01111349 	tsteq	r1, r9, asr #6
 508:	06400112 			; <UNDEFINED> instruction: 0x06400112
 50c:	010c4296 			; <UNDEFINED> instruction: 0x010c4296
 510:	0e000013 	mcreq	0, 0, r0, cr0, cr3, {0}
 514:	0c3f012e 	ldfeqs	f0, [pc], #-184	; 464 <GUEST_OFFSET-0x7ffffb9c>
 518:	0b3a0e03 	bleq	e83d2c <GUEST_OFFSET-0x7f17c2d4>
 51c:	0c270b3b 	stceq	11, cr0, [r7], #-236	; 0xffffff14
 520:	01111349 	tsteq	r1, r9, asr #6
 524:	06400112 			; <UNDEFINED> instruction: 0x06400112
 528:	010c4297 			; <UNDEFINED> instruction: 0x010c4297
 52c:	0f000013 	svceq	0x00000013
 530:	0c3f012e 	ldfeqs	f0, [pc], #-184	; 480 <GUEST_OFFSET-0x7ffffb80>
 534:	0b3a0e03 	bleq	e83d48 <GUEST_OFFSET-0x7f17c2b8>
 538:	0c27053b 	cfstr32eq	mvfx0, [r7], #-236	; 0xffffff14
 53c:	01111349 	tsteq	r1, r9, asr #6
 540:	06400112 			; <UNDEFINED> instruction: 0x06400112
 544:	010c4297 			; <UNDEFINED> instruction: 0x010c4297
 548:	10000013 	andne	r0, r0, r3, lsl r0
 54c:	0c3f012e 	ldfeqs	f0, [pc], #-184	; 49c <GUEST_OFFSET-0x7ffffb64>
 550:	0b3a0e03 	bleq	e83d64 <GUEST_OFFSET-0x7f17c29c>
 554:	0c270b3b 	stceq	11, cr0, [r7], #-236	; 0xffffff14
 558:	01120111 	tsteq	r2, r1, lsl r1
 55c:	42970640 	addsmi	r0, r7, #64, 12	; 0x4000000
 560:	0013010c 	andseq	r0, r3, ip, lsl #2
 564:	00341100 	eorseq	r1, r4, r0, lsl #2
 568:	0b3a0e03 	bleq	e83d7c <GUEST_OFFSET-0x7f17c284>
 56c:	13490b3b 	movtne	r0, #39739	; 0x9b3b
 570:	00000a02 	andeq	r0, r0, r2, lsl #20
 574:	49010112 	stmdbmi	r1, {r1, r4, r8}
 578:	00130113 	andseq	r0, r3, r3, lsl r1
 57c:	00211300 	eoreq	r1, r1, r0, lsl #6
 580:	0b2f1349 	bleq	bc52ac <GUEST_OFFSET-0x7f43ad54>
 584:	2e140000 	cdpcs	0, 1, cr0, cr4, cr0, {0}
 588:	030c3f01 	movweq	r3, #52993	; 0xcf01
 58c:	3b0b3a0e 	blcc	2cedcc <GUEST_OFFSET-0x7fd31234>
 590:	490c270b 	stmdbmi	ip, {r0, r1, r3, r8, r9, sl, sp}
 594:	12011113 	andne	r1, r1, #-1073741820	; 0xc0000004
 598:	97064001 	strls	r4, [r6, -r1]
 59c:	00000c42 	andeq	r0, r0, r2, asr #24
 5a0:	00110100 	andseq	r0, r1, r0, lsl #2
 5a4:	01110610 	tsteq	r1, r0, lsl r6
 5a8:	08030112 	stmdaeq	r3, {r1, r4, r8}
 5ac:	0825081b 	stmdaeq	r5!, {r0, r1, r3, r4, fp}
 5b0:	00000513 	andeq	r0, r0, r3, lsl r5
 5b4:	01110100 	tsteq	r1, r0, lsl #2
 5b8:	0b130e25 	bleq	4c3e54 <GUEST_OFFSET-0x7fb3c1ac>
 5bc:	0e1b0e03 	cdpeq	14, 1, cr0, cr11, cr3, {0}
 5c0:	01120111 	tsteq	r2, r1, lsl r1
 5c4:	00000610 	andeq	r0, r0, r0, lsl r6
 5c8:	3f002e02 	svccc	0x00002e02
 5cc:	3a0e030c 	bcc	381204 <GUEST_OFFSET-0x7fc7edfc>
 5d0:	270b3b0b 	strcs	r3, [fp, -fp, lsl #22]
 5d4:	1201110c 	andne	r1, r1, #12, 2
 5d8:	97064001 	strls	r4, [r6, -r1]
 5dc:	00000c42 	andeq	r0, r0, r2, asr #24
 5e0:	3f012e03 	svccc	0x00012e03
 5e4:	3a0e030c 	bcc	38121c <GUEST_OFFSET-0x7fc7ede4>
 5e8:	270b3b0b 	strcs	r3, [fp, -fp, lsl #22]
 5ec:	1201110c 	andne	r1, r1, #12, 2
 5f0:	97064001 	strls	r4, [r6, -r1]
 5f4:	13010c42 	movwne	r0, #7234	; 0x1c42
 5f8:	05040000 	streq	r0, [r4, #-0]
 5fc:	3a080300 	bcc	201204 <GUEST_OFFSET-0x7fdfedfc>
 600:	490b3b0b 	stmdbmi	fp, {r0, r1, r3, r8, r9, fp, ip, sp}
 604:	000a0213 	andeq	r0, sl, r3, lsl r2
 608:	00340500 	eorseq	r0, r4, r0, lsl #10
 60c:	0b3a0e03 	bleq	e83e20 <GUEST_OFFSET-0x7f17c1e0>
 610:	13490b3b 	movtne	r0, #39739	; 0x9b3b
 614:	00000a02 	andeq	r0, r0, r2, lsl #20
 618:	0b000f06 	bleq	4238 <GUEST_OFFSET-0x7fffbdc8>
 61c:	0013490b 	andseq	r4, r3, fp, lsl #18
 620:	00240700 	eoreq	r0, r4, r0, lsl #14
 624:	0b3e0b0b 	bleq	f83258 <GUEST_OFFSET-0x7f07cda8>
 628:	00000e03 	andeq	r0, r0, r3, lsl #28
 62c:	49003508 	stmdbmi	r0, {r3, r8, sl, ip, sp}
 630:	09000013 	stmdbeq	r0, {r0, r1, r4}
 634:	0c3f012e 	ldfeqs	f0, [pc], #-184	; 584 <GUEST_OFFSET-0x7ffffa7c>
 638:	0b3a0e03 	bleq	e83e4c <GUEST_OFFSET-0x7f17c1b4>
 63c:	0c270b3b 	stceq	11, cr0, [r7], #-236	; 0xffffff14
 640:	01120111 	tsteq	r2, r1, lsl r1
 644:	42960640 	addsmi	r0, r6, #64, 12	; 0x4000000
 648:	0013010c 	andseq	r0, r3, ip, lsl #2
 64c:	00340a00 	eorseq	r0, r4, r0, lsl #20
 650:	0b3a0803 	bleq	e82664 <GUEST_OFFSET-0x7f17d99c>
 654:	13490b3b 	movtne	r0, #39739	; 0x9b3b
 658:	00000a02 	andeq	r0, r0, r2, lsl #20
 65c:	0b00240b 	bleq	9690 <GUEST_OFFSET-0x7fff6970>
 660:	030b3e0b 	movweq	r3, #48651	; 0xbe0b
 664:	00000008 	andeq	r0, r0, r8
 668:	25011101 	strcs	r1, [r1, #-257]	; 0x101
 66c:	030b130e 	movweq	r1, #45838	; 0xb30e
 670:	110e1b0e 	tstne	lr, lr, lsl #22
 674:	10011201 	andne	r1, r1, r1, lsl #4
 678:	02000006 	andeq	r0, r0, #6
 67c:	0b0b0024 	bleq	2c0714 <GUEST_OFFSET-0x7fd3f8ec>
 680:	08030b3e 	stmdaeq	r3, {r1, r2, r3, r4, r5, r8, r9, fp}
 684:	16030000 	strne	r0, [r3], -r0
 688:	3a0e0300 	bcc	381290 <GUEST_OFFSET-0x7fc7ed70>
 68c:	490b3b0b 	stmdbmi	fp, {r0, r1, r3, r8, r9, fp, ip, sp}
 690:	04000013 	streq	r0, [r0], #-19
 694:	0b0b0024 	bleq	2c072c <GUEST_OFFSET-0x7fd3f8d4>
 698:	0e030b3e 	vmoveq.16	d3[0], r0
 69c:	04050000 	streq	r0, [r5], #-0
 6a0:	0b0e0301 	bleq	3812ac <GUEST_OFFSET-0x7fc7ed54>
 6a4:	3b0b3a0b 	blcc	2ceed8 <GUEST_OFFSET-0x7fd31128>
 6a8:	0013010b 	andseq	r0, r3, fp, lsl #2
 6ac:	00280600 	eoreq	r0, r8, r0, lsl #12
 6b0:	0d1c0e03 	ldceq	14, cr0, [ip, #-12]
 6b4:	0f070000 	svceq	0x00070000
 6b8:	000b0b00 	andeq	r0, fp, r0, lsl #22
 6bc:	012e0800 	teqeq	lr, r0, lsl #16
 6c0:	0e030c3f 	mcreq	12, 0, r0, cr3, cr15, {1}
 6c4:	0b3b0b3a 	bleq	ec33b4 <GUEST_OFFSET-0x7f13cc4c>
 6c8:	01110c27 	tsteq	r1, r7, lsr #24
 6cc:	06400112 			; <UNDEFINED> instruction: 0x06400112
 6d0:	010c4297 			; <UNDEFINED> instruction: 0x010c4297
 6d4:	09000013 	stmdbeq	r0, {r0, r1, r4}
 6d8:	0e030005 	cdpeq	0, 0, cr0, cr3, cr5, {0}
 6dc:	0b3b0b3a 	bleq	ec33cc <GUEST_OFFSET-0x7f13cc34>
 6e0:	0a021349 	beq	8540c <GUEST_OFFSET-0x7ff7abf4>
 6e4:	2e0a0000 	cdpcs	0, 0, cr0, cr10, cr0, {0}
 6e8:	030c3f01 	movweq	r3, #52993	; 0xcf01
 6ec:	3b0b3a0e 	blcc	2cef2c <GUEST_OFFSET-0x7fd310d4>
 6f0:	110c270b 	tstne	ip, fp, lsl #14
 6f4:	40011201 	andmi	r1, r1, r1, lsl #4
 6f8:	0c429606 	mcrreq	6, 0, r9, r2, cr6
 6fc:	00001301 	andeq	r1, r0, r1, lsl #6
 700:	0300340b 	movweq	r3, #1035	; 0x40b
 704:	3b0b3a08 	blcc	2cef2c <GUEST_OFFSET-0x7fd310d4>
 708:	0213490b 	andseq	r4, r3, #180224	; 0x2c000
 70c:	0c00000a 	stceq	0, cr0, [r0], {10}
 710:	13490035 	movtne	r0, #36917	; 0x9035
 714:	2e0d0000 	cdpcs	0, 0, cr0, cr13, cr0, {0}
 718:	030c3f01 	movweq	r3, #52993	; 0xcf01
 71c:	3b0b3a0e 	blcc	2cef5c <GUEST_OFFSET-0x7fd310a4>
 720:	490c270b 	stmdbmi	ip, {r0, r1, r3, r8, r9, sl, sp}
 724:	12011113 	andne	r1, r1, #-1073741820	; 0xc0000004
 728:	97064001 	strls	r4, [r6, -r1]
 72c:	13010c42 	movwne	r0, #7234	; 0x1c42
 730:	050e0000 	streq	r0, [lr, #-0]
 734:	3a080300 	bcc	20133c <GUEST_OFFSET-0x7fdfecc4>
 738:	490b3b0b 	stmdbmi	fp, {r0, r1, r3, r8, r9, fp, ip, sp}
 73c:	000a0213 	andeq	r0, sl, r3, lsl r2
 740:	00340f00 	eorseq	r0, r4, r0, lsl #30
 744:	0b3a0803 	bleq	e82758 <GUEST_OFFSET-0x7f17d8a8>
 748:	13490b3b 	movtne	r0, #39739	; 0x9b3b
 74c:	34100000 	ldrcc	r0, [r0], #-0
 750:	3a0e0300 	bcc	381358 <GUEST_OFFSET-0x7fc7eca8>
 754:	490b3b0b 	stmdbmi	fp, {r0, r1, r3, r8, r9, fp, ip, sp}
 758:	11000013 	tstne	r0, r3, lsl r0
 75c:	0c3f002e 	ldceq	0, cr0, [pc], #-184	; 6ac <GUEST_OFFSET-0x7ffff954>
 760:	0b3a0e03 	bleq	e83f74 <GUEST_OFFSET-0x7f17c08c>
 764:	0c270b3b 	stceq	11, cr0, [r7], #-236	; 0xffffff14
 768:	01111349 	tsteq	r1, r9, asr #6
 76c:	06400112 			; <UNDEFINED> instruction: 0x06400112
 770:	000c4296 	muleq	ip, r6, r2
	...

Disassembly of section .debug_aranges:

00000000 <.debug_aranges>:
   0:	0000001c 	andeq	r0, r0, ip, lsl r0
   4:	00000002 	andeq	r0, r0, r2
   8:	00040000 	andeq	r0, r4, r0
   c:	00000000 	andeq	r0, r0, r0
  10:	80000000 	andhi	r0, r0, r0
  14:	00000004 	andeq	r0, r0, r4
	...
  20:	0000001c 	andeq	r0, r0, ip, lsl r0
  24:	007b0002 	rsbseq	r0, fp, r2
  28:	00040000 	andeq	r0, r4, r0
  2c:	00000000 	andeq	r0, r0, r0
  30:	80000004 	andhi	r0, r0, r4
  34:	00000024 	andeq	r0, r0, r4, lsr #32
	...
  40:	0000001c 	andeq	r0, r0, ip, lsl r0
  44:	00e90002 	rsceq	r0, r9, r2
  48:	00040000 	andeq	r0, r4, r0
  4c:	00000000 	andeq	r0, r0, r0
  50:	80000028 	andhi	r0, r0, r8, lsr #32
  54:	00000194 	muleq	r0, r4, r1
	...
  60:	0000001c 	andeq	r0, r0, ip, lsl r0
  64:	01900002 	orrseq	r0, r0, r2
  68:	00040000 	andeq	r0, r4, r0
  6c:	00000000 	andeq	r0, r0, r0
  70:	800001bc 			; <UNDEFINED> instruction: 0x800001bc
  74:	0000005c 	andeq	r0, r0, ip, asr r0
	...
  80:	0000001c 	andeq	r0, r0, ip, lsl r0
  84:	02a10002 	adceq	r0, r1, #2
  88:	00040000 	andeq	r0, r4, r0
  8c:	00000000 	andeq	r0, r0, r0
  90:	80000218 	andhi	r0, r0, r8, lsl r2
  94:	00000888 	andeq	r0, r0, r8, lsl #17
	...
  a0:	0000001c 	andeq	r0, r0, ip, lsl r0
  a4:	069c0002 	ldreq	r0, [ip], r2
  a8:	00040000 	andeq	r0, r4, r0
  ac:	00000000 	andeq	r0, r0, r0
  b0:	80000aa0 	andhi	r0, r0, r0, lsr #21
  b4:	00000174 	andeq	r0, r0, r4, ror r1
	...
  c0:	0000001c 	andeq	r0, r0, ip, lsl r0
  c4:	077f0002 	ldrbeq	r0, [pc, -r2]!
  c8:	00040000 	andeq	r0, r4, r0
  cc:	00000000 	andeq	r0, r0, r0
  d0:	80000c14 	andhi	r0, r0, r4, lsl ip
  d4:	00000030 	andeq	r0, r0, r0, lsr r0
	...
  e0:	0000001c 	andeq	r0, r0, ip, lsl r0
  e4:	08190002 	ldmdaeq	r9, {r1}
  e8:	00040000 	andeq	r0, r4, r0
  ec:	00000000 	andeq	r0, r0, r0
  f0:	80000c44 	andhi	r0, r0, r4, asr #24
  f4:	00000afc 	strdeq	r0, [r0], -ip
	...
 100:	0000001c 	andeq	r0, r0, ip, lsl r0
 104:	0d860002 	stceq	0, cr0, [r6, #8]
 108:	00040000 	andeq	r0, r4, r0
 10c:	00000000 	andeq	r0, r0, r0
 110:	80001740 	andhi	r1, r0, r0, asr #14
 114:	000000e0 	andeq	r0, r0, r0, ror #1
	...
 120:	0000001c 	andeq	r0, r0, ip, lsl r0
 124:	0e200002 	cdpeq	0, 2, cr0, cr0, cr2, {0}
 128:	00040000 	andeq	r0, r4, r0
 12c:	00000000 	andeq	r0, r0, r0
 130:	80001820 	andhi	r1, r0, r0, lsr #16
 134:	00000148 	andeq	r0, r0, r8, asr #2
	...
 140:	0000001c 	andeq	r0, r0, ip, lsl r0
 144:	0f4c0002 	svceq	0x004c0002
 148:	00040000 	andeq	r0, r4, r0
 14c:	00000000 	andeq	r0, r0, r0
 150:	80001968 	andhi	r1, r0, r8, ror #18
 154:	00000284 	andeq	r0, r0, r4, lsl #5
	...

Disassembly of section .debug_loc:

00000000 <.debug_loc>:
   0:	00000000 	andeq	r0, r0, r0
   4:	00000004 	andeq	r0, r0, r4
   8:	007d0002 	rsbseq	r0, sp, r2
   c:	00000004 	andeq	r0, r0, r4
  10:	00000008 	andeq	r0, r0, r8
  14:	087d0002 	ldmdaeq	sp!, {r1}^
  18:	00000008 	andeq	r0, r0, r8
  1c:	00000024 	andeq	r0, r0, r4, lsr #32
  20:	047b0002 	ldrbteq	r0, [fp], #-2
	...
  30:	00000004 	andeq	r0, r0, r4
  34:	007d0002 	rsbseq	r0, sp, r2
  38:	00000004 	andeq	r0, r0, r4
  3c:	00000008 	andeq	r0, r0, r8
  40:	047d0002 	ldrbteq	r0, [sp], #-2
  44:	00000008 	andeq	r0, r0, r8
  48:	00000048 	andeq	r0, r0, r8, asr #32
  4c:	047b0002 	ldrbteq	r0, [fp], #-2
	...
  58:	00000048 	andeq	r0, r0, r8, asr #32
  5c:	0000004c 	andeq	r0, r0, ip, asr #32
  60:	007d0002 	rsbseq	r0, sp, r2
  64:	0000004c 	andeq	r0, r0, ip, asr #32
  68:	00000050 	andeq	r0, r0, r0, asr r0
  6c:	087d0002 	ldmdaeq	sp!, {r1}^
  70:	00000050 	andeq	r0, r0, r0, asr r0
  74:	00000194 	muleq	r0, r4, r1
  78:	047b0002 	ldrbteq	r0, [fp], #-2
	...
  88:	00000004 	andeq	r0, r0, r4
  8c:	007d0002 	rsbseq	r0, sp, r2
  90:	00000004 	andeq	r0, r0, r4
  94:	00000008 	andeq	r0, r0, r8
  98:	047d0002 	ldrbteq	r0, [sp], #-2
  9c:	00000008 	andeq	r0, r0, r8
  a0:	0000001c 	andeq	r0, r0, ip, lsl r0
  a4:	047b0002 	ldrbteq	r0, [fp], #-2
	...
  b0:	0000001c 	andeq	r0, r0, ip, lsl r0
  b4:	00000020 	andeq	r0, r0, r0, lsr #32
  b8:	007d0002 	rsbseq	r0, sp, r2
  bc:	00000020 	andeq	r0, r0, r0, lsr #32
  c0:	00000024 	andeq	r0, r0, r4, lsr #32
  c4:	047d0002 	ldrbteq	r0, [sp], #-2
  c8:	00000024 	andeq	r0, r0, r4, lsr #32
  cc:	00000038 	andeq	r0, r0, r8, lsr r0
  d0:	047b0002 	ldrbteq	r0, [fp], #-2
	...
  dc:	00000038 	andeq	r0, r0, r8, lsr r0
  e0:	0000003c 	andeq	r0, r0, ip, lsr r0
  e4:	007d0002 	rsbseq	r0, sp, r2
  e8:	0000003c 	andeq	r0, r0, ip, lsr r0
  ec:	00000040 	andeq	r0, r0, r0, asr #32
  f0:	087d0002 	ldmdaeq	sp!, {r1}^
  f4:	00000040 	andeq	r0, r0, r0, asr #32
  f8:	0000005c 	andeq	r0, r0, ip, asr r0
  fc:	047b0002 	ldrbteq	r0, [fp], #-2
	...
 10c:	00000004 	andeq	r0, r0, r4
 110:	007d0002 	rsbseq	r0, sp, r2
 114:	00000004 	andeq	r0, r0, r4
 118:	00000008 	andeq	r0, r0, r8
 11c:	087d0002 	ldmdaeq	sp!, {r1}^
 120:	00000008 	andeq	r0, r0, r8
 124:	0000002c 	andeq	r0, r0, ip, lsr #32
 128:	047b0002 	ldrbteq	r0, [fp], #-2
	...
 134:	0000002c 	andeq	r0, r0, ip, lsr #32
 138:	00000030 	andeq	r0, r0, r0, lsr r0
 13c:	007d0002 	rsbseq	r0, sp, r2
 140:	00000030 	andeq	r0, r0, r0, lsr r0
 144:	00000034 	andeq	r0, r0, r4, lsr r0
 148:	087d0002 	ldmdaeq	sp!, {r1}^
 14c:	00000034 	andeq	r0, r0, r4, lsr r0
 150:	00000168 	andeq	r0, r0, r8, ror #2
 154:	047b0002 	ldrbteq	r0, [fp], #-2
	...
 160:	00000168 	andeq	r0, r0, r8, ror #2
 164:	0000016c 	andeq	r0, r0, ip, ror #2
 168:	007d0002 	rsbseq	r0, sp, r2
 16c:	0000016c 	andeq	r0, r0, ip, ror #2
 170:	00000170 	andeq	r0, r0, r0, ror r1
 174:	0c7d0002 	ldcleq	0, cr0, [sp], #-8
 178:	00000170 	andeq	r0, r0, r0, ror r1
 17c:	000003b4 			; <UNDEFINED> instruction: 0x000003b4
 180:	047b0002 	ldrbteq	r0, [fp], #-2
	...
 18c:	000003b4 			; <UNDEFINED> instruction: 0x000003b4
 190:	000003b8 			; <UNDEFINED> instruction: 0x000003b8
 194:	007d0002 	rsbseq	r0, sp, r2
 198:	000003b8 			; <UNDEFINED> instruction: 0x000003b8
 19c:	000003bc 			; <UNDEFINED> instruction: 0x000003bc
 1a0:	0c7d0002 	ldcleq	0, cr0, [sp], #-8
 1a4:	000003bc 			; <UNDEFINED> instruction: 0x000003bc
 1a8:	000004c0 	andeq	r0, r0, r0, asr #9
 1ac:	047b0002 	ldrbteq	r0, [fp], #-2
	...
 1b8:	000004c0 	andeq	r0, r0, r0, asr #9
 1bc:	000004c4 	andeq	r0, r0, r4, asr #9
 1c0:	007d0002 	rsbseq	r0, sp, r2
 1c4:	000004c4 	andeq	r0, r0, r4, asr #9
 1c8:	000004c8 	andeq	r0, r0, r8, asr #9
 1cc:	047d0002 	ldrbteq	r0, [sp], #-2
 1d0:	000004c8 	andeq	r0, r0, r8, asr #9
 1d4:	00000518 	andeq	r0, r0, r8, lsl r5
 1d8:	047b0002 	ldrbteq	r0, [fp], #-2
	...
 1e4:	00000518 	andeq	r0, r0, r8, lsl r5
 1e8:	0000051c 	andeq	r0, r0, ip, lsl r5
 1ec:	007d0002 	rsbseq	r0, sp, r2
 1f0:	0000051c 	andeq	r0, r0, ip, lsl r5
 1f4:	00000520 	andeq	r0, r0, r0, lsr #10
 1f8:	047d0002 	ldrbteq	r0, [sp], #-2
 1fc:	00000520 	andeq	r0, r0, r0, lsr #10
 200:	00000570 	andeq	r0, r0, r0, ror r5
 204:	047b0002 	ldrbteq	r0, [fp], #-2
	...
 210:	00000570 	andeq	r0, r0, r0, ror r5
 214:	00000574 	andeq	r0, r0, r4, ror r5
 218:	007d0002 	rsbseq	r0, sp, r2
 21c:	00000574 	andeq	r0, r0, r4, ror r5
 220:	00000578 	andeq	r0, r0, r8, ror r5
 224:	047d0002 	ldrbteq	r0, [sp], #-2
 228:	00000578 	andeq	r0, r0, r8, ror r5
 22c:	000005e0 	andeq	r0, r0, r0, ror #11
 230:	047b0002 	ldrbteq	r0, [fp], #-2
	...
 23c:	000005e0 	andeq	r0, r0, r0, ror #11
 240:	000005e4 	andeq	r0, r0, r4, ror #11
 244:	007d0002 	rsbseq	r0, sp, r2
 248:	000005e4 	andeq	r0, r0, r4, ror #11
 24c:	000005e8 	andeq	r0, r0, r8, ror #11
 250:	087d0002 	ldmdaeq	sp!, {r1}^
 254:	000005e8 	andeq	r0, r0, r8, ror #11
 258:	0000072c 	andeq	r0, r0, ip, lsr #14
 25c:	047b0002 	ldrbteq	r0, [fp], #-2
	...
 268:	0000072c 	andeq	r0, r0, ip, lsr #14
 26c:	00000730 	andeq	r0, r0, r0, lsr r7
 270:	007d0002 	rsbseq	r0, sp, r2
 274:	00000730 	andeq	r0, r0, r0, lsr r7
 278:	00000734 	andeq	r0, r0, r4, lsr r7
 27c:	087d0002 	ldmdaeq	sp!, {r1}^
 280:	00000734 	andeq	r0, r0, r4, lsr r7
 284:	00000888 	andeq	r0, r0, r8, lsl #17
 288:	047b0002 	ldrbteq	r0, [fp], #-2
	...
 298:	00000004 	andeq	r0, r0, r4
 29c:	007d0002 	rsbseq	r0, sp, r2
 2a0:	00000004 	andeq	r0, r0, r4
 2a4:	00000008 	andeq	r0, r0, r8
 2a8:	087d0002 	ldmdaeq	sp!, {r1}^
 2ac:	00000008 	andeq	r0, r0, r8
 2b0:	00000174 	andeq	r0, r0, r4, ror r1
 2b4:	047b0002 	ldrbteq	r0, [fp], #-2
	...
 2c4:	00000004 	andeq	r0, r0, r4
 2c8:	007d0002 	rsbseq	r0, sp, r2
 2cc:	00000004 	andeq	r0, r0, r4
 2d0:	00000008 	andeq	r0, r0, r8
 2d4:	047d0002 	ldrbteq	r0, [sp], #-2
 2d8:	00000008 	andeq	r0, r0, r8
 2dc:	00000030 	andeq	r0, r0, r0, lsr r0
 2e0:	047b0002 	ldrbteq	r0, [fp], #-2
	...
 2f0:	00000004 	andeq	r0, r0, r4
 2f4:	007d0002 	rsbseq	r0, sp, r2
 2f8:	00000004 	andeq	r0, r0, r4
 2fc:	00000008 	andeq	r0, r0, r8
 300:	047d0002 	ldrbteq	r0, [sp], #-2
 304:	00000008 	andeq	r0, r0, r8
 308:	00000090 	muleq	r0, r0, r0
 30c:	047b0002 	ldrbteq	r0, [fp], #-2
	...
 318:	00000090 	muleq	r0, r0, r0
 31c:	00000094 	muleq	r0, r4, r0
 320:	007d0002 	rsbseq	r0, sp, r2
 324:	00000094 	muleq	r0, r4, r0
 328:	00000098 	muleq	r0, r8, r0
 32c:	047d0002 	ldrbteq	r0, [sp], #-2
 330:	00000098 	muleq	r0, r8, r0
 334:	00000138 	andeq	r0, r0, r8, lsr r1
 338:	047b0002 	ldrbteq	r0, [fp], #-2
	...
 344:	00000138 	andeq	r0, r0, r8, lsr r1
 348:	0000013c 	andeq	r0, r0, ip, lsr r1
 34c:	007d0002 	rsbseq	r0, sp, r2
 350:	0000013c 	andeq	r0, r0, ip, lsr r1
 354:	00000140 	andeq	r0, r0, r0, asr #2
 358:	087d0002 	ldmdaeq	sp!, {r1}^
 35c:	00000140 	andeq	r0, r0, r0, asr #2
 360:	00000170 	andeq	r0, r0, r0, ror r1
 364:	047b0002 	ldrbteq	r0, [fp], #-2
	...
 370:	00000170 	andeq	r0, r0, r0, ror r1
 374:	00000174 	andeq	r0, r0, r4, ror r1
 378:	007d0002 	rsbseq	r0, sp, r2
 37c:	00000174 	andeq	r0, r0, r4, ror r1
 380:	00000178 	andeq	r0, r0, r8, ror r1
 384:	087d0002 	ldmdaeq	sp!, {r1}^
 388:	00000178 	andeq	r0, r0, r8, ror r1
 38c:	000001d0 	ldrdeq	r0, [r0], -r0	; <UNPREDICTABLE>
 390:	047b0002 	ldrbteq	r0, [fp], #-2
	...
 39c:	000001d0 	ldrdeq	r0, [r0], -r0	; <UNPREDICTABLE>
 3a0:	000001d4 	ldrdeq	r0, [r0], -r4
 3a4:	007d0002 	rsbseq	r0, sp, r2
 3a8:	000001d4 	ldrdeq	r0, [r0], -r4
 3ac:	000001d8 	ldrdeq	r0, [r0], -r8
 3b0:	047d0002 	ldrbteq	r0, [sp], #-2
 3b4:	000001d8 	ldrdeq	r0, [r0], -r8
 3b8:	00000258 	andeq	r0, r0, r8, asr r2
 3bc:	047b0002 	ldrbteq	r0, [fp], #-2
	...
 3c8:	00000258 	andeq	r0, r0, r8, asr r2
 3cc:	0000025c 	andeq	r0, r0, ip, asr r2
 3d0:	007d0002 	rsbseq	r0, sp, r2
 3d4:	0000025c 	andeq	r0, r0, ip, asr r2
 3d8:	00000260 	andeq	r0, r0, r0, ror #4
 3dc:	047d0002 	ldrbteq	r0, [sp], #-2
 3e0:	00000260 	andeq	r0, r0, r0, ror #4
 3e4:	000002ac 	andeq	r0, r0, ip, lsr #5
 3e8:	047b0002 	ldrbteq	r0, [fp], #-2
	...
 3f4:	000002ac 	andeq	r0, r0, ip, lsr #5
 3f8:	000002b0 			; <UNDEFINED> instruction: 0x000002b0
 3fc:	007d0002 	rsbseq	r0, sp, r2
 400:	000002b0 			; <UNDEFINED> instruction: 0x000002b0
 404:	000002b4 			; <UNDEFINED> instruction: 0x000002b4
 408:	047d0002 	ldrbteq	r0, [sp], #-2
 40c:	000002b4 			; <UNDEFINED> instruction: 0x000002b4
 410:	00000328 	andeq	r0, r0, r8, lsr #6
 414:	047b0002 	ldrbteq	r0, [fp], #-2
	...
 420:	00000328 	andeq	r0, r0, r8, lsr #6
 424:	0000032c 	andeq	r0, r0, ip, lsr #6
 428:	007d0002 	rsbseq	r0, sp, r2
 42c:	0000032c 	andeq	r0, r0, ip, lsr #6
 430:	00000330 	andeq	r0, r0, r0, lsr r3
 434:	047d0002 	ldrbteq	r0, [sp], #-2
 438:	00000330 	andeq	r0, r0, r0, lsr r3
 43c:	000003e8 	andeq	r0, r0, r8, ror #7
 440:	047b0002 	ldrbteq	r0, [fp], #-2
	...
 44c:	000003e8 	andeq	r0, r0, r8, ror #7
 450:	000003ec 	andeq	r0, r0, ip, ror #7
 454:	007d0002 	rsbseq	r0, sp, r2
 458:	000003ec 	andeq	r0, r0, ip, ror #7
 45c:	000003f0 	strdeq	r0, [r0], -r0	; <UNPREDICTABLE>
 460:	047d0002 	ldrbteq	r0, [sp], #-2
 464:	000003f0 	strdeq	r0, [r0], -r0	; <UNPREDICTABLE>
 468:	000004cc 	andeq	r0, r0, ip, asr #9
 46c:	047b0002 	ldrbteq	r0, [fp], #-2
	...
 478:	000004cc 	andeq	r0, r0, ip, asr #9
 47c:	000004d0 	ldrdeq	r0, [r0], -r0	; <UNPREDICTABLE>
 480:	007d0002 	rsbseq	r0, sp, r2
 484:	000004d0 	ldrdeq	r0, [r0], -r0	; <UNPREDICTABLE>
 488:	000004d4 	ldrdeq	r0, [r0], -r4
 48c:	047d0002 	ldrbteq	r0, [sp], #-2
 490:	000004d4 	ldrdeq	r0, [r0], -r4
 494:	000005e8 	andeq	r0, r0, r8, ror #11
 498:	047b0002 	ldrbteq	r0, [fp], #-2
	...
 4a4:	000005e8 	andeq	r0, r0, r8, ror #11
 4a8:	000005ec 	andeq	r0, r0, ip, ror #11
 4ac:	007d0002 	rsbseq	r0, sp, r2
 4b0:	000005ec 	andeq	r0, r0, ip, ror #11
 4b4:	000005f0 	strdeq	r0, [r0], -r0	; <UNPREDICTABLE>
 4b8:	047d0002 	ldrbteq	r0, [sp], #-2
 4bc:	000005f0 	strdeq	r0, [r0], -r0	; <UNPREDICTABLE>
 4c0:	00000668 	andeq	r0, r0, r8, ror #12
 4c4:	047b0002 	ldrbteq	r0, [fp], #-2
	...
 4d0:	00000668 	andeq	r0, r0, r8, ror #12
 4d4:	0000066c 	andeq	r0, r0, ip, ror #12
 4d8:	007d0002 	rsbseq	r0, sp, r2
 4dc:	0000066c 	andeq	r0, r0, ip, ror #12
 4e0:	00000670 	andeq	r0, r0, r0, ror r6
 4e4:	047d0002 	ldrbteq	r0, [sp], #-2
 4e8:	00000670 	andeq	r0, r0, r0, ror r6
 4ec:	000006f4 	strdeq	r0, [r0], -r4
 4f0:	047b0002 	ldrbteq	r0, [fp], #-2
	...
 4fc:	000006f4 	strdeq	r0, [r0], -r4
 500:	000006f8 	strdeq	r0, [r0], -r8
 504:	007d0002 	rsbseq	r0, sp, r2
 508:	000006f8 	strdeq	r0, [r0], -r8
 50c:	000006fc 	strdeq	r0, [r0], -ip
 510:	047d0002 	ldrbteq	r0, [sp], #-2
 514:	000006fc 	strdeq	r0, [r0], -ip
 518:	00000888 	andeq	r0, r0, r8, lsl #17
 51c:	047b0002 	ldrbteq	r0, [fp], #-2
	...
 528:	00000888 	andeq	r0, r0, r8, lsl #17
 52c:	0000088c 	andeq	r0, r0, ip, lsl #17
 530:	007d0002 	rsbseq	r0, sp, r2
 534:	0000088c 	andeq	r0, r0, ip, lsl #17
 538:	00000890 	muleq	r0, r0, r8
 53c:	047d0002 	ldrbteq	r0, [sp], #-2
 540:	00000890 	muleq	r0, r0, r8
 544:	00000988 	andeq	r0, r0, r8, lsl #19
 548:	047b0002 	ldrbteq	r0, [fp], #-2
	...
 554:	00000988 	andeq	r0, r0, r8, lsl #19
 558:	0000098c 	andeq	r0, r0, ip, lsl #19
 55c:	007d0002 	rsbseq	r0, sp, r2
 560:	0000098c 	andeq	r0, r0, ip, lsl #19
 564:	00000990 	muleq	r0, r0, r9
 568:	047d0002 	ldrbteq	r0, [sp], #-2
 56c:	00000990 	muleq	r0, r0, r9
 570:	00000a18 	andeq	r0, r0, r8, lsl sl
 574:	047b0002 	ldrbteq	r0, [fp], #-2
	...
 580:	00000a18 	andeq	r0, r0, r8, lsl sl
 584:	00000a1c 	andeq	r0, r0, ip, lsl sl
 588:	007d0002 	rsbseq	r0, sp, r2
 58c:	00000a1c 	andeq	r0, r0, ip, lsl sl
 590:	00000a20 	andeq	r0, r0, r0, lsr #20
 594:	047d0002 	ldrbteq	r0, [sp], #-2
 598:	00000a20 	andeq	r0, r0, r0, lsr #20
 59c:	00000afc 	strdeq	r0, [r0], -ip
 5a0:	047b0002 	ldrbteq	r0, [fp], #-2
	...
 5b0:	00000004 	andeq	r0, r0, r4
 5b4:	007d0002 	rsbseq	r0, sp, r2
 5b8:	00000004 	andeq	r0, r0, r4
 5bc:	00000008 	andeq	r0, r0, r8
 5c0:	047d0002 	ldrbteq	r0, [sp], #-2
 5c4:	00000008 	andeq	r0, r0, r8
 5c8:	00000014 	andeq	r0, r0, r4, lsl r0
 5cc:	047b0002 	ldrbteq	r0, [fp], #-2
	...
 5d8:	00000014 	andeq	r0, r0, r4, lsl r0
 5dc:	00000018 	andeq	r0, r0, r8, lsl r0
 5e0:	007d0002 	rsbseq	r0, sp, r2
 5e4:	00000018 	andeq	r0, r0, r8, lsl r0
 5e8:	0000001c 	andeq	r0, r0, ip, lsl r0
 5ec:	047d0002 	ldrbteq	r0, [sp], #-2
 5f0:	0000001c 	andeq	r0, r0, ip, lsl r0
 5f4:	0000006c 	andeq	r0, r0, ip, rrx
 5f8:	047b0002 	ldrbteq	r0, [fp], #-2
	...
 604:	0000006c 	andeq	r0, r0, ip, rrx
 608:	00000070 	andeq	r0, r0, r0, ror r0
 60c:	007d0002 	rsbseq	r0, sp, r2
 610:	00000070 	andeq	r0, r0, r0, ror r0
 614:	00000074 	andeq	r0, r0, r4, ror r0
 618:	047d0002 	ldrbteq	r0, [sp], #-2
 61c:	00000074 	andeq	r0, r0, r4, ror r0
 620:	000000a4 	andeq	r0, r0, r4, lsr #1
 624:	047b0002 	ldrbteq	r0, [fp], #-2
	...
 630:	000000a4 	andeq	r0, r0, r4, lsr #1
 634:	000000a8 	andeq	r0, r0, r8, lsr #1
 638:	007d0002 	rsbseq	r0, sp, r2
 63c:	000000a8 	andeq	r0, r0, r8, lsr #1
 640:	000000ac 	andeq	r0, r0, ip, lsr #1
 644:	087d0002 	ldmdaeq	sp!, {r1}^
 648:	000000ac 	andeq	r0, r0, ip, lsr #1
 64c:	00000148 	andeq	r0, r0, r8, asr #2
 650:	047b0002 	ldrbteq	r0, [fp], #-2
	...
 660:	00000004 	andeq	r0, r0, r4
 664:	007d0002 	rsbseq	r0, sp, r2
 668:	00000004 	andeq	r0, r0, r4
 66c:	00000008 	andeq	r0, r0, r8
 670:	047d0002 	ldrbteq	r0, [sp], #-2
 674:	00000008 	andeq	r0, r0, r8
 678:	0000002c 	andeq	r0, r0, ip, lsr #32
 67c:	047b0002 	ldrbteq	r0, [fp], #-2
	...
 688:	0000002c 	andeq	r0, r0, ip, lsr #32
 68c:	00000030 	andeq	r0, r0, r0, lsr r0
 690:	007d0002 	rsbseq	r0, sp, r2
 694:	00000030 	andeq	r0, r0, r0, lsr r0
 698:	00000034 	andeq	r0, r0, r4, lsr r0
 69c:	087d0002 	ldmdaeq	sp!, {r1}^
 6a0:	00000034 	andeq	r0, r0, r4, lsr r0
 6a4:	00000088 	andeq	r0, r0, r8, lsl #1
 6a8:	047b0002 	ldrbteq	r0, [fp], #-2
	...
 6b4:	00000088 	andeq	r0, r0, r8, lsl #1
 6b8:	0000008c 	andeq	r0, r0, ip, lsl #1
 6bc:	007d0002 	rsbseq	r0, sp, r2
 6c0:	0000008c 	andeq	r0, r0, ip, lsl #1
 6c4:	00000090 	muleq	r0, r0, r0
 6c8:	047d0002 	ldrbteq	r0, [sp], #-2
 6cc:	00000090 	muleq	r0, r0, r0
 6d0:	000000d0 	ldrdeq	r0, [r0], -r0	; <UNPREDICTABLE>
 6d4:	047b0002 	ldrbteq	r0, [fp], #-2
	...
 6e0:	000000d0 	ldrdeq	r0, [r0], -r0	; <UNPREDICTABLE>
 6e4:	000000d4 	ldrdeq	r0, [r0], -r4
 6e8:	007d0002 	rsbseq	r0, sp, r2
 6ec:	000000d4 	ldrdeq	r0, [r0], -r4
 6f0:	000000d8 	ldrdeq	r0, [r0], -r8
 6f4:	087d0002 	ldmdaeq	sp!, {r1}^
 6f8:	000000d8 	ldrdeq	r0, [r0], -r8
 6fc:	00000100 	andeq	r0, r0, r0, lsl #2
 700:	047b0002 	ldrbteq	r0, [fp], #-2
	...
 70c:	00000100 	andeq	r0, r0, r0, lsl #2
 710:	00000104 	andeq	r0, r0, r4, lsl #2
 714:	007d0002 	rsbseq	r0, sp, r2
 718:	00000104 	andeq	r0, r0, r4, lsl #2
 71c:	00000108 	andeq	r0, r0, r8, lsl #2
 720:	047d0002 	ldrbteq	r0, [sp], #-2
 724:	00000108 	andeq	r0, r0, r8, lsl #2
 728:	0000012c 	andeq	r0, r0, ip, lsr #2
 72c:	047b0002 	ldrbteq	r0, [fp], #-2
	...
 738:	0000012c 	andeq	r0, r0, ip, lsr #2
 73c:	00000130 	andeq	r0, r0, r0, lsr r1
 740:	007d0002 	rsbseq	r0, sp, r2
 744:	00000130 	andeq	r0, r0, r0, lsr r1
 748:	00000134 	andeq	r0, r0, r4, lsr r1
 74c:	047d0002 	ldrbteq	r0, [sp], #-2
 750:	00000134 	andeq	r0, r0, r4, lsr r1
 754:	00000174 	andeq	r0, r0, r4, ror r1
 758:	047b0002 	ldrbteq	r0, [fp], #-2
	...
 764:	00000174 	andeq	r0, r0, r4, ror r1
 768:	00000178 	andeq	r0, r0, r8, ror r1
 76c:	007d0002 	rsbseq	r0, sp, r2
 770:	00000178 	andeq	r0, r0, r8, ror r1
 774:	0000017c 	andeq	r0, r0, ip, ror r1
 778:	047d0002 	ldrbteq	r0, [sp], #-2
 77c:	0000017c 	andeq	r0, r0, ip, ror r1
 780:	000001a0 	andeq	r0, r0, r0, lsr #3
 784:	047b0002 	ldrbteq	r0, [fp], #-2
	...
 790:	000001a0 	andeq	r0, r0, r0, lsr #3
 794:	000001a4 	andeq	r0, r0, r4, lsr #3
 798:	007d0002 	rsbseq	r0, sp, r2
 79c:	000001a4 	andeq	r0, r0, r4, lsr #3
 7a0:	000001a8 	andeq	r0, r0, r8, lsr #3
 7a4:	047d0002 	ldrbteq	r0, [sp], #-2
 7a8:	000001a8 	andeq	r0, r0, r8, lsr #3
 7ac:	000001cc 	andeq	r0, r0, ip, asr #3
 7b0:	047b0002 	ldrbteq	r0, [fp], #-2
	...
 7bc:	000001cc 	andeq	r0, r0, ip, asr #3
 7c0:	000001d0 	ldrdeq	r0, [r0], -r0	; <UNPREDICTABLE>
 7c4:	007d0002 	rsbseq	r0, sp, r2
 7c8:	000001d0 	ldrdeq	r0, [r0], -r0	; <UNPREDICTABLE>
 7cc:	000001d4 	ldrdeq	r0, [r0], -r4
 7d0:	087d0002 	ldmdaeq	sp!, {r1}^
 7d4:	000001d4 	ldrdeq	r0, [r0], -r4
 7d8:	00000240 	andeq	r0, r0, r0, asr #4
 7dc:	047b0002 	ldrbteq	r0, [fp], #-2
	...
 7e8:	00000240 	andeq	r0, r0, r0, asr #4
 7ec:	00000244 	andeq	r0, r0, r4, asr #4
 7f0:	007d0002 	rsbseq	r0, sp, r2
 7f4:	00000244 	andeq	r0, r0, r4, asr #4
 7f8:	00000248 	andeq	r0, r0, r8, asr #4
 7fc:	087d0002 	ldmdaeq	sp!, {r1}^
 800:	00000248 	andeq	r0, r0, r8, asr #4
 804:	00000284 	andeq	r0, r0, r4, lsl #5
 808:	047b0002 	ldrbteq	r0, [fp], #-2
	...

Disassembly of section .debug_str:

00000000 <.debug_str>:
   0:	6e69616d 	powvsez	f6, f1, #5.0
   4:	4700632e 	strmi	r6, [r0, -lr, lsr #6]
   8:	4320554e 	teqmi	r0, #327155712	; 0x13800000
   c:	372e3420 	strcc	r3, [lr, -r0, lsr #8]!
  10:	6c00332e 	stcvs	3, cr3, [r0], {46}	; 0x2e
  14:	20676e6f 	rsbcs	r6, r7, pc, ror #28
  18:	676e6f6c 	strbvs	r6, [lr, -ip, ror #30]!
  1c:	736e7520 	cmnvc	lr, #32, 10	; 0x8000000
  20:	656e6769 	strbvs	r6, [lr, #-1897]!	; 0x769
  24:	6e692064 	cdpvs	0, 6, cr2, cr9, cr4, {3}
  28:	6e750074 	mrcvs	0, 3, r0, cr5, cr4, {3}
  2c:	6e676973 	mcrvs	9, 3, r6, cr7, cr3, {3}
  30:	63206465 	teqvs	r0, #1694498816	; 0x65000000
  34:	00726168 	rsbseq	r6, r2, r8, ror #2
  38:	6e69616d 	powvsez	f6, f1, #5.0
  3c:	6f682f00 	svcvs	0x00682f00
  40:	632f656d 	teqvs	pc, #457179136	; 0x1b400000
  44:	6f697361 	svcvs	0x00697361
  48:	6f6f776e 	svcvs	0x006f776e
  4c:	79686b2f 	stmdbvc	r8!, {r0, r1, r2, r3, r5, r8, r9, fp, sp, lr}^
  50:	76726570 			; <UNDEFINED> instruction: 0x76726570
  54:	726f7369 	rsbvc	r7, pc, #-1543503871	; 0xa4000001
  58:	616c702f 	cmnvs	ip, pc, lsr #32
  5c:	726f6674 	rsbvc	r6, pc, #116, 12	; 0x7400000
  60:	65642d6d 	strbvs	r2, [r4, #-3437]!	; 0xd6d
  64:	65636976 	strbvs	r6, [r3, #-2422]!	; 0x976
  68:	726f632f 	rsbvc	r6, pc, #-1140850688	; 0xbc000000
  6c:	5f786574 	svcpl	0x00786574
  70:	78353161 	ldmdavc	r5!, {r0, r5, r6, r8, ip, sp}
  74:	74725f32 	ldrbtvc	r5, [r2], #-3890	; 0xf32
  78:	672f6d73 			; <UNDEFINED> instruction: 0x672f6d73
  7c:	74736575 	ldrbtvc	r6, [r3], #-1397	; 0x575
  80:	622f736f 	eorvs	r7, pc, #-1140850687	; 0xbc000001
  84:	6575676d 	ldrbvs	r6, [r5, #-1901]!	; 0x76d
  88:	73007473 	movwvc	r7, #1139	; 0x473
  8c:	74726f68 	ldrbtvc	r6, [r2], #-3944	; 0xf68
  90:	736e7520 	cmnvc	lr, #32, 10	; 0x8000000
  94:	656e6769 	strbvs	r6, [lr, #-1897]!	; 0x769
  98:	6e692064 	cdpvs	0, 6, cr2, cr9, cr4, {3}
  9c:	2e2e0074 	mcrcs	0, 1, r0, cr14, cr4, {3}
  a0:	2f2e2e2f 	svccs	0x002e2e2f
  a4:	2e2f2e2e 	cdpcs	14, 2, cr2, cr15, cr14, {1}
  a8:	6f632f2e 	svcvs	0x00632f2e
  ac:	6e6f6d6d 	cdpvs	13, 6, cr6, cr15, cr13, {3}
  b0:	6575672f 	ldrbvs	r6, [r5, #-1839]!	; 0x72f
  b4:	632f7473 	teqvs	pc, #1929379840	; 0x73000000
  b8:	2f65726f 	svccs	0x0065726f
  bc:	74735f63 	ldrbtvc	r5, [r3], #-3939	; 0xf63
  c0:	2e747261 	cdpcs	2, 7, cr7, cr4, cr1, {3}
  c4:	726e0063 	rsbvc	r0, lr, #99	; 0x63
  c8:	65645f6d 	strbvs	r5, [r4, #-3949]!	; 0xf6d
  cc:	0079616c 	rsbseq	r6, r9, ip, ror #2
  d0:	5f6d726e 	svcpl	0x006d726e
  d4:	706f6f6c 	rsbvc	r6, pc, ip, ror #30
  d8:	78655f00 	stmdavc	r5!, {r8, r9, sl, fp, ip, lr}^
  dc:	74706563 	ldrbtvc	r6, [r0], #-1379	; 0x563
  e0:	686e755f 	stmdavs	lr!, {r0, r1, r2, r3, r4, r6, r8, sl, ip, sp, lr}^
  e4:	6c646e61 	stclvs	14, cr6, [r4], #-388	; 0xfffffe7c
  e8:	2e006465 	cdpcs	4, 0, cr6, cr0, cr5, {3}
  ec:	2e2e2f2e 	cdpcs	15, 2, cr2, cr14, cr14, {1}
  f0:	2f2e2e2f 	svccs	0x002e2e2f
  f4:	632f2e2e 	teqvs	pc, #736	; 0x2e0
  f8:	6f6d6d6f 	svcvs	0x006d6d6f
  fc:	75672f6e 	strbvc	r2, [r7, #-3950]!	; 0xf6e
 100:	2f747365 	svccs	0x00747365
 104:	65726f63 	ldrbvs	r6, [r2, #-3939]!	; 0xf63
 108:	6378652f 	cmnvs	r8, #197132288	; 0xbc00000
 10c:	69747065 	ldmdbvs	r4!, {r0, r2, r5, r6, ip, sp, lr}^
 110:	632e6e6f 	teqvs	lr, #1776	; 0x6f0
 114:	73706300 	cmnvc	r0, #0, 6
 118:	72610072 	rsbvc	r0, r1, #114	; 0x72
 11c:	725f6863 	subsvc	r6, pc, #6488064	; 0x630000
 120:	00736765 	rsbseq	r6, r3, r5, ror #14
 124:	6378655f 	cmnvs	r8, #398458880	; 0x17c00000
 128:	5f747065 	svcpl	0x00747065
 12c:	00717269 	rsbseq	r7, r1, r9, ror #4
 130:	657a6973 	ldrbvs	r6, [sl, #-2419]!	; 0x973
 134:	65707974 	ldrbvs	r7, [r0, #-2420]!	; 0x974
 138:	63696700 	cmnvs	r9, #0, 14
 13c:	746e695f 	strbtvc	r6, [lr], #-2399	; 0x95f
 140:	75727265 	ldrbvc	r7, [r2, #-613]!	; 0x265
 144:	5f007470 	svcpl	0x00007470
 148:	65637865 	strbvs	r7, [r3, #-2149]!	; 0x865
 14c:	735f7470 	cmpvc	pc, #112, 8	; 0x70000000
 150:	62006376 	andvs	r6, r0, #-671088639	; 0xd8000001
 154:	69675f61 	stmdbvs	r7!, {r0, r5, r6, r8, r9, sl, fp, ip, lr}^
 158:	62006363 	andvs	r6, r0, #-1946157055	; 0x8c000001
 15c:	69675f61 	stmdbvs	r7!, {r0, r5, r6, r8, r9, sl, fp, ip, lr}^
 160:	70006463 	andvc	r6, r0, r3, ror #8
 164:	61746164 	cmnvs	r4, r4, ror #2
 168:	706d7300 	rsbvc	r7, sp, r0, lsl #6
 16c:	6f72705f 	svcvs	0x0072705f
 170:	73736563 	cmnvc	r3, #415236096	; 0x18c00000
 174:	695f726f 	ldmdbvs	pc, {r0, r1, r2, r3, r5, r6, r9, ip, sp, lr}^	; <UNPREDICTABLE>
 178:	65720064 	ldrbvs	r0, [r2, #-100]!	; 0x64
 17c:	746c7573 	strbtvc	r7, [ip], #-1395	; 0x573
 180:	63696700 	cmnvs	r9, #0, 14
 184:	616e655f 	cmnvs	lr, pc, asr r5
 188:	5f656c62 	svcpl	0x00656c62
 18c:	00717269 	rsbseq	r7, r1, r9, ror #4
 190:	74696e69 	strbtvc	r6, [r9], #-3689	; 0xe69
 194:	696c6169 	stmdbvs	ip!, {r0, r3, r5, r6, r8, sp, lr}^
 198:	0064657a 	rsbeq	r6, r4, sl, ror r5
 19c:	4d4d5648 	stclmi	6, cr5, [sp, #-288]	; 0xfffffee0
 1a0:	4154535f 	cmpmi	r4, pc, asr r3
 1a4:	5f535554 	svcpl	0x00535554
 1a8:	5f544f4e 	svcpl	0x00544f4e
 1ac:	4e554f46 	cdpmi	15, 5, cr4, cr5, cr6, {2}
 1b0:	69670044 	stmdbvs	r7!, {r2, r6}^
 1b4:	69645f63 	stmdbvs	r4!, {r0, r1, r5, r6, r8, r9, sl, fp, ip, lr}^
 1b8:	6c626173 	stfvse	f6, [r2], #-460	; 0xfffffe34
 1bc:	72695f65 	rsbvc	r5, r9, #404	; 0x194
 1c0:	56480071 			; <UNDEFINED> instruction: 0x56480071
 1c4:	535f4d4d 	cmppl	pc, #4928	; 0x1340
 1c8:	55544154 	ldrbpl	r4, [r4, #-340]	; 0x154
 1cc:	55535f53 	ldrbpl	r5, [r3, #-3923]	; 0xf53
 1d0:	53454343 	movtpl	r4, #21315	; 0x5343
 1d4:	69670053 	stmdbvs	r7!, {r0, r1, r4, r6}^
 1d8:	75645f63 	strbvc	r5, [r4, #-3939]!	; 0xf63
 1dc:	725f706d 	subsvc	r7, pc, #109	; 0x6d
 1e0:	73696765 	cmnvc	r9, #26476544	; 0x1940000
 1e4:	73726574 	cmnvc	r2, #116, 10	; 0x1d000000
 1e8:	6e696c00 	cdpvs	12, 6, cr6, cr9, cr0, {0}
 1ec:	72007365 	andvc	r7, r0, #-1811939327	; 0x94000001
 1f0:	006c6176 	rsbeq	r6, ip, r6, ror r1
 1f4:	4d4d5648 	stclmi	6, cr5, [sp, #-288]	; 0xfffffee0
 1f8:	4154535f 	cmpmi	r4, pc, asr r3
 1fc:	5f535554 	svcpl	0x00535554
 200:	5f444142 	svcpl	0x00444142
 204:	45434341 	strbmi	r4, [r3, #-833]	; 0x341
 208:	5f005353 	svcpl	0x00005353
 20c:	00636967 	rsbeq	r6, r3, r7, ror #18
 210:	2e2f2e2e 	cdpcs	14, 2, cr2, cr15, cr14, {1}
 214:	2e2e2f2e 	cdpcs	15, 2, cr2, cr14, cr14, {1}
 218:	2f2e2e2f 	svccs	0x002e2e2f
 21c:	6d6d6f63 	stclvs	15, cr6, [sp, #-396]!	; 0xfffffe74
 220:	672f6e6f 	strvs	r6, [pc, -pc, ror #28]!
 224:	74736575 	ldrbtvc	r6, [r3], #-1397	; 0x575
 228:	726f632f 	rsbvc	r6, pc, #-1140850688	; 0xbc000000
 22c:	69672f65 	stmdbvs	r7!, {r0, r2, r5, r6, r8, r9, sl, fp, sp}^
 230:	00632e63 	rsbeq	r2, r3, r3, ror #28
 234:	5f636967 	svcpl	0x00636967
 238:	74696e69 	strbtvc	r6, [r9], #-3689	; 0xe69
 23c:	63696700 	cmnvs	r9, #0, 14
 240:	7465735f 	strbtvc	r7, [r5], #-863	; 0x35f
 244:	7172695f 	cmnvc	r2, pc, asr r9
 248:	6e61685f 	mcrvs	8, 3, r6, cr1, cr15, {2}
 24c:	72656c64 	rsbvc	r6, r5, #100, 24	; 0x6400
 250:	5f617600 	svcpl	0x00617600
 254:	65736162 	ldrbvs	r6, [r3, #-354]!	; 0x162
 258:	6e697500 	cdpvs	5, 6, cr7, cr9, cr0, {0}
 25c:	745f3874 	ldrbvc	r3, [pc], #-2164	; 264 <GUEST_OFFSET-0x7ffffd9c>
 260:	63696700 	cmnvs	r9, #0, 14
 264:	696e695f 	stmdbvs	lr!, {r0, r1, r2, r3, r4, r6, r8, fp, sp, lr}^
 268:	61625f74 	smcvs	9716	; 0x25f4
 26c:	64616573 	strbtvs	r6, [r1], #-1395	; 0x573
 270:	68007264 	stmdavs	r0, {r2, r5, r6, r9, ip, sp, lr}
 274:	5f6d6d76 	svcpl	0x006d6d76
 278:	74617473 	strbtvc	r7, [r1], #-1139	; 0x473
 27c:	745f7375 	ldrbvc	r7, [pc], #-885	; 284 <GUEST_OFFSET-0x7ffffd7c>
 280:	63696700 	cmnvs	r9, #0, 14
 284:	7172695f 	cmnvc	r2, pc, asr r9
 288:	6e61685f 	mcrvs	8, 3, r6, cr1, cr15, {2}
 28c:	72656c64 	rsbvc	r6, r5, #100, 24	; 0x6400
 290:	6800745f 	stmdavs	r0, {r0, r1, r2, r3, r4, r6, sl, ip, sp, lr}
 294:	6c646e61 	stclvs	14, cr6, [r4], #-388	; 0xfffffe7c
 298:	00737265 	rsbseq	r7, r3, r5, ror #4
 29c:	65725f73 	ldrbvs	r5, [r2, #-3955]!	; 0xf73
 2a0:	6d003867 	stcvs	8, cr3, [r0, #-412]	; 0xfffffe64
 2a4:	00726469 	rsbseq	r6, r2, r9, ror #8
 2a8:	4d4d5648 	stclmi	6, cr5, [sp, #-288]	; 0xfffffee0
 2ac:	4154535f 	cmpmi	r4, pc, asr r3
 2b0:	5f535554 	svcpl	0x00535554
 2b4:	4f4e4749 	svcmi	0x004e4749
 2b8:	00444552 	subeq	r4, r4, r2, asr r5
 2bc:	4d4d5648 	stclmi	6, cr5, [sp, #-288]	; 0xfffffee0
 2c0:	4154535f 	cmpmi	r4, pc, asr r3
 2c4:	5f535554 	svcpl	0x00535554
 2c8:	59535542 	ldmdbpl	r3, {r1, r6, r8, sl, ip, lr}^
 2cc:	4d564800 	ldclmi	8, cr4, [r6, #-0]
 2d0:	54535f4d 	ldrbpl	r5, [r3], #-3917	; 0xf4d
 2d4:	53555441 	cmppl	r5, #1090519040	; 0x41000000
 2d8:	4b4e555f 	blmi	139585c <GUEST_OFFSET-0x7ec6a7a4>
 2dc:	4e574f4e 	cdpmi	15, 5, cr4, cr7, cr14, {2}
 2e0:	5252455f 	subspl	r4, r2, #398458880	; 0x17c00000
 2e4:	4800524f 	stmdami	r0, {r0, r1, r2, r3, r6, r9, ip, lr}
 2e8:	5f4d4d56 	svcpl	0x004d4d56
 2ec:	54415453 	strbpl	r5, [r1], #-1107	; 0x453
 2f0:	555f5355 	ldrbpl	r5, [pc, #-853]	; ffffffa3 <guest_stacklimit+0x6fffffa3>
 2f4:	5055534e 	subspl	r5, r5, lr, asr #6
 2f8:	54524f50 	ldrbpl	r4, [r2], #-3920	; 0xf50
 2fc:	465f4445 	ldrbmi	r4, [pc], -r5, asr #8
 300:	55544145 	ldrbpl	r4, [r4, #-325]	; 0x145
 304:	75004552 	strvc	r4, [r0, #-1362]	; 0x552
 308:	33746e69 	cmncc	r4, #1680	; 0x690
 30c:	00745f32 	rsbseq	r5, r4, r2, lsr pc
 310:	67657270 			; <UNDEFINED> instruction: 0x67657270
 314:	70630073 	rsbvc	r0, r3, r3, ror r0
 318:	68007375 	stmdavs	r0, {r0, r2, r4, r5, r6, r8, r9, ip, sp, lr}
 31c:	5f6d6d76 	svcpl	0x006d6d76
 320:	74617473 	strbtvc	r7, [r1], #-1139	; 0x473
 324:	67007375 	smlsdxvs	r0, r5, r3, r7
 328:	745f6369 	ldrbvc	r6, [pc], #-873	; 330 <GUEST_OFFSET-0x7ffffcd0>
 32c:	5f747365 	svcpl	0x00747365
 330:	76656476 			; <UNDEFINED> instruction: 0x76656476
 334:	6363615f 	cmnvs	r3, #-1073741801	; 0xc0000017
 338:	00737365 	rsbseq	r7, r3, r5, ror #6
 33c:	5f676572 	svcpl	0x00676572
 340:	65720062 	ldrbvs	r0, [r2, #-98]!	; 0x62
 344:	00635f67 	rsbeq	r5, r3, r7, ror #30
 348:	74736574 	ldrbtvc	r6, [r3], #-1396	; 0x574
 34c:	6564765f 	strbvs	r7, [r4, #-1631]!	; 0x65f
 350:	61735f76 	cmnvs	r3, r6, ror pc
 354:	656c706d 	strbvs	r7, [ip, #-109]!	; 0x6d
 358:	67657200 	strbvs	r7, [r5, -r0, lsl #4]!
 35c:	2e00615f 	mcrcs	1, 0, r6, cr0, cr15, {2}
 360:	2e2e2f2e 	cdpcs	15, 2, cr2, cr14, cr14, {1}
 364:	2f2e2e2f 	svccs	0x002e2e2f
 368:	632f2e2e 	teqvs	pc, #736	; 0x2e0
 36c:	6f6d6d6f 	svcvs	0x006d6d6f
 370:	75672f6e 	strbvc	r2, [r7, #-3950]!	; 0xf6e
 374:	2f747365 	svccs	0x00747365
 378:	74736574 	ldrbtvc	r6, [r3], #-1396	; 0x574
 37c:	7365742f 	cmnvc	r5, #788529152	; 0x2f000000
 380:	64765f74 	ldrbtvs	r5, [r6], #-3956	; 0xf74
 384:	735f7665 	cmpvc	pc, #105906176	; 0x6500000
 388:	6c706d61 	ldclvs	13, cr6, [r0], #-388	; 0xfffffe7c
 38c:	00632e65 	rsbeq	r2, r3, r5, ror #28
 390:	6d697476 	cfstrdvs	mvd7, [r9, #-472]!	; 0xfffffe28
 394:	6d5f7265 	lfmvs	f7, 2, [pc, #-404]	; 208 <GUEST_OFFSET-0x7ffffdf8>
 398:	006b7361 	rsbeq	r7, fp, r1, ror #6
 39c:	2e2f2e2e 	cdpcs	14, 2, cr2, cr15, cr14, {1}
 3a0:	2e2e2f2e 	cdpcs	15, 2, cr2, cr14, cr14, {1}
 3a4:	2f2e2e2f 	svccs	0x002e2e2f
 3a8:	6d6d6f63 	stclvs	15, cr6, [sp, #-396]!	; 0xfffffe74
 3ac:	672f6e6f 	strvs	r6, [pc, -pc, ror #28]!
 3b0:	74736575 	ldrbtvc	r6, [r3], #-1397	; 0x575
 3b4:	7365742f 	cmnvc	r5, #788529152	; 0x2f000000
 3b8:	65742f74 	ldrbvs	r2, [r4, #-3956]!	; 0xf74
 3bc:	765f7473 			; <UNDEFINED> instruction: 0x765f7473
 3c0:	656d6974 	strbvs	r6, [sp, #-2420]!	; 0x974
 3c4:	00632e72 	rsbeq	r2, r3, r2, ror lr
 3c8:	72735f5f 	rsbsvc	r5, r3, #380	; 0x17c
 3cc:	69730063 	ldmdbvs	r3!, {r0, r1, r5, r6}^
 3d0:	745f657a 	ldrbvc	r6, [pc], #-1402	; 3d8 <GUEST_OFFSET-0x7ffffc28>
 3d4:	6d656d00 	stclvs	13, cr6, [r5, #-0]
 3d8:	00706d63 	rsbseq	r6, r0, r3, ror #26
 3dc:	6d6d656d 	cfstr64vs	mvdx6, [sp, #-436]!	; 0xfffffe4c
 3e0:	0065766f 	rsbeq	r7, r5, pc, ror #12
 3e4:	65645f5f 	strbvs	r5, [r4, #-3935]!	; 0xf5f
 3e8:	6d007473 	cfstrsvs	mvf7, [r0, #-460]	; 0xfffffe34
 3ec:	68636d65 	stmdavs	r3!, {r0, r2, r5, r6, r8, sl, fp, sp, lr}^
 3f0:	74730072 	ldrbtvc	r0, [r3], #-114	; 0x72
 3f4:	72686372 	rsbvc	r6, r8, #-939524095	; 0xc8000001
 3f8:	72747300 	rsbsvc	r7, r4, #0, 6
 3fc:	006e656c 	rsbeq	r6, lr, ip, ror #10
 400:	5f6d7261 	svcpl	0x006d7261
 404:	73786568 	cmnvc	r8, #104, 10	; 0x1a000000
 408:	75327274 	ldrvc	r7, [r2, #-628]!	; 0x274
 40c:	00746e69 	rsbseq	r6, r4, r9, ror #28
 410:	63727473 	cmnvs	r2, #1929379840	; 0x73000000
 414:	73007970 	movwvc	r7, #2416	; 0x970
 418:	61637274 	smcvs	14116	; 0x3724
 41c:	656d0074 	strbvs	r0, [sp, #-116]!	; 0x74
 420:	7465736d 	strbtvc	r7, [r5], #-877	; 0x36d
 424:	6d5f5f00 	ldclvs	15, cr5, [pc, #-0]	; 42c <GUEST_OFFSET-0x7ffffbd4>
 428:	6f6d6d65 	svcvs	0x006d6d65
 42c:	645f6576 	ldrbvs	r6, [pc], #-1398	; 434 <GUEST_OFFSET-0x7ffffbcc>
 430:	006e776f 	rsbeq	r7, lr, pc, ror #14
 434:	5f6d7261 	svcpl	0x006d7261
 438:	746e6975 	strbtvc	r6, [lr], #-2421	; 0x975
 43c:	78656832 	stmdavc	r5!, {r1, r4, r5, fp, sp, lr}^
 440:	00727473 	rsbseq	r7, r2, r3, ror r4
 444:	756e696d 	strbvc	r6, [lr, #-2413]!	; 0x96d
 448:	65680073 	strbvs	r0, [r8, #-115]!	; 0x73
 44c:	61686378 	smcvs	34360	; 0x8638
 450:	61007372 	tstvs	r0, r2, ror r3
 454:	735f6d72 	cmpvc	pc, #7296	; 0x1c80
 458:	69327274 	ldmdbvs	r2!, {r2, r4, r5, r6, r9, ip, sp, lr}
 45c:	5f00746e 	svcpl	0x0000746e
 460:	6d656d5f 	stclvs	13, cr6, [r5, #-380]!	; 0xfffffe84
 464:	65766f6d 	ldrbvs	r6, [r6, #-3949]!	; 0xf6d
 468:	0070755f 	rsbseq	r7, r0, pc, asr r5
 46c:	63727473 	cmnvs	r2, #1929379840	; 0x73000000
 470:	6d00706d 	stcvs	0, cr7, [r0, #-436]	; 0xfffffe4c
 474:	70636d65 	rsbvc	r6, r3, r5, ror #26
 478:	74730079 	ldrbtvc	r0, [r3], #-121	; 0x79
 47c:	6d636e72 	stclvs	14, cr6, [r3, #-456]!	; 0xfffffe38
 480:	6f630070 	svcvs	0x00630070
 484:	00746e75 	rsbseq	r6, r4, r5, ror lr
 488:	2e2f2e2e 	cdpcs	14, 2, cr2, cr15, cr14, {1}
 48c:	2e2e2f2e 	cdpcs	15, 2, cr2, cr14, cr14, {1}
 490:	2f2e2e2f 	svccs	0x002e2e2f
 494:	6d6d6f63 	stclvs	15, cr6, [sp, #-396]!	; 0xfffffe74
 498:	6c2f6e6f 	stcvs	14, cr6, [pc], #-444	; 2e4 <GUEST_OFFSET-0x7ffffd1c>
 49c:	732f676f 	teqvc	pc, #29097984	; 0x1bc0000
 4a0:	6e697274 	mcrvs	2, 3, r7, cr9, cr4, {3}
 4a4:	00632e67 	rsbeq	r2, r3, r7, ror #28
 4a8:	74726175 	ldrbtvc	r6, [r2], #-373	; 0x175
 4ac:	6972705f 	ldmdbvs	r2!, {r0, r1, r2, r3, r4, r6, ip, sp, lr}^
 4b0:	7500746e 	strvc	r7, [r0, #-1134]	; 0x46e
 4b4:	5f747261 	svcpl	0x00747261
 4b8:	74696e69 	strbtvc	r6, [r9], #-3689	; 0xe69
 4bc:	41557000 	cmpmi	r5, r0
 4c0:	75005452 	strvc	r5, [r0, #-1106]	; 0x452
 4c4:	5f747261 	svcpl	0x00747261
 4c8:	63747570 	cmnvs	r4, #112, 10	; 0x1c000000
 4cc:	69726400 	ldmdbvs	r2!, {sl, sp, lr}^
 4d0:	73726576 	cmnvc	r2, #494927872	; 0x1d800000
 4d4:	7261752f 	rsbvc	r7, r1, #197132288	; 0xbc00000
 4d8:	00632e74 	rsbeq	r2, r3, r4, ror lr
 4dc:	6d75645f 	cfldrdvs	mvd6, [r5, #-380]!	; 0xfffffe84
 4e0:	625f796d 	subsvs	r7, pc, #1785856	; 0x1b4000
 4e4:	00657479 	rsbeq	r7, r5, r9, ror r4
 4e8:	74726175 	ldrbtvc	r6, [r2], #-373	; 0x175
 4ec:	6972705f 	ldmdbvs	r2!, {r0, r1, r2, r3, r4, r6, ip, sp, lr}^
 4f0:	685f746e 	ldmdavs	pc, {r1, r2, r3, r5, r6, sl, ip, sp, lr}^	; <UNPREDICTABLE>
 4f4:	32337865 	eorscc	r7, r3, #6619136	; 0x650000
 4f8:	73616d00 	cmnvc	r1, #0, 26
 4fc:	7300386b 	movwvc	r3, #2155	; 0x86b
 500:	34303870 	ldrtcc	r3, [r0], #-2160	; 0x870
 504:	696e695f 	stmdbvs	lr!, {r0, r1, r2, r3, r4, r6, r8, fp, sp, lr}^
 508:	70730074 	rsbsvc	r0, r3, r4, ror r0
 50c:	5f343038 	svcpl	0x00343038
 510:	72617473 	rsbvc	r7, r1, #1929379840	; 0x73000000
 514:	70730074 	rsbsvc	r0, r3, r4, ror r0
 518:	5f343038 	svcpl	0x00343038
 51c:	5f717269 	svcpl	0x00717269
 520:	61656c63 	cmnvs	r5, r3, ror #24
 524:	70730072 	rsbsvc	r0, r3, r2, ror r0
 528:	5f343038 	svcpl	0x00343038
 52c:	65736162 	ldrbvs	r6, [r3, #-354]!	; 0x162
 530:	616f6c00 	cmnvs	pc, r0, lsl #24
 534:	61765f64 	cmnvs	r6, r4, ror #30
 538:	0065756c 	rsbeq	r7, r5, ip, ror #10
 53c:	76697264 	strbtvc	r7, [r9], -r4, ror #4
 540:	2f737265 	svccs	0x00737265
 544:	30387073 	eorscc	r7, r8, r3, ror r0
 548:	69745f34 	ldmdbvs	r4!, {r2, r4, r5, r8, r9, sl, fp, ip, lr}^
 54c:	2e72656d 	cdpcs	5, 7, cr6, cr2, cr13, {3}
 550:	70730063 	rsbsvc	r0, r3, r3, rrx
 554:	5f343038 	svcpl	0x00343038
 558:	74696e69 	strbtvc	r6, [r9], #-3689	; 0xe69
 55c:	656e6f5f 	strbvs	r6, [lr, #-3935]!	; 0xf5f
 560:	746f6873 	strbtvc	r6, [pc], #-2163	; 568 <GUEST_OFFSET-0x7ffffa98>
 564:	38707300 	ldmdacc	r0!, {r8, r9, ip, sp, lr}^
 568:	735f3430 	cmpvc	pc, #48, 8	; 0x30000000
 56c:	00706f74 	rsbseq	r6, r0, r4, ror pc
 570:	64696d76 	strbtvs	r6, [r9], #-3446	; 0xd76
 574:	746e6900 	strbtvc	r6, [lr], #-2304	; 0x900
 578:	75727265 	ldrbvc	r7, [r2, #-613]!	; 0x265
 57c:	735f7470 	cmpvc	pc, #112, 8	; 0x70000000
 580:	34303870 	ldrtcc	r3, [r0], #-2160	; 0x870
 584:	6d69745f 	cfstrdvs	mvd7, [r9, #-380]!	; 0xfffffe84
 588:	73007265 	movwvc	r7, #613	; 0x265
 58c:	34303870 	ldrtcc	r3, [r0], #-2160	; 0x870
 590:	6165725f 	cmnvs	r5, pc, asr r2
 594:	76680064 	strbtvc	r0, [r8], -r4, rrx
 598:	745f6d6d 	ldrbvc	r6, [pc], #-3437	; 5a0 <GUEST_OFFSET-0x7ffffa60>
 59c:	73747365 	cmnvc	r4, #-1811939327	; 0x94000001
 5a0:	3870735f 	ldmdacc	r0!, {r0, r1, r2, r3, r4, r6, r8, r9, ip, sp, lr}^
 5a4:	745f3430 	ldrbvc	r3, [pc], #-1072	; 5ac <GUEST_OFFSET-0x7ffffa54>
 5a8:	72656d69 	rsbvc	r6, r5, #6720	; 0x1a40
 5ac:	38707300 	ldmdacc	r0!, {r8, r9, ip, sp, lr}^
 5b0:	695f3430 	ldmdbvs	pc, {r4, r5, sl, ip, sp}^	; <UNPREDICTABLE>
 5b4:	5f74696e 	svcpl	0x0074696e
 5b8:	69726570 	ldmdbvs	r2!, {r4, r5, r6, r8, sl, sp, lr}^
 5bc:	6369646f 	cmnvs	r9, #1862270976	; 0x6f000000
 5c0:	38707300 	ldmdacc	r0!, {r8, r9, ip, sp, lr}^
 5c4:	6c5f3430 	cfldrdvs	mvd3, [pc], {48}	; 0x30
 5c8:	0064616f 	rsbeq	r6, r4, pc, ror #2
 5cc:	64616f6c 	strbtvs	r6, [r1], #-3948	; 0xf6c
 5d0:	006c6176 	rsbeq	r6, ip, r6, ror r1
 5d4:	75706376 	ldrbvc	r6, [r0, #-886]!	; 0x376
 5d8:	745f6469 	ldrbvc	r6, [pc], #-1129	; 5e0 <GUEST_OFFSET-0x7ffffa20>
	...

Disassembly of section .debug_frame:

00000000 <.debug_frame>:
   0:	0000000c 	andeq	r0, r0, ip
   4:	ffffffff 			; <UNDEFINED> instruction: 0xffffffff
   8:	7c020001 	stcvc	0, cr0, [r2], {1}
   c:	000d0c0e 	andeq	r0, sp, lr, lsl #24
  10:	00000018 	andeq	r0, r0, r8, lsl r0
  14:	00000000 	andeq	r0, r0, r0
  18:	80000004 	andhi	r0, r0, r4
  1c:	00000024 	andeq	r0, r0, r4, lsr #32
  20:	8b080e42 	blhi	203930 <GUEST_OFFSET-0x7fdfc6d0>
  24:	42018e02 	andmi	r8, r1, #2, 28
  28:	00040b0c 	andeq	r0, r4, ip, lsl #22
  2c:	0000000c 	andeq	r0, r0, ip
  30:	ffffffff 			; <UNDEFINED> instruction: 0xffffffff
  34:	7c020001 	stcvc	0, cr0, [r2], {1}
  38:	000d0c0e 	andeq	r0, sp, lr, lsl #24
  3c:	00000014 	andeq	r0, r0, r4, lsl r0
  40:	0000002c 	andeq	r0, r0, ip, lsr #32
  44:	80000028 	andhi	r0, r0, r8, lsr #32
  48:	00000048 	andeq	r0, r0, r8, asr #32
  4c:	8b040e42 	blhi	10395c <GUEST_OFFSET-0x7fefc6a4>
  50:	0b0d4201 	bleq	35085c <GUEST_OFFSET-0x7fcaf7a4>
  54:	00000018 	andeq	r0, r0, r8, lsl r0
  58:	0000002c 	andeq	r0, r0, ip, lsr #32
  5c:	80000070 	andhi	r0, r0, r0, ror r0
  60:	0000014c 	andeq	r0, r0, ip, asr #2
  64:	8b080e42 	blhi	203974 <GUEST_OFFSET-0x7fdfc68c>
  68:	42018e02 	andmi	r8, r1, #2, 28
  6c:	00040b0c 	andeq	r0, r4, ip, lsl #22
  70:	0000000c 	andeq	r0, r0, ip
  74:	ffffffff 			; <UNDEFINED> instruction: 0xffffffff
  78:	7c020001 	stcvc	0, cr0, [r2], {1}
  7c:	000d0c0e 	andeq	r0, sp, lr, lsl #24
  80:	00000014 	andeq	r0, r0, r4, lsl r0
  84:	00000070 	andeq	r0, r0, r0, ror r0
  88:	800001bc 			; <UNDEFINED> instruction: 0x800001bc
  8c:	0000001c 	andeq	r0, r0, ip, lsl r0
  90:	8b040e42 	blhi	1039a0 <GUEST_OFFSET-0x7fefc660>
  94:	0b0d4201 	bleq	3508a0 <GUEST_OFFSET-0x7fcaf760>
  98:	00000014 	andeq	r0, r0, r4, lsl r0
  9c:	00000070 	andeq	r0, r0, r0, ror r0
  a0:	800001d8 	ldrdhi	r0, [r0], -r8
  a4:	0000001c 	andeq	r0, r0, ip, lsl r0
  a8:	8b040e42 	blhi	1039b8 <GUEST_OFFSET-0x7fefc648>
  ac:	0b0d4201 	bleq	3508b8 <GUEST_OFFSET-0x7fcaf748>
  b0:	00000018 	andeq	r0, r0, r8, lsl r0
  b4:	00000070 	andeq	r0, r0, r0, ror r0
  b8:	800001f4 	strdhi	r0, [r0], -r4
  bc:	00000024 	andeq	r0, r0, r4, lsr #32
  c0:	8b080e42 	blhi	2039d0 <GUEST_OFFSET-0x7fdfc630>
  c4:	42018e02 	andmi	r8, r1, #2, 28
  c8:	00040b0c 	andeq	r0, r4, ip, lsl #22
  cc:	0000000c 	andeq	r0, r0, ip
  d0:	ffffffff 			; <UNDEFINED> instruction: 0xffffffff
  d4:	7c020001 	stcvc	0, cr0, [r2], {1}
  d8:	000d0c0e 	andeq	r0, sp, lr, lsl #24
  dc:	00000018 	andeq	r0, r0, r8, lsl r0
  e0:	000000cc 	andeq	r0, r0, ip, asr #1
  e4:	80000218 	andhi	r0, r0, r8, lsl r2
  e8:	0000002c 	andeq	r0, r0, ip, lsr #32
  ec:	84080e42 	strhi	r0, [r8], #-3650	; 0xe42
  f0:	42018b02 	andmi	r8, r1, #2048	; 0x800
  f4:	00040b0c 	andeq	r0, r4, ip, lsl #22
  f8:	00000018 	andeq	r0, r0, r8, lsl r0
  fc:	000000cc 	andeq	r0, r0, ip, asr #1
 100:	80000244 	andhi	r0, r0, r4, asr #4
 104:	0000013c 	andeq	r0, r0, ip, lsr r1
 108:	8b080e42 	blhi	203a18 <GUEST_OFFSET-0x7fdfc5e8>
 10c:	42018e02 	andmi	r8, r1, #2, 28
 110:	00040b0c 	andeq	r0, r4, ip, lsl #22
 114:	0000001c 	andeq	r0, r0, ip, lsl r0
 118:	000000cc 	andeq	r0, r0, ip, asr #1
 11c:	80000380 	andhi	r0, r0, r0, lsl #7
 120:	0000024c 	andeq	r0, r0, ip, asr #4
 124:	840c0e42 	strhi	r0, [ip], #-3650	; 0xe42
 128:	8e028b03 	vmlahi.f64	d8, d2, d3
 12c:	0b0c4201 	bleq	310938 <GUEST_OFFSET-0x7fcef6c8>
 130:	00000004 	andeq	r0, r0, r4
 134:	0000001c 	andeq	r0, r0, ip, lsl r0
 138:	000000cc 	andeq	r0, r0, ip, asr #1
 13c:	800005cc 	andhi	r0, r0, ip, asr #11
 140:	0000010c 	andeq	r0, r0, ip, lsl #2
 144:	840c0e42 	strhi	r0, [ip], #-3650	; 0xe42
 148:	8e028b03 	vmlahi.f64	d8, d2, d3
 14c:	0b0c4201 	bleq	310958 <GUEST_OFFSET-0x7fcef6a8>
 150:	00000004 	andeq	r0, r0, r4
 154:	00000014 	andeq	r0, r0, r4, lsl r0
 158:	000000cc 	andeq	r0, r0, ip, asr #1
 15c:	800006d8 	ldrdhi	r0, [r0], -r8
 160:	00000058 	andeq	r0, r0, r8, asr r0
 164:	8b040e42 	blhi	103a74 <GUEST_OFFSET-0x7fefc58c>
 168:	0b0d4201 	bleq	350974 <GUEST_OFFSET-0x7fcaf68c>
 16c:	00000014 	andeq	r0, r0, r4, lsl r0
 170:	000000cc 	andeq	r0, r0, ip, asr #1
 174:	80000730 	andhi	r0, r0, r0, lsr r7
 178:	00000058 	andeq	r0, r0, r8, asr r0
 17c:	8b040e42 	blhi	103a8c <GUEST_OFFSET-0x7fefc574>
 180:	0b0d4201 	bleq	35098c <GUEST_OFFSET-0x7fcaf674>
 184:	00000014 	andeq	r0, r0, r4, lsl r0
 188:	000000cc 	andeq	r0, r0, ip, asr #1
 18c:	80000788 	andhi	r0, r0, r8, lsl #15
 190:	00000070 	andeq	r0, r0, r0, ror r0
 194:	8b040e42 	blhi	103aa4 <GUEST_OFFSET-0x7fefc55c>
 198:	0b0d4201 	bleq	3509a4 <GUEST_OFFSET-0x7fcaf65c>
 19c:	00000018 	andeq	r0, r0, r8, lsl r0
 1a0:	000000cc 	andeq	r0, r0, ip, asr #1
 1a4:	800007f8 	strdhi	r0, [r0], -r8
 1a8:	0000014c 	andeq	r0, r0, ip, asr #2
 1ac:	8b080e42 	blhi	203abc <GUEST_OFFSET-0x7fdfc544>
 1b0:	42018e02 	andmi	r8, r1, #2, 28
 1b4:	00040b0c 	andeq	r0, r4, ip, lsl #22
 1b8:	00000018 	andeq	r0, r0, r8, lsl r0
 1bc:	000000cc 	andeq	r0, r0, ip, asr #1
 1c0:	80000944 	andhi	r0, r0, r4, asr #18
 1c4:	0000015c 	andeq	r0, r0, ip, asr r1
 1c8:	8b080e42 	blhi	203ad8 <GUEST_OFFSET-0x7fdfc528>
 1cc:	42018e02 	andmi	r8, r1, #2, 28
 1d0:	00040b0c 	andeq	r0, r4, ip, lsl #22
 1d4:	0000000c 	andeq	r0, r0, ip
 1d8:	ffffffff 			; <UNDEFINED> instruction: 0xffffffff
 1dc:	7c020001 	stcvc	0, cr0, [r2], {1}
 1e0:	000d0c0e 	andeq	r0, sp, lr, lsl #24
 1e4:	00000018 	andeq	r0, r0, r8, lsl r0
 1e8:	000001d4 	ldrdeq	r0, [r0], -r4
 1ec:	80000aa0 	andhi	r0, r0, r0, lsr #21
 1f0:	00000174 	andeq	r0, r0, r4, ror r1
 1f4:	8b080e42 	blhi	203b04 <GUEST_OFFSET-0x7fdfc4fc>
 1f8:	42018e02 	andmi	r8, r1, #2, 28
 1fc:	00040b0c 	andeq	r0, r4, ip, lsl #22
 200:	0000000c 	andeq	r0, r0, ip
 204:	ffffffff 			; <UNDEFINED> instruction: 0xffffffff
 208:	7c020001 	stcvc	0, cr0, [r2], {1}
 20c:	000d0c0e 	andeq	r0, sp, lr, lsl #24
 210:	00000014 	andeq	r0, r0, r4, lsl r0
 214:	00000200 	andeq	r0, r0, r0, lsl #4
 218:	80000c14 	andhi	r0, r0, r4, lsl ip
 21c:	00000030 	andeq	r0, r0, r0, lsr r0
 220:	8b040e42 	blhi	103b30 <GUEST_OFFSET-0x7fefc4d0>
 224:	0b0d4201 	bleq	350a30 <GUEST_OFFSET-0x7fcaf5d0>
 228:	0000000c 	andeq	r0, r0, ip
 22c:	ffffffff 			; <UNDEFINED> instruction: 0xffffffff
 230:	7c020001 	stcvc	0, cr0, [r2], {1}
 234:	000d0c0e 	andeq	r0, sp, lr, lsl #24
 238:	00000014 	andeq	r0, r0, r4, lsl r0
 23c:	00000228 	andeq	r0, r0, r8, lsr #4
 240:	80000c44 	andhi	r0, r0, r4, asr #24
 244:	00000090 	muleq	r0, r0, r0
 248:	8b040e42 	blhi	103b58 <GUEST_OFFSET-0x7fefc4a8>
 24c:	0b0d4201 	bleq	350a58 <GUEST_OFFSET-0x7fcaf5a8>
 250:	00000014 	andeq	r0, r0, r4, lsl r0
 254:	00000228 	andeq	r0, r0, r8, lsr #4
 258:	80000cd4 	ldrdhi	r0, [r0], -r4
 25c:	000000a8 	andeq	r0, r0, r8, lsr #1
 260:	8b040e42 	blhi	103b70 <GUEST_OFFSET-0x7fefc490>
 264:	0b0d4201 	bleq	350a70 <GUEST_OFFSET-0x7fcaf590>
 268:	00000018 	andeq	r0, r0, r8, lsl r0
 26c:	00000228 	andeq	r0, r0, r8, lsr #4
 270:	80000d7c 	andhi	r0, r0, ip, ror sp
 274:	00000038 	andeq	r0, r0, r8, lsr r0
 278:	8b080e42 	blhi	203b88 <GUEST_OFFSET-0x7fdfc478>
 27c:	42018e02 	andmi	r8, r1, #2, 28
 280:	00040b0c 	andeq	r0, r4, ip, lsl #22
 284:	00000018 	andeq	r0, r0, r8, lsl r0
 288:	00000228 	andeq	r0, r0, r8, lsr #4
 28c:	80000db4 			; <UNDEFINED> instruction: 0x80000db4
 290:	00000060 	andeq	r0, r0, r0, rrx
 294:	8b080e42 	blhi	203ba4 <GUEST_OFFSET-0x7fdfc45c>
 298:	42018e02 	andmi	r8, r1, #2, 28
 29c:	00040b0c 	andeq	r0, r4, ip, lsl #22
 2a0:	00000014 	andeq	r0, r0, r4, lsl r0
 2a4:	00000228 	andeq	r0, r0, r8, lsr #4
 2a8:	80000e14 	andhi	r0, r0, r4, lsl lr
 2ac:	00000088 	andeq	r0, r0, r8, lsl #1
 2b0:	8b040e42 	blhi	103bc0 <GUEST_OFFSET-0x7fefc440>
 2b4:	0b0d4201 	bleq	350ac0 <GUEST_OFFSET-0x7fcaf540>
 2b8:	00000014 	andeq	r0, r0, r4, lsl r0
 2bc:	00000228 	andeq	r0, r0, r8, lsr #4
 2c0:	80000e9c 	mulhi	r0, ip, lr
 2c4:	00000054 	andeq	r0, r0, r4, asr r0
 2c8:	8b040e42 	blhi	103bd8 <GUEST_OFFSET-0x7fefc428>
 2cc:	0b0d4201 	bleq	350ad8 <GUEST_OFFSET-0x7fcaf528>
 2d0:	00000014 	andeq	r0, r0, r4, lsl r0
 2d4:	00000228 	andeq	r0, r0, r8, lsr #4
 2d8:	80000ef0 	strdhi	r0, [r0], -r0	; <UNPREDICTABLE>
 2dc:	0000007c 	andeq	r0, r0, ip, ror r0
 2e0:	8b040e42 	blhi	103bf0 <GUEST_OFFSET-0x7fefc410>
 2e4:	0b0d4201 	bleq	350af0 <GUEST_OFFSET-0x7fcaf510>
 2e8:	00000014 	andeq	r0, r0, r4, lsl r0
 2ec:	00000228 	andeq	r0, r0, r8, lsr #4
 2f0:	80000f6c 	andhi	r0, r0, ip, ror #30
 2f4:	000000c0 	andeq	r0, r0, r0, asr #1
 2f8:	8b040e42 	blhi	103c08 <GUEST_OFFSET-0x7fefc3f8>
 2fc:	0b0d4201 	bleq	350b08 <GUEST_OFFSET-0x7fcaf4f8>
 300:	00000014 	andeq	r0, r0, r4, lsl r0
 304:	00000228 	andeq	r0, r0, r8, lsr #4
 308:	8000102c 	andhi	r1, r0, ip, lsr #32
 30c:	000000e4 	andeq	r0, r0, r4, ror #1
 310:	8b040e42 	blhi	103c20 <GUEST_OFFSET-0x7fefc3e0>
 314:	0b0d4201 	bleq	350b20 <GUEST_OFFSET-0x7fcaf4e0>
 318:	00000014 	andeq	r0, r0, r4, lsl r0
 31c:	00000228 	andeq	r0, r0, r8, lsr #4
 320:	80001110 	andhi	r1, r0, r0, lsl r1
 324:	0000011c 	andeq	r0, r0, ip, lsl r1
 328:	8b040e42 	blhi	103c38 <GUEST_OFFSET-0x7fefc3c8>
 32c:	0b0d4201 	bleq	350b38 <GUEST_OFFSET-0x7fcaf4c8>
 330:	00000014 	andeq	r0, r0, r4, lsl r0
 334:	00000228 	andeq	r0, r0, r8, lsr #4
 338:	8000122c 	andhi	r1, r0, ip, lsr #4
 33c:	00000080 	andeq	r0, r0, r0, lsl #1
 340:	8b040e42 	blhi	103c50 <GUEST_OFFSET-0x7fefc3b0>
 344:	0b0d4201 	bleq	350b50 <GUEST_OFFSET-0x7fcaf4b0>
 348:	00000014 	andeq	r0, r0, r4, lsl r0
 34c:	00000228 	andeq	r0, r0, r8, lsr #4
 350:	800012ac 	andhi	r1, r0, ip, lsr #5
 354:	0000008c 	andeq	r0, r0, ip, lsl #1
 358:	8b040e42 	blhi	103c68 <GUEST_OFFSET-0x7fefc398>
 35c:	0b0d4201 	bleq	350b68 <GUEST_OFFSET-0x7fcaf498>
 360:	00000014 	andeq	r0, r0, r4, lsl r0
 364:	00000228 	andeq	r0, r0, r8, lsr #4
 368:	80001338 	andhi	r1, r0, r8, lsr r3
 36c:	00000194 	muleq	r0, r4, r1
 370:	8b040e42 	blhi	103c80 <GUEST_OFFSET-0x7fefc380>
 374:	0b0d4201 	bleq	350b80 <GUEST_OFFSET-0x7fcaf480>
 378:	00000014 	andeq	r0, r0, r4, lsl r0
 37c:	00000228 	andeq	r0, r0, r8, lsr #4
 380:	800014cc 	andhi	r1, r0, ip, asr #9
 384:	00000100 	andeq	r0, r0, r0, lsl #2
 388:	8b040e42 	blhi	103c98 <GUEST_OFFSET-0x7fefc368>
 38c:	0b0d4201 	bleq	350b98 <GUEST_OFFSET-0x7fcaf468>
 390:	00000014 	andeq	r0, r0, r4, lsl r0
 394:	00000228 	andeq	r0, r0, r8, lsr #4
 398:	800015cc 	andhi	r1, r0, ip, asr #11
 39c:	00000090 	muleq	r0, r0, r0
 3a0:	8b040e42 	blhi	103cb0 <GUEST_OFFSET-0x7fefc350>
 3a4:	0b0d4201 	bleq	350bb0 <GUEST_OFFSET-0x7fcaf450>
 3a8:	00000014 	andeq	r0, r0, r4, lsl r0
 3ac:	00000228 	andeq	r0, r0, r8, lsr #4
 3b0:	8000165c 	andhi	r1, r0, ip, asr r6
 3b4:	000000e4 	andeq	r0, r0, r4, ror #1
 3b8:	8b040e42 	blhi	103cc8 <GUEST_OFFSET-0x7fefc338>
 3bc:	0b0d4201 	bleq	350bc8 <GUEST_OFFSET-0x7fcaf438>
 3c0:	0000000c 	andeq	r0, r0, ip
 3c4:	ffffffff 			; <UNDEFINED> instruction: 0xffffffff
 3c8:	7c020001 	stcvc	0, cr0, [r2], {1}
 3cc:	000d0c0e 	andeq	r0, sp, lr, lsl #24
 3d0:	00000014 	andeq	r0, r0, r4, lsl r0
 3d4:	000003c0 	andeq	r0, r0, r0, asr #7
 3d8:	80001820 	andhi	r1, r0, r0, lsr #16
 3dc:	00000014 	andeq	r0, r0, r4, lsl r0
 3e0:	8b040e42 	blhi	103cf0 <GUEST_OFFSET-0x7fefc310>
 3e4:	0b0d4201 	bleq	350bf0 <GUEST_OFFSET-0x7fcaf410>
 3e8:	00000014 	andeq	r0, r0, r4, lsl r0
 3ec:	000003c0 	andeq	r0, r0, r0, asr #7
 3f0:	80001834 	andhi	r1, r0, r4, lsr r8
 3f4:	00000058 	andeq	r0, r0, r8, asr r0
 3f8:	8b040e42 	blhi	103d08 <GUEST_OFFSET-0x7fefc2f8>
 3fc:	0b0d4201 	bleq	350c08 <GUEST_OFFSET-0x7fcaf3f8>
 400:	00000014 	andeq	r0, r0, r4, lsl r0
 404:	000003c0 	andeq	r0, r0, r0, asr #7
 408:	8000188c 	andhi	r1, r0, ip, lsl #17
 40c:	00000038 	andeq	r0, r0, r8, lsr r0
 410:	8b040e42 	blhi	103d20 <GUEST_OFFSET-0x7fefc2e0>
 414:	0b0d4201 	bleq	350c20 <GUEST_OFFSET-0x7fcaf3e0>
 418:	00000018 	andeq	r0, r0, r8, lsl r0
 41c:	000003c0 	andeq	r0, r0, r0, asr #7
 420:	800018c4 	andhi	r1, r0, r4, asr #17
 424:	000000a4 	andeq	r0, r0, r4, lsr #1
 428:	8b080e42 	blhi	203d38 <GUEST_OFFSET-0x7fdfc2c8>
 42c:	42018e02 	andmi	r8, r1, #2, 28
 430:	00040b0c 	andeq	r0, r4, ip, lsl #22
 434:	0000000c 	andeq	r0, r0, ip
 438:	ffffffff 			; <UNDEFINED> instruction: 0xffffffff
 43c:	7c020001 	stcvc	0, cr0, [r2], {1}
 440:	000d0c0e 	andeq	r0, sp, lr, lsl #24
 444:	00000014 	andeq	r0, r0, r4, lsl r0
 448:	00000434 	andeq	r0, r0, r4, lsr r4
 44c:	80001968 	andhi	r1, r0, r8, ror #18
 450:	0000002c 	andeq	r0, r0, ip, lsr #32
 454:	8b040e42 	blhi	103d64 <GUEST_OFFSET-0x7fefc29c>
 458:	0b0d4201 	bleq	350c64 <GUEST_OFFSET-0x7fcaf39c>
 45c:	00000018 	andeq	r0, r0, r8, lsl r0
 460:	00000434 	andeq	r0, r0, r4, lsr r4
 464:	80001994 	mulhi	r0, r4, r9
 468:	0000005c 	andeq	r0, r0, ip, asr r0
 46c:	8b080e42 	blhi	203d7c <GUEST_OFFSET-0x7fdfc284>
 470:	42018e02 	andmi	r8, r1, #2, 28
 474:	00040b0c 	andeq	r0, r4, ip, lsl #22
 478:	00000014 	andeq	r0, r0, r4, lsl r0
 47c:	00000434 	andeq	r0, r0, r4, lsr r4
 480:	800019f0 	strdhi	r1, [r0], -r0
 484:	00000048 	andeq	r0, r0, r8, asr #32
 488:	8b040e42 	blhi	103d98 <GUEST_OFFSET-0x7fefc268>
 48c:	0b0d4201 	bleq	350c98 <GUEST_OFFSET-0x7fcaf368>
 490:	00000018 	andeq	r0, r0, r8, lsl r0
 494:	00000434 	andeq	r0, r0, r4, lsr r4
 498:	80001a38 	andhi	r1, r0, r8, lsr sl
 49c:	00000030 	andeq	r0, r0, r0, lsr r0
 4a0:	8b080e42 	blhi	203db0 <GUEST_OFFSET-0x7fdfc250>
 4a4:	42018e02 	andmi	r8, r1, #2, 28
 4a8:	00040b0c 	andeq	r0, r4, ip, lsl #22
 4ac:	00000014 	andeq	r0, r0, r4, lsl r0
 4b0:	00000434 	andeq	r0, r0, r4, lsr r4
 4b4:	80001a68 	andhi	r1, r0, r8, ror #20
 4b8:	0000002c 	andeq	r0, r0, ip, lsr #32
 4bc:	8b040e42 	blhi	103dcc <GUEST_OFFSET-0x7fefc234>
 4c0:	0b0d4201 	bleq	350ccc <GUEST_OFFSET-0x7fcaf334>
 4c4:	00000014 	andeq	r0, r0, r4, lsl r0
 4c8:	00000434 	andeq	r0, r0, r4, lsr r4
 4cc:	80001a94 	mulhi	r0, r4, sl
 4d0:	00000048 	andeq	r0, r0, r8, asr #32
 4d4:	8b040e42 	blhi	103de4 <GUEST_OFFSET-0x7fefc21c>
 4d8:	0b0d4201 	bleq	350ce4 <GUEST_OFFSET-0x7fcaf31c>
 4dc:	00000014 	andeq	r0, r0, r4, lsl r0
 4e0:	00000434 	andeq	r0, r0, r4, lsr r4
 4e4:	80001adc 	ldrdhi	r1, [r0], -ip
 4e8:	0000002c 	andeq	r0, r0, ip, lsr #32
 4ec:	8b040e42 	blhi	103dfc <GUEST_OFFSET-0x7fefc204>
 4f0:	0b0d4201 	bleq	350cfc <GUEST_OFFSET-0x7fcaf304>
 4f4:	00000014 	andeq	r0, r0, r4, lsl r0
 4f8:	00000434 	andeq	r0, r0, r4, lsr r4
 4fc:	80001b08 	andhi	r1, r0, r8, lsl #22
 500:	0000002c 	andeq	r0, r0, ip, lsr #32
 504:	8b040e42 	blhi	103e14 <GUEST_OFFSET-0x7fefc1ec>
 508:	0b0d4201 	bleq	350d14 <GUEST_OFFSET-0x7fcaf2ec>
 50c:	00000018 	andeq	r0, r0, r8, lsl r0
 510:	00000434 	andeq	r0, r0, r4, lsr r4
 514:	80001b34 	andhi	r1, r0, r4, lsr fp
 518:	00000074 	andeq	r0, r0, r4, ror r0
 51c:	8b080e42 	blhi	203e2c <GUEST_OFFSET-0x7fdfc1d4>
 520:	42018e02 	andmi	r8, r1, #2, 28
 524:	00040b0c 	andeq	r0, r4, ip, lsl #22
 528:	00000018 	andeq	r0, r0, r8, lsl r0
 52c:	00000434 	andeq	r0, r0, r4, lsr r4
 530:	80001ba8 	andhi	r1, r0, r8, lsr #23
 534:	00000044 	andeq	r0, r0, r4, asr #32
 538:	8b080e42 	blhi	203e48 <GUEST_OFFSET-0x7fdfc1b8>
 53c:	42018e02 	andmi	r8, r1, #2, 28
 540:	00040b0c 	andeq	r0, r4, ip, lsl #22

bmguest.axf:     file format elf32-littlearm


Disassembly of section .text:

80000000 <guest_start>:
80000000:	ea0005ce 	b	80001740 <common_guest_entry>

80000004 <main>:
80000004:	e92d4800 	push	{fp, lr}
80000008:	e28db004 	add	fp, sp, #4
8000000c:	e3010bec 	movw	r0, #7148	; 0x1bec
80000010:	e3480000 	movt	r0, #32768	; 0x8000
80000014:	eb000606 	bl	80001834 <uart_print>
80000018:	e3010bf8 	movw	r0, #7160	; 0x1bf8
8000001c:	e3480000 	movt	r0, #32768	; 0x8000
80000020:	eb000603 	bl	80001834 <uart_print>
80000024:	eafffffe 	b	80000024 <main+0x20>

80000028 <nrm_delay>:
80000028:	e52db004 	push	{fp}		; (str fp, [sp, #-4]!)
8000002c:	e28db000 	add	fp, sp, #0
80000030:	e24dd00c 	sub	sp, sp, #12
80000034:	e3a03000 	mov	r3, #0
80000038:	e50b3008 	str	r3, [fp, #-8]
8000003c:	e3a03000 	mov	r3, #0
80000040:	e50b3008 	str	r3, [fp, #-8]
80000044:	ea000002 	b	80000054 <nrm_delay+0x2c>
80000048:	e51b3008 	ldr	r3, [fp, #-8]
8000004c:	e2833001 	add	r3, r3, #1
80000050:	e50b3008 	str	r3, [fp, #-8]
80000054:	e51b2008 	ldr	r2, [fp, #-8]
80000058:	e30f3ffe 	movw	r3, #65534	; 0xfffe
8000005c:	e1520003 	cmp	r2, r3
80000060:	dafffff8 	ble	80000048 <nrm_delay+0x20>
80000064:	e28bd000 	add	sp, fp, #0
80000068:	e8bd0800 	ldmfd	sp!, {fp}
8000006c:	e12fff1e 	bx	lr

80000070 <nrm_loop>:
80000070:	e92d4800 	push	{fp, lr}
80000074:	e28db004 	add	fp, sp, #4
80000078:	e24dd008 	sub	sp, sp, #8
8000007c:	e3a03000 	mov	r3, #0
80000080:	e50b3008 	str	r3, [fp, #-8]
80000084:	eb0005e5 	bl	80001820 <uart_init>
80000088:	e3010c18 	movw	r0, #7192	; 0x1c18
8000008c:	e3480000 	movt	r0, #32768	; 0x8000
80000090:	eb0005e7 	bl	80001834 <uart_print>
80000094:	e3010c24 	movw	r0, #7204	; 0x1c24
80000098:	e3480000 	movt	r0, #32768	; 0x8000
8000009c:	eb0005e4 	bl	80001834 <uart_print>
800000a0:	eb0001d4 	bl	800007f8 <gic_init>
800000a4:	e3a00000 	mov	r0, #0
800000a8:	eb0002d9 	bl	80000c14 <vtimer_mask>
800000ac:	f1080080 	cpsie	i
800000b0:	e3a03000 	mov	r3, #0
800000b4:	e50b3008 	str	r3, [fp, #-8]
800000b8:	ea00002f 	b	8000017c <nrm_loop+0x10c>
800000bc:	e3010c18 	movw	r0, #7192	; 0x1c18
800000c0:	e3480000 	movt	r0, #32768	; 0x8000
800000c4:	eb0005da 	bl	80001834 <uart_print>
800000c8:	e3010c44 	movw	r0, #7236	; 0x1c44
800000cc:	e3480000 	movt	r0, #32768	; 0x8000
800000d0:	eb0005d7 	bl	80001834 <uart_print>
800000d4:	e51b3008 	ldr	r3, [fp, #-8]
800000d8:	e1a00003 	mov	r0, r3
800000dc:	eb0005f8 	bl	800018c4 <uart_print_hex32>
800000e0:	e3010c50 	movw	r0, #7248	; 0x1c50
800000e4:	e3480000 	movt	r0, #32768	; 0x8000
800000e8:	eb0005d1 	bl	80001834 <uart_print>
800000ec:	ebffffcd 	bl	80000028 <nrm_delay>
800000f0:	e51b3008 	ldr	r3, [fp, #-8]
800000f4:	e2033001 	and	r3, r3, #1
800000f8:	e3530000 	cmp	r3, #0
800000fc:	0a00000d 	beq	80000138 <nrm_loop+0xc8>
80000100:	e3010c18 	movw	r0, #7192	; 0x1c18
80000104:	e3480000 	movt	r0, #32768	; 0x8000
80000108:	eb0005c9 	bl	80001834 <uart_print>
8000010c:	e3010c54 	movw	r0, #7252	; 0x1c54
80000110:	e3480000 	movt	r0, #32768	; 0x8000
80000114:	eb0005c6 	bl	80001834 <uart_print>
80000118:	e14fff7e 	hvc	65534	; 0xfffe
8000011c:	e3010c18 	movw	r0, #7192	; 0x1c18
80000120:	e3480000 	movt	r0, #32768	; 0x8000
80000124:	eb0005c2 	bl	80001834 <uart_print>
80000128:	e3010c64 	movw	r0, #7268	; 0x1c64
8000012c:	e3480000 	movt	r0, #32768	; 0x8000
80000130:	eb0005bf 	bl	80001834 <uart_print>
80000134:	ea00000c 	b	8000016c <nrm_loop+0xfc>
80000138:	e3010c18 	movw	r0, #7192	; 0x1c18
8000013c:	e3480000 	movt	r0, #32768	; 0x8000
80000140:	eb0005bb 	bl	80001834 <uart_print>
80000144:	e3010c80 	movw	r0, #7296	; 0x1c80
80000148:	e3480000 	movt	r0, #32768	; 0x8000
8000014c:	eb0005b8 	bl	80001834 <uart_print>
80000150:	e14fff7d 	hvc	65533	; 0xfffd
80000154:	e3010c18 	movw	r0, #7192	; 0x1c18
80000158:	e3480000 	movt	r0, #32768	; 0x8000
8000015c:	eb0005b4 	bl	80001834 <uart_print>
80000160:	e3010c90 	movw	r0, #7312	; 0x1c90
80000164:	e3480000 	movt	r0, #32768	; 0x8000
80000168:	eb0005b1 	bl	80001834 <uart_print>
8000016c:	ebffffad 	bl	80000028 <nrm_delay>
80000170:	e51b3008 	ldr	r3, [fp, #-8]
80000174:	e2833001 	add	r3, r3, #1
80000178:	e50b3008 	str	r3, [fp, #-8]
8000017c:	e51b2008 	ldr	r2, [fp, #-8]
80000180:	e300312b 	movw	r3, #299	; 0x12b
80000184:	e1520003 	cmp	r2, r3
80000188:	daffffcb 	ble	800000bc <nrm_loop+0x4c>
8000018c:	e3010c18 	movw	r0, #7192	; 0x1c18
80000190:	e3480000 	movt	r0, #32768	; 0x8000
80000194:	eb0005a6 	bl	80001834 <uart_print>
80000198:	e3010cb0 	movw	r0, #7344	; 0x1cb0
8000019c:	e3480000 	movt	r0, #32768	; 0x8000
800001a0:	eb0005a3 	bl	80001834 <uart_print>
800001a4:	e3010cc8 	movw	r0, #7368	; 0x1cc8
800001a8:	e3480000 	movt	r0, #32768	; 0x8000
800001ac:	eb0005a0 	bl	80001834 <uart_print>
800001b0:	ebffff93 	bl	80000004 <main>
800001b4:	e24bd004 	sub	sp, fp, #4
800001b8:	e8bd8800 	pop	{fp, pc}

800001bc <_except_unhandled>:
800001bc:	e52db004 	push	{fp}		; (str fp, [sp, #-4]!)
800001c0:	e28db000 	add	fp, sp, #0
800001c4:	e24dd00c 	sub	sp, sp, #12
800001c8:	e50b0008 	str	r0, [fp, #-8]
800001cc:	e28bd000 	add	sp, fp, #0
800001d0:	e8bd0800 	ldmfd	sp!, {fp}
800001d4:	e12fff1e 	bx	lr

800001d8 <_except_svc>:
800001d8:	e52db004 	push	{fp}		; (str fp, [sp, #-4]!)
800001dc:	e28db000 	add	fp, sp, #0
800001e0:	e24dd00c 	sub	sp, sp, #12
800001e4:	e50b0008 	str	r0, [fp, #-8]
800001e8:	e28bd000 	add	sp, fp, #0
800001ec:	e8bd0800 	ldmfd	sp!, {fp}
800001f0:	e12fff1e 	bx	lr

800001f4 <_except_irq>:
800001f4:	e92d4800 	push	{fp, lr}
800001f8:	e28db004 	add	fp, sp, #4
800001fc:	e24dd008 	sub	sp, sp, #8
80000200:	e50b0008 	str	r0, [fp, #-8]
80000204:	e3a00000 	mov	r0, #0
80000208:	e51b1008 	ldr	r1, [fp, #-8]
8000020c:	eb0001cc 	bl	80000944 <gic_interrupt>
80000210:	e24bd004 	sub	sp, fp, #4
80000214:	e8bd8800 	pop	{fp, pc}

80000218 <smp_processor_id>:
80000218:	e92d0810 	push	{r4, fp}
8000021c:	e28db004 	add	fp, sp, #4
80000220:	e24dd008 	sub	sp, sp, #8
80000224:	ee104fb0 	mrc	15, 0, r4, cr0, cr0, {5}
80000228:	e50b4008 	str	r4, [fp, #-8]
8000022c:	e51b3008 	ldr	r3, [fp, #-8]
80000230:	e6ef3073 	uxtb	r3, r3
80000234:	e1a00003 	mov	r0, r3
80000238:	e24bd004 	sub	sp, fp, #4
8000023c:	e8bd0810 	pop	{r4, fp}
80000240:	e12fff1e 	bx	lr

80000244 <gic_test_vdev_access>:
80000244:	e92d4800 	push	{fp, lr}
80000248:	e28db004 	add	fp, sp, #4
8000024c:	e24dd008 	sub	sp, sp, #8
80000250:	e3013e6c 	movw	r3, #7788	; 0x1e6c
80000254:	e3483000 	movt	r3, #32768	; 0x8000
80000258:	e5933004 	ldr	r3, [r3, #4]
8000025c:	e2833f41 	add	r3, r3, #260	; 0x104
80000260:	e3a02002 	mov	r2, #2
80000264:	e5832000 	str	r2, [r3]
80000268:	e3013e6c 	movw	r3, #7788	; 0x1e6c
8000026c:	e3483000 	movt	r3, #32768	; 0x8000
80000270:	e5933004 	ldr	r3, [r3, #4]
80000274:	e2833f61 	add	r3, r3, #388	; 0x184
80000278:	e3a02002 	mov	r2, #2
8000027c:	e5832000 	str	r2, [r3]
80000280:	e3013e6c 	movw	r3, #7788	; 0x1e6c
80000284:	e3483000 	movt	r3, #32768	; 0x8000
80000288:	e5933004 	ldr	r3, [r3, #4]
8000028c:	e2833c01 	add	r3, r3, #256	; 0x100
80000290:	e3a02002 	mov	r2, #2
80000294:	e5832000 	str	r2, [r3]
80000298:	e3013e6c 	movw	r3, #7788	; 0x1e6c
8000029c:	e3483000 	movt	r3, #32768	; 0x8000
800002a0:	e5933004 	ldr	r3, [r3, #4]
800002a4:	e2833d06 	add	r3, r3, #384	; 0x180
800002a8:	e3a02002 	mov	r2, #2
800002ac:	e5832000 	str	r2, [r3]
800002b0:	e3013e6c 	movw	r3, #7788	; 0x1e6c
800002b4:	e3483000 	movt	r3, #32768	; 0x8000
800002b8:	e5933004 	ldr	r3, [r3, #4]
800002bc:	e2833c01 	add	r3, r3, #256	; 0x100
800002c0:	e3a02102 	mov	r2, #-2147483648	; 0x80000000
800002c4:	e5832000 	str	r2, [r3]
800002c8:	e3013e6c 	movw	r3, #7788	; 0x1e6c
800002cc:	e3483000 	movt	r3, #32768	; 0x8000
800002d0:	e5933004 	ldr	r3, [r3, #4]
800002d4:	e2833d06 	add	r3, r3, #384	; 0x180
800002d8:	e3a02102 	mov	r2, #-2147483648	; 0x80000000
800002dc:	e5832000 	str	r2, [r3]
800002e0:	e3013e6c 	movw	r3, #7788	; 0x1e6c
800002e4:	e3483000 	movt	r3, #32768	; 0x8000
800002e8:	e5933004 	ldr	r3, [r3, #4]
800002ec:	e2833c01 	add	r3, r3, #256	; 0x100
800002f0:	e50b3008 	str	r3, [fp, #-8]
800002f4:	e51b3008 	ldr	r3, [fp, #-8]
800002f8:	e2833002 	add	r3, r3, #2
800002fc:	e3a0200f 	mov	r2, #15
80000300:	e5c32000 	strb	r2, [r3]
80000304:	e3013e6c 	movw	r3, #7788	; 0x1e6c
80000308:	e3483000 	movt	r3, #32768	; 0x8000
8000030c:	e5933004 	ldr	r3, [r3, #4]
80000310:	e2833c01 	add	r3, r3, #256	; 0x100
80000314:	e5933000 	ldr	r3, [r3]
80000318:	e1a00003 	mov	r0, r3
8000031c:	eb000568 	bl	800018c4 <uart_print_hex32>
80000320:	e3010d00 	movw	r0, #7424	; 0x1d00
80000324:	e3480000 	movt	r0, #32768	; 0x8000
80000328:	eb000541 	bl	80001834 <uart_print>
8000032c:	e3013e6c 	movw	r3, #7788	; 0x1e6c
80000330:	e3483000 	movt	r3, #32768	; 0x8000
80000334:	e5933004 	ldr	r3, [r3, #4]
80000338:	e2833d06 	add	r3, r3, #384	; 0x180
8000033c:	e50b3008 	str	r3, [fp, #-8]
80000340:	e51b3008 	ldr	r3, [fp, #-8]
80000344:	e2833002 	add	r3, r3, #2
80000348:	e3a0200f 	mov	r2, #15
8000034c:	e5c32000 	strb	r2, [r3]
80000350:	e3013e6c 	movw	r3, #7788	; 0x1e6c
80000354:	e3483000 	movt	r3, #32768	; 0x8000
80000358:	e5933004 	ldr	r3, [r3, #4]
8000035c:	e2833c01 	add	r3, r3, #256	; 0x100
80000360:	e5933000 	ldr	r3, [r3]
80000364:	e1a00003 	mov	r0, r3
80000368:	eb000555 	bl	800018c4 <uart_print_hex32>
8000036c:	e3010d00 	movw	r0, #7424	; 0x1d00
80000370:	e3480000 	movt	r0, #32768	; 0x8000
80000374:	eb00052e 	bl	80001834 <uart_print>
80000378:	e24bd004 	sub	sp, fp, #4
8000037c:	e8bd8800 	pop	{fp, pc}

80000380 <gic_dump_registers>:
80000380:	e92d4810 	push	{r4, fp, lr}
80000384:	e28db008 	add	fp, sp, #8
80000388:	e24dd00c 	sub	sp, sp, #12
8000038c:	ee104f10 	mrc	15, 0, r4, cr0, cr0, {0}
80000390:	e50b4010 	str	r4, [fp, #-16]
80000394:	e51b3010 	ldr	r3, [fp, #-16]
80000398:	e50b3014 	str	r3, [fp, #-20]
8000039c:	e3010d04 	movw	r0, #7428	; 0x1d04
800003a0:	e3480000 	movt	r0, #32768	; 0x8000
800003a4:	eb000522 	bl	80001834 <uart_print>
800003a8:	e51b0014 	ldr	r0, [fp, #-20]
800003ac:	eb000544 	bl	800018c4 <uart_print_hex32>
800003b0:	e3010d00 	movw	r0, #7424	; 0x1d00
800003b4:	e3480000 	movt	r0, #32768	; 0x8000
800003b8:	eb00051d 	bl	80001834 <uart_print>
800003bc:	e51b2014 	ldr	r2, [fp, #-20]
800003c0:	e30f3ff0 	movw	r3, #65520	; 0xfff0
800003c4:	e0023003 	and	r3, r2, r3
800003c8:	e30c20f0 	movw	r2, #49392	; 0xc0f0
800003cc:	e1530002 	cmp	r3, r2
800003d0:	1a00007b 	bne	800005c4 <gic_dump_registers+0x244>
800003d4:	e3010d0c 	movw	r0, #7436	; 0x1d0c
800003d8:	e3480000 	movt	r0, #32768	; 0x8000
800003dc:	eb000514 	bl	80001834 <uart_print>
800003e0:	e3013e6c 	movw	r3, #7788	; 0x1e6c
800003e4:	e3483000 	movt	r3, #32768	; 0x8000
800003e8:	e5933000 	ldr	r3, [r3]
800003ec:	e1a00003 	mov	r0, r3
800003f0:	eb000533 	bl	800018c4 <uart_print_hex32>
800003f4:	e3010d00 	movw	r0, #7424	; 0x1d00
800003f8:	e3480000 	movt	r0, #32768	; 0x8000
800003fc:	eb00050c 	bl	80001834 <uart_print>
80000400:	e3010d1c 	movw	r0, #7452	; 0x1d1c
80000404:	e3480000 	movt	r0, #32768	; 0x8000
80000408:	eb000509 	bl	80001834 <uart_print>
8000040c:	e3013e6c 	movw	r3, #7788	; 0x1e6c
80000410:	e3483000 	movt	r3, #32768	; 0x8000
80000414:	e5933004 	ldr	r3, [r3, #4]
80000418:	e1a00003 	mov	r0, r3
8000041c:	eb000528 	bl	800018c4 <uart_print_hex32>
80000420:	e3010d00 	movw	r0, #7424	; 0x1d00
80000424:	e3480000 	movt	r0, #32768	; 0x8000
80000428:	eb000501 	bl	80001834 <uart_print>
8000042c:	e3010d28 	movw	r0, #7464	; 0x1d28
80000430:	e3480000 	movt	r0, #32768	; 0x8000
80000434:	eb0004fe 	bl	80001834 <uart_print>
80000438:	e3013e6c 	movw	r3, #7788	; 0x1e6c
8000043c:	e3483000 	movt	r3, #32768	; 0x8000
80000440:	e5933004 	ldr	r3, [r3, #4]
80000444:	e2833004 	add	r3, r3, #4
80000448:	e5933000 	ldr	r3, [r3]
8000044c:	e1a00003 	mov	r0, r3
80000450:	eb00051b 	bl	800018c4 <uart_print_hex32>
80000454:	e3010d00 	movw	r0, #7424	; 0x1d00
80000458:	e3480000 	movt	r0, #32768	; 0x8000
8000045c:	eb0004f4 	bl	80001834 <uart_print>
80000460:	e3010d34 	movw	r0, #7476	; 0x1d34
80000464:	e3480000 	movt	r0, #32768	; 0x8000
80000468:	eb0004f1 	bl	80001834 <uart_print>
8000046c:	e3013e6c 	movw	r3, #7788	; 0x1e6c
80000470:	e3483000 	movt	r3, #32768	; 0x8000
80000474:	e5933008 	ldr	r3, [r3, #8]
80000478:	e1a00003 	mov	r0, r3
8000047c:	eb000510 	bl	800018c4 <uart_print_hex32>
80000480:	e3010d00 	movw	r0, #7424	; 0x1d00
80000484:	e3480000 	movt	r0, #32768	; 0x8000
80000488:	eb0004e9 	bl	80001834 <uart_print>
8000048c:	e3010d40 	movw	r0, #7488	; 0x1d40
80000490:	e3480000 	movt	r0, #32768	; 0x8000
80000494:	eb0004e6 	bl	80001834 <uart_print>
80000498:	e3013e6c 	movw	r3, #7788	; 0x1e6c
8000049c:	e3483000 	movt	r3, #32768	; 0x8000
800004a0:	e5933008 	ldr	r3, [r3, #8]
800004a4:	e5933000 	ldr	r3, [r3]
800004a8:	e1a00003 	mov	r0, r3
800004ac:	eb000504 	bl	800018c4 <uart_print_hex32>
800004b0:	e3010d00 	movw	r0, #7424	; 0x1d00
800004b4:	e3480000 	movt	r0, #32768	; 0x8000
800004b8:	eb0004dd 	bl	80001834 <uart_print>
800004bc:	e3010d4c 	movw	r0, #7500	; 0x1d4c
800004c0:	e3480000 	movt	r0, #32768	; 0x8000
800004c4:	eb0004da 	bl	80001834 <uart_print>
800004c8:	e3013e6c 	movw	r3, #7788	; 0x1e6c
800004cc:	e3483000 	movt	r3, #32768	; 0x8000
800004d0:	e5933008 	ldr	r3, [r3, #8]
800004d4:	e2833004 	add	r3, r3, #4
800004d8:	e5933000 	ldr	r3, [r3]
800004dc:	e1a00003 	mov	r0, r3
800004e0:	eb0004f7 	bl	800018c4 <uart_print_hex32>
800004e4:	e3010d00 	movw	r0, #7424	; 0x1d00
800004e8:	e3480000 	movt	r0, #32768	; 0x8000
800004ec:	eb0004d0 	bl	80001834 <uart_print>
800004f0:	e3010d58 	movw	r0, #7512	; 0x1d58
800004f4:	e3480000 	movt	r0, #32768	; 0x8000
800004f8:	eb0004cd 	bl	80001834 <uart_print>
800004fc:	e3013e6c 	movw	r3, #7788	; 0x1e6c
80000500:	e3483000 	movt	r3, #32768	; 0x8000
80000504:	e5933008 	ldr	r3, [r3, #8]
80000508:	e2833008 	add	r3, r3, #8
8000050c:	e5933000 	ldr	r3, [r3]
80000510:	e1a00003 	mov	r0, r3
80000514:	eb0004ea 	bl	800018c4 <uart_print_hex32>
80000518:	e3010d00 	movw	r0, #7424	; 0x1d00
8000051c:	e3480000 	movt	r0, #32768	; 0x8000
80000520:	eb0004c3 	bl	80001834 <uart_print>
80000524:	e3010d64 	movw	r0, #7524	; 0x1d64
80000528:	e3480000 	movt	r0, #32768	; 0x8000
8000052c:	eb0004c0 	bl	80001834 <uart_print>
80000530:	e3013e6c 	movw	r3, #7788	; 0x1e6c
80000534:	e3483000 	movt	r3, #32768	; 0x8000
80000538:	e5933008 	ldr	r3, [r3, #8]
8000053c:	e2833014 	add	r3, r3, #20
80000540:	e5933000 	ldr	r3, [r3]
80000544:	e1a00003 	mov	r0, r3
80000548:	eb0004dd 	bl	800018c4 <uart_print_hex32>
8000054c:	e3010d00 	movw	r0, #7424	; 0x1d00
80000550:	e3480000 	movt	r0, #32768	; 0x8000
80000554:	eb0004b6 	bl	80001834 <uart_print>
80000558:	e3010d70 	movw	r0, #7536	; 0x1d70
8000055c:	e3480000 	movt	r0, #32768	; 0x8000
80000560:	eb0004b3 	bl	80001834 <uart_print>
80000564:	e3013e6c 	movw	r3, #7788	; 0x1e6c
80000568:	e3483000 	movt	r3, #32768	; 0x8000
8000056c:	e5933008 	ldr	r3, [r3, #8]
80000570:	e2833018 	add	r3, r3, #24
80000574:	e5933000 	ldr	r3, [r3]
80000578:	e1a00003 	mov	r0, r3
8000057c:	eb0004d0 	bl	800018c4 <uart_print_hex32>
80000580:	e3010d00 	movw	r0, #7424	; 0x1d00
80000584:	e3480000 	movt	r0, #32768	; 0x8000
80000588:	eb0004a9 	bl	80001834 <uart_print>
8000058c:	e3010d7c 	movw	r0, #7548	; 0x1d7c
80000590:	e3480000 	movt	r0, #32768	; 0x8000
80000594:	eb0004a6 	bl	80001834 <uart_print>
80000598:	e3013e6c 	movw	r3, #7788	; 0x1e6c
8000059c:	e3483000 	movt	r3, #32768	; 0x8000
800005a0:	e5933008 	ldr	r3, [r3, #8]
800005a4:	e28330fc 	add	r3, r3, #252	; 0xfc
800005a8:	e5933000 	ldr	r3, [r3]
800005ac:	e1a00003 	mov	r0, r3
800005b0:	eb0004c3 	bl	800018c4 <uart_print_hex32>
800005b4:	e3010d00 	movw	r0, #7424	; 0x1d00
800005b8:	e3480000 	movt	r0, #32768	; 0x8000
800005bc:	eb00049c 	bl	80001834 <uart_print>
800005c0:	ebffff1f 	bl	80000244 <gic_test_vdev_access>
800005c4:	e24bd008 	sub	sp, fp, #8
800005c8:	e8bd8810 	pop	{r4, fp, pc}

800005cc <gic_init_baseaddr>:
800005cc:	e92d4810 	push	{r4, fp, lr}
800005d0:	e28db008 	add	fp, sp, #8
800005d4:	e24dd01c 	sub	sp, sp, #28
800005d8:	e50b0020 	str	r0, [fp, #-32]
800005dc:	e3e03000 	mvn	r3, #0
800005e0:	e50b3010 	str	r3, [fp, #-16]
800005e4:	ee104f10 	mrc	15, 0, r4, cr0, cr0, {0}
800005e8:	e50b4014 	str	r4, [fp, #-20]
800005ec:	e51b3014 	ldr	r3, [fp, #-20]
800005f0:	e50b3018 	str	r3, [fp, #-24]
800005f4:	e3010d04 	movw	r0, #7428	; 0x1d04
800005f8:	e3480000 	movt	r0, #32768	; 0x8000
800005fc:	eb00048c 	bl	80001834 <uart_print>
80000600:	e51b0018 	ldr	r0, [fp, #-24]
80000604:	eb0004ae 	bl	800018c4 <uart_print_hex32>
80000608:	e3010d00 	movw	r0, #7424	; 0x1d00
8000060c:	e3480000 	movt	r0, #32768	; 0x8000
80000610:	eb000487 	bl	80001834 <uart_print>
80000614:	e51b2018 	ldr	r2, [fp, #-24]
80000618:	e30f3ff0 	movw	r3, #65520	; 0xfff0
8000061c:	e0023003 	and	r3, r2, r3
80000620:	e30c20f0 	movw	r2, #49392	; 0xc0f0
80000624:	e1530002 	cmp	r3, r2
80000628:	1a000016 	bne	80000688 <gic_init_baseaddr+0xbc>
8000062c:	e51b2020 	ldr	r2, [fp, #-32]
80000630:	e3013e6c 	movw	r3, #7788	; 0x1e6c
80000634:	e3483000 	movt	r3, #32768	; 0x8000
80000638:	e5832000 	str	r2, [r3]
8000063c:	e3013e6c 	movw	r3, #7788	; 0x1e6c
80000640:	e3483000 	movt	r3, #32768	; 0x8000
80000644:	e5933000 	ldr	r3, [r3]
80000648:	e2833a01 	add	r3, r3, #4096	; 0x1000
8000064c:	e1a02003 	mov	r2, r3
80000650:	e3013e6c 	movw	r3, #7788	; 0x1e6c
80000654:	e3483000 	movt	r3, #32768	; 0x8000
80000658:	e5832004 	str	r2, [r3, #4]
8000065c:	e3013e6c 	movw	r3, #7788	; 0x1e6c
80000660:	e3483000 	movt	r3, #32768	; 0x8000
80000664:	e5933000 	ldr	r3, [r3]
80000668:	e2833a02 	add	r3, r3, #8192	; 0x2000
8000066c:	e1a02003 	mov	r2, r3
80000670:	e3013e6c 	movw	r3, #7788	; 0x1e6c
80000674:	e3483000 	movt	r3, #32768	; 0x8000
80000678:	e5832008 	str	r2, [r3, #8]
8000067c:	e3a03000 	mov	r3, #0
80000680:	e50b3010 	str	r3, [fp, #-16]
80000684:	ea00000f 	b	800006c8 <gic_init_baseaddr+0xfc>
80000688:	e3010d88 	movw	r0, #7560	; 0x1d88
8000068c:	e3480000 	movt	r0, #32768	; 0x8000
80000690:	eb000467 	bl	80001834 <uart_print>
80000694:	e3010d9c 	movw	r0, #7580	; 0x1d9c
80000698:	e3480000 	movt	r0, #32768	; 0x8000
8000069c:	eb000464 	bl	80001834 <uart_print>
800006a0:	e51b2018 	ldr	r2, [fp, #-24]
800006a4:	e30f3ff0 	movw	r3, #65520	; 0xfff0
800006a8:	e0023003 	and	r3, r2, r3
800006ac:	e1a00003 	mov	r0, r3
800006b0:	eb000483 	bl	800018c4 <uart_print_hex32>
800006b4:	e3010d00 	movw	r0, #7424	; 0x1d00
800006b8:	e3480000 	movt	r0, #32768	; 0x8000
800006bc:	eb00045c 	bl	80001834 <uart_print>
800006c0:	e3e03001 	mvn	r3, #1
800006c4:	e50b3010 	str	r3, [fp, #-16]
800006c8:	e51b3010 	ldr	r3, [fp, #-16]
800006cc:	e1a00003 	mov	r0, r3
800006d0:	e24bd008 	sub	sp, fp, #8
800006d4:	e8bd8810 	pop	{r4, fp, pc}

800006d8 <gic_enable_irq>:
800006d8:	e52db004 	push	{fp}		; (str fp, [sp, #-4]!)
800006dc:	e28db000 	add	fp, sp, #0
800006e0:	e24dd00c 	sub	sp, sp, #12
800006e4:	e50b0008 	str	r0, [fp, #-8]
800006e8:	e3013e6c 	movw	r3, #7788	; 0x1e6c
800006ec:	e3483000 	movt	r3, #32768	; 0x8000
800006f0:	e5932004 	ldr	r2, [r3, #4]
800006f4:	e51b3008 	ldr	r3, [fp, #-8]
800006f8:	e1a032a3 	lsr	r3, r3, #5
800006fc:	e2833040 	add	r3, r3, #64	; 0x40
80000700:	e1a03103 	lsl	r3, r3, #2
80000704:	e0823003 	add	r3, r2, r3
80000708:	e51b2008 	ldr	r2, [fp, #-8]
8000070c:	e202201f 	and	r2, r2, #31
80000710:	e3a01001 	mov	r1, #1
80000714:	e1a02211 	lsl	r2, r1, r2
80000718:	e5832000 	str	r2, [r3]
8000071c:	e3a03000 	mov	r3, #0
80000720:	e1a00003 	mov	r0, r3
80000724:	e28bd000 	add	sp, fp, #0
80000728:	e8bd0800 	ldmfd	sp!, {fp}
8000072c:	e12fff1e 	bx	lr

80000730 <gic_disable_irq>:
80000730:	e52db004 	push	{fp}		; (str fp, [sp, #-4]!)
80000734:	e28db000 	add	fp, sp, #0
80000738:	e24dd00c 	sub	sp, sp, #12
8000073c:	e50b0008 	str	r0, [fp, #-8]
80000740:	e3013e6c 	movw	r3, #7788	; 0x1e6c
80000744:	e3483000 	movt	r3, #32768	; 0x8000
80000748:	e5932004 	ldr	r2, [r3, #4]
8000074c:	e51b3008 	ldr	r3, [fp, #-8]
80000750:	e1a032a3 	lsr	r3, r3, #5
80000754:	e2833060 	add	r3, r3, #96	; 0x60
80000758:	e1a03103 	lsl	r3, r3, #2
8000075c:	e0823003 	add	r3, r2, r3
80000760:	e51b2008 	ldr	r2, [fp, #-8]
80000764:	e202201f 	and	r2, r2, #31
80000768:	e3a01001 	mov	r1, #1
8000076c:	e1a02211 	lsl	r2, r1, r2
80000770:	e5832000 	str	r2, [r3]
80000774:	e3a03000 	mov	r3, #0
80000778:	e1a00003 	mov	r0, r3
8000077c:	e28bd000 	add	sp, fp, #0
80000780:	e8bd0800 	ldmfd	sp!, {fp}
80000784:	e12fff1e 	bx	lr

80000788 <gic_set_irq_handler>:
80000788:	e52db004 	push	{fp}		; (str fp, [sp, #-4]!)
8000078c:	e28db000 	add	fp, sp, #0
80000790:	e24dd01c 	sub	sp, sp, #28
80000794:	e50b0010 	str	r0, [fp, #-16]
80000798:	e50b1014 	str	r1, [fp, #-20]
8000079c:	e50b2018 	str	r2, [fp, #-24]
800007a0:	e3e03002 	mvn	r3, #2
800007a4:	e50b3008 	str	r3, [fp, #-8]
800007a8:	e51b3010 	ldr	r3, [fp, #-16]
800007ac:	e3530065 	cmp	r3, #101	; 0x65
800007b0:	ca00000b 	bgt	800007e4 <gic_set_irq_handler+0x5c>
800007b4:	e3013e6c 	movw	r3, #7788	; 0x1e6c
800007b8:	e3483000 	movt	r3, #32768	; 0x8000
800007bc:	e51b2010 	ldr	r2, [fp, #-16]
800007c0:	e2821004 	add	r1, r2, #4
800007c4:	e3a02004 	mov	r2, #4
800007c8:	e1a01101 	lsl	r1, r1, #2
800007cc:	e0833001 	add	r3, r3, r1
800007d0:	e0833002 	add	r3, r3, r2
800007d4:	e51b2014 	ldr	r2, [fp, #-20]
800007d8:	e5832000 	str	r2, [r3]
800007dc:	e3a03000 	mov	r3, #0
800007e0:	e50b3008 	str	r3, [fp, #-8]
800007e4:	e51b3008 	ldr	r3, [fp, #-8]
800007e8:	e1a00003 	mov	r0, r3
800007ec:	e28bd000 	add	sp, fp, #0
800007f0:	e8bd0800 	ldmfd	sp!, {fp}
800007f4:	e12fff1e 	bx	lr

800007f8 <gic_init>:
800007f8:	e92d4800 	push	{fp, lr}
800007fc:	e28db004 	add	fp, sp, #4
80000800:	e24dd008 	sub	sp, sp, #8
80000804:	e3e03000 	mvn	r3, #0
80000808:	e50b300c 	str	r3, [fp, #-12]
8000080c:	e3a03000 	mov	r3, #0
80000810:	e50b3008 	str	r3, [fp, #-8]
80000814:	ea00000c 	b	8000084c <gic_init+0x54>
80000818:	e3013e6c 	movw	r3, #7788	; 0x1e6c
8000081c:	e3483000 	movt	r3, #32768	; 0x8000
80000820:	e51b2008 	ldr	r2, [fp, #-8]
80000824:	e2821004 	add	r1, r2, #4
80000828:	e3a02004 	mov	r2, #4
8000082c:	e1a01101 	lsl	r1, r1, #2
80000830:	e0833001 	add	r3, r3, r1
80000834:	e0833002 	add	r3, r3, r2
80000838:	e3a02000 	mov	r2, #0
8000083c:	e5832000 	str	r2, [r3]
80000840:	e51b3008 	ldr	r3, [fp, #-8]
80000844:	e2833001 	add	r3, r3, #1
80000848:	e50b3008 	str	r3, [fp, #-8]
8000084c:	e51b3008 	ldr	r3, [fp, #-8]
80000850:	e3530065 	cmp	r3, #101	; 0x65
80000854:	daffffef 	ble	80000818 <gic_init+0x20>
80000858:	e3a0030b 	mov	r0, #738197504	; 0x2c000000
8000085c:	ebffff5a 	bl	800005cc <gic_init_baseaddr>
80000860:	e50b000c 	str	r0, [fp, #-12]
80000864:	e3013e6c 	movw	r3, #7788	; 0x1e6c
80000868:	e3483000 	movt	r3, #32768	; 0x8000
8000086c:	e5932008 	ldr	r2, [r3, #8]
80000870:	e3013e6c 	movw	r3, #7788	; 0x1e6c
80000874:	e3483000 	movt	r3, #32768	; 0x8000
80000878:	e5933008 	ldr	r3, [r3, #8]
8000087c:	e5933000 	ldr	r3, [r3]
80000880:	e3833e21 	orr	r3, r3, #528	; 0x210
80000884:	e3833003 	orr	r3, r3, #3
80000888:	e5823000 	str	r3, [r2]
8000088c:	e3013e6c 	movw	r3, #7788	; 0x1e6c
80000890:	e3483000 	movt	r3, #32768	; 0x8000
80000894:	e5933008 	ldr	r3, [r3, #8]
80000898:	e2833004 	add	r3, r3, #4
8000089c:	e3a020ff 	mov	r2, #255	; 0xff
800008a0:	e5832000 	str	r2, [r3]
800008a4:	e51b300c 	ldr	r3, [fp, #-12]
800008a8:	e3530000 	cmp	r3, #0
800008ac:	1a000000 	bne	800008b4 <gic_init+0xbc>
800008b0:	ebfffeb2 	bl	80000380 <gic_dump_registers>
800008b4:	e3013e6c 	movw	r3, #7788	; 0x1e6c
800008b8:	e3483000 	movt	r3, #32768	; 0x8000
800008bc:	e30023fe 	movw	r2, #1022	; 0x3fe
800008c0:	e583200c 	str	r2, [r3, #12]
800008c4:	e3a03000 	mov	r3, #0
800008c8:	e50b300c 	str	r3, [fp, #-12]
800008cc:	e51b300c 	ldr	r3, [fp, #-12]
800008d0:	e3530000 	cmp	r3, #0
800008d4:	1a000004 	bne	800008ec <gic_init+0xf4>
800008d8:	e3013e6c 	movw	r3, #7788	; 0x1e6c
800008dc:	e3483000 	movt	r3, #32768	; 0x8000
800008e0:	e30e2ad7 	movw	r2, #60119	; 0xead7
800008e4:	e3452108 	movt	r2, #20744	; 0x5108
800008e8:	e58321ac 	str	r2, [r3, #428]	; 0x1ac
800008ec:	e3a03000 	mov	r3, #0
800008f0:	e50b3008 	str	r3, [fp, #-8]
800008f4:	ea00000b 	b	80000928 <gic_init+0x130>
800008f8:	e3013e6c 	movw	r3, #7788	; 0x1e6c
800008fc:	e3483000 	movt	r3, #32768	; 0x8000
80000900:	e5932004 	ldr	r2, [r3, #4]
80000904:	e51b3008 	ldr	r3, [fp, #-8]
80000908:	e2833060 	add	r3, r3, #96	; 0x60
8000090c:	e1a03103 	lsl	r3, r3, #2
80000910:	e0823003 	add	r3, r2, r3
80000914:	e3e02000 	mvn	r2, #0
80000918:	e5832000 	str	r2, [r3]
8000091c:	e51b3008 	ldr	r3, [fp, #-8]
80000920:	e2833001 	add	r3, r3, #1
80000924:	e50b3008 	str	r3, [fp, #-8]
80000928:	e51b3008 	ldr	r3, [fp, #-8]
8000092c:	e3530003 	cmp	r3, #3
80000930:	dafffff0 	ble	800008f8 <gic_init+0x100>
80000934:	e51b300c 	ldr	r3, [fp, #-12]
80000938:	e1a00003 	mov	r0, r3
8000093c:	e24bd004 	sub	sp, fp, #4
80000940:	e8bd8800 	pop	{fp, pc}

80000944 <gic_interrupt>:
80000944:	e92d4800 	push	{fp, lr}
80000948:	e28db004 	add	fp, sp, #4
8000094c:	e24dd018 	sub	sp, sp, #24
80000950:	e50b0018 	str	r0, [fp, #-24]
80000954:	e50b101c 	str	r1, [fp, #-28]
80000958:	e51b301c 	ldr	r3, [fp, #-28]
8000095c:	e50b3008 	str	r3, [fp, #-8]
80000960:	ebfffe2c 	bl	80000218 <smp_processor_id>
80000964:	e50b000c 	str	r0, [fp, #-12]
80000968:	e3013e6c 	movw	r3, #7788	; 0x1e6c
8000096c:	e3483000 	movt	r3, #32768	; 0x8000
80000970:	e5933008 	ldr	r3, [r3, #8]
80000974:	e593300c 	ldr	r3, [r3, #12]
80000978:	e50b3010 	str	r3, [fp, #-16]
8000097c:	e51b3010 	ldr	r3, [fp, #-16]
80000980:	e7e93053 	ubfx	r3, r3, #0, #10
80000984:	e50b3014 	str	r3, [fp, #-20]
80000988:	e3013e6c 	movw	r3, #7788	; 0x1e6c
8000098c:	e3483000 	movt	r3, #32768	; 0x8000
80000990:	e593200c 	ldr	r2, [r3, #12]
80000994:	e51b3014 	ldr	r3, [fp, #-20]
80000998:	e1520003 	cmp	r2, r3
8000099c:	9a00003d 	bls	80000a98 <gic_interrupt+0x154>
800009a0:	e51b3014 	ldr	r3, [fp, #-20]
800009a4:	e3530000 	cmp	r3, #0
800009a8:	1a000015 	bne	80000a04 <gic_interrupt+0xc0>
800009ac:	e3010d1c 	movw	r0, #7452	; 0x1d1c
800009b0:	e3480000 	movt	r0, #32768	; 0x8000
800009b4:	eb00039e 	bl	80001834 <uart_print>
800009b8:	e3013e6c 	movw	r3, #7788	; 0x1e6c
800009bc:	e3483000 	movt	r3, #32768	; 0x8000
800009c0:	e5933004 	ldr	r3, [r3, #4]
800009c4:	e1a00003 	mov	r0, r3
800009c8:	eb0003bd 	bl	800018c4 <uart_print_hex32>
800009cc:	e3010d00 	movw	r0, #7424	; 0x1d00
800009d0:	e3480000 	movt	r0, #32768	; 0x8000
800009d4:	eb000396 	bl	80001834 <uart_print>
800009d8:	e3010d34 	movw	r0, #7476	; 0x1d34
800009dc:	e3480000 	movt	r0, #32768	; 0x8000
800009e0:	eb000393 	bl	80001834 <uart_print>
800009e4:	e3013e6c 	movw	r3, #7788	; 0x1e6c
800009e8:	e3483000 	movt	r3, #32768	; 0x8000
800009ec:	e5933008 	ldr	r3, [r3, #8]
800009f0:	e1a00003 	mov	r0, r3
800009f4:	eb0003b2 	bl	800018c4 <uart_print_hex32>
800009f8:	e3010d00 	movw	r0, #7424	; 0x1d00
800009fc:	e3480000 	movt	r0, #32768	; 0x8000
80000a00:	eb00038b 	bl	80001834 <uart_print>
80000a04:	e3013e6c 	movw	r3, #7788	; 0x1e6c
80000a08:	e3483000 	movt	r3, #32768	; 0x8000
80000a0c:	e51b2014 	ldr	r2, [fp, #-20]
80000a10:	e2821004 	add	r1, r2, #4
80000a14:	e3a02004 	mov	r2, #4
80000a18:	e1a01101 	lsl	r1, r1, #2
80000a1c:	e0833001 	add	r3, r3, r1
80000a20:	e0833002 	add	r3, r3, r2
80000a24:	e5933000 	ldr	r3, [r3]
80000a28:	e3530000 	cmp	r3, #0
80000a2c:	0a00000d 	beq	80000a68 <gic_interrupt+0x124>
80000a30:	e3013e6c 	movw	r3, #7788	; 0x1e6c
80000a34:	e3483000 	movt	r3, #32768	; 0x8000
80000a38:	e51b2014 	ldr	r2, [fp, #-20]
80000a3c:	e2821004 	add	r1, r2, #4
80000a40:	e3a02004 	mov	r2, #4
80000a44:	e1a01101 	lsl	r1, r1, #2
80000a48:	e0833001 	add	r3, r3, r1
80000a4c:	e0833002 	add	r3, r3, r2
80000a50:	e5933000 	ldr	r3, [r3]
80000a54:	e51b2014 	ldr	r2, [fp, #-20]
80000a58:	e1a00002 	mov	r0, r2
80000a5c:	e51b1008 	ldr	r1, [fp, #-8]
80000a60:	e3a02000 	mov	r2, #0
80000a64:	e12fff33 	blx	r3
80000a68:	e3013e6c 	movw	r3, #7788	; 0x1e6c
80000a6c:	e3483000 	movt	r3, #32768	; 0x8000
80000a70:	e5933008 	ldr	r3, [r3, #8]
80000a74:	e2833010 	add	r3, r3, #16
80000a78:	e51b2014 	ldr	r2, [fp, #-20]
80000a7c:	e5832000 	str	r2, [r3]
80000a80:	e3013e6c 	movw	r3, #7788	; 0x1e6c
80000a84:	e3483000 	movt	r3, #32768	; 0x8000
80000a88:	e5933008 	ldr	r3, [r3, #8]
80000a8c:	e2833a01 	add	r3, r3, #4096	; 0x1000
80000a90:	e51b2014 	ldr	r2, [fp, #-20]
80000a94:	e5832000 	str	r2, [r3]
80000a98:	e24bd004 	sub	sp, fp, #4
80000a9c:	e8bd8800 	pop	{fp, pc}

80000aa0 <test_vdev_sample>:
80000aa0:	e92d4800 	push	{fp, lr}
80000aa4:	e28db004 	add	fp, sp, #4
80000aa8:	e24dd020 	sub	sp, sp, #32
80000aac:	e3a03a0f 	mov	r3, #61440	; 0xf000
80000ab0:	e3433fff 	movt	r3, #16383	; 0x3fff
80000ab4:	e50b300c 	str	r3, [fp, #-12]
80000ab8:	e51b300c 	ldr	r3, [fp, #-12]
80000abc:	e50b3010 	str	r3, [fp, #-16]
80000ac0:	e51b300c 	ldr	r3, [fp, #-12]
80000ac4:	e2833004 	add	r3, r3, #4
80000ac8:	e50b3014 	str	r3, [fp, #-20]
80000acc:	e51b300c 	ldr	r3, [fp, #-12]
80000ad0:	e2833008 	add	r3, r3, #8
80000ad4:	e50b3018 	str	r3, [fp, #-24]
80000ad8:	e3010da8 	movw	r0, #7592	; 0x1da8
80000adc:	e3480000 	movt	r0, #32768	; 0x8000
80000ae0:	eb000353 	bl	80001834 <uart_print>
80000ae4:	e51b300c 	ldr	r3, [fp, #-12]
80000ae8:	e1a00003 	mov	r0, r3
80000aec:	eb000374 	bl	800018c4 <uart_print_hex32>
80000af0:	e3010dd0 	movw	r0, #7632	; 0x1dd0
80000af4:	e3480000 	movt	r0, #32768	; 0x8000
80000af8:	eb00034d 	bl	80001834 <uart_print>
80000afc:	e3a03000 	mov	r3, #0
80000b00:	e50b3008 	str	r3, [fp, #-8]
80000b04:	ea00003a 	b	80000bf4 <test_vdev_sample+0x154>
80000b08:	e51b3008 	ldr	r3, [fp, #-8]
80000b0c:	e2833001 	add	r3, r3, #1
80000b10:	e1a03083 	lsl	r3, r3, #1
80000b14:	e50b301c 	str	r3, [fp, #-28]
80000b18:	e51b3008 	ldr	r3, [fp, #-8]
80000b1c:	e2832001 	add	r2, r3, #1
80000b20:	e1a03002 	mov	r3, r2
80000b24:	e1a03083 	lsl	r3, r3, #1
80000b28:	e0833002 	add	r3, r3, r2
80000b2c:	e50b3020 	str	r3, [fp, #-32]
80000b30:	e3010dd4 	movw	r0, #7636	; 0x1dd4
80000b34:	e3480000 	movt	r0, #32768	; 0x8000
80000b38:	eb00033d 	bl	80001834 <uart_print>
80000b3c:	e51b301c 	ldr	r3, [fp, #-28]
80000b40:	e1a00003 	mov	r0, r3
80000b44:	eb00035e 	bl	800018c4 <uart_print_hex32>
80000b48:	e3010dd8 	movw	r0, #7640	; 0x1dd8
80000b4c:	e3480000 	movt	r0, #32768	; 0x8000
80000b50:	eb000337 	bl	80001834 <uart_print>
80000b54:	e51b3020 	ldr	r3, [fp, #-32]
80000b58:	e1a00003 	mov	r0, r3
80000b5c:	eb000358 	bl	800018c4 <uart_print_hex32>
80000b60:	e3010de0 	movw	r0, #7648	; 0x1de0
80000b64:	e3480000 	movt	r0, #32768	; 0x8000
80000b68:	eb000331 	bl	80001834 <uart_print>
80000b6c:	e51b201c 	ldr	r2, [fp, #-28]
80000b70:	e51b3010 	ldr	r3, [fp, #-16]
80000b74:	e5832000 	str	r2, [r3]
80000b78:	e51b2020 	ldr	r2, [fp, #-32]
80000b7c:	e51b3014 	ldr	r3, [fp, #-20]
80000b80:	e5832000 	str	r2, [r3]
80000b84:	e51b3018 	ldr	r3, [fp, #-24]
80000b88:	e5933000 	ldr	r3, [r3]
80000b8c:	e50b3024 	str	r3, [fp, #-36]	; 0x24
80000b90:	e3010de4 	movw	r0, #7652	; 0x1de4
80000b94:	e3480000 	movt	r0, #32768	; 0x8000
80000b98:	eb000325 	bl	80001834 <uart_print>
80000b9c:	e51b3024 	ldr	r3, [fp, #-36]	; 0x24
80000ba0:	e1a00003 	mov	r0, r3
80000ba4:	eb000346 	bl	800018c4 <uart_print_hex32>
80000ba8:	e51b201c 	ldr	r2, [fp, #-28]
80000bac:	e51b3020 	ldr	r3, [fp, #-32]
80000bb0:	e0822003 	add	r2, r2, r3
80000bb4:	e51b3024 	ldr	r3, [fp, #-36]	; 0x24
80000bb8:	e1520003 	cmp	r2, r3
80000bbc:	1a000003 	bne	80000bd0 <test_vdev_sample+0x130>
80000bc0:	e3010df0 	movw	r0, #7664	; 0x1df0
80000bc4:	e3480000 	movt	r0, #32768	; 0x8000
80000bc8:	eb000319 	bl	80001834 <uart_print>
80000bcc:	ea000002 	b	80000bdc <test_vdev_sample+0x13c>
80000bd0:	e3010df8 	movw	r0, #7672	; 0x1df8
80000bd4:	e3480000 	movt	r0, #32768	; 0x8000
80000bd8:	eb000315 	bl	80001834 <uart_print>
80000bdc:	e3010dd0 	movw	r0, #7632	; 0x1dd0
80000be0:	e3480000 	movt	r0, #32768	; 0x8000
80000be4:	eb000312 	bl	80001834 <uart_print>
80000be8:	e51b3008 	ldr	r3, [fp, #-8]
80000bec:	e2833001 	add	r3, r3, #1
80000bf0:	e50b3008 	str	r3, [fp, #-8]
80000bf4:	e51b3008 	ldr	r3, [fp, #-8]
80000bf8:	e3530009 	cmp	r3, #9
80000bfc:	daffffc1 	ble	80000b08 <test_vdev_sample+0x68>
80000c00:	e3010e04 	movw	r0, #7684	; 0x1e04
80000c04:	e3480000 	movt	r0, #32768	; 0x8000
80000c08:	eb000309 	bl	80001834 <uart_print>
80000c0c:	e24bd004 	sub	sp, fp, #4
80000c10:	e8bd8800 	pop	{fp, pc}

80000c14 <vtimer_mask>:
80000c14:	e52db004 	push	{fp}		; (str fp, [sp, #-4]!)
80000c18:	e28db000 	add	fp, sp, #0
80000c1c:	e24dd00c 	sub	sp, sp, #12
80000c20:	e50b0008 	str	r0, [fp, #-8]
80000c24:	e3013e68 	movw	r3, #7784	; 0x1e68
80000c28:	e3483000 	movt	r3, #32768	; 0x8000
80000c2c:	e5933000 	ldr	r3, [r3]
80000c30:	e51b2008 	ldr	r2, [fp, #-8]
80000c34:	e5832000 	str	r2, [r3]
80000c38:	e28bd000 	add	sp, fp, #0
80000c3c:	e8bd0800 	ldmfd	sp!, {fp}
80000c40:	e12fff1e 	bx	lr

80000c44 <__memmove_down>:
80000c44:	e52db004 	push	{fp}		; (str fp, [sp, #-4]!)
80000c48:	e28db000 	add	fp, sp, #0
80000c4c:	e24dd01c 	sub	sp, sp, #28
80000c50:	e50b0010 	str	r0, [fp, #-16]
80000c54:	e50b1014 	str	r1, [fp, #-20]
80000c58:	e50b2018 	str	r2, [fp, #-24]
80000c5c:	e51b3010 	ldr	r3, [fp, #-16]
80000c60:	e50b3008 	str	r3, [fp, #-8]
80000c64:	e51b3014 	ldr	r3, [fp, #-20]
80000c68:	e50b300c 	str	r3, [fp, #-12]
80000c6c:	ea000009 	b	80000c98 <__memmove_down+0x54>
80000c70:	e51b300c 	ldr	r3, [fp, #-12]
80000c74:	e5d32000 	ldrb	r2, [r3]
80000c78:	e51b3008 	ldr	r3, [fp, #-8]
80000c7c:	e5c32000 	strb	r2, [r3]
80000c80:	e51b3008 	ldr	r3, [fp, #-8]
80000c84:	e2833001 	add	r3, r3, #1
80000c88:	e50b3008 	str	r3, [fp, #-8]
80000c8c:	e51b300c 	ldr	r3, [fp, #-12]
80000c90:	e2833001 	add	r3, r3, #1
80000c94:	e50b300c 	str	r3, [fp, #-12]
80000c98:	e51b3018 	ldr	r3, [fp, #-24]
80000c9c:	e3530000 	cmp	r3, #0
80000ca0:	03a03000 	moveq	r3, #0
80000ca4:	13a03001 	movne	r3, #1
80000ca8:	e6ef3073 	uxtb	r3, r3
80000cac:	e51b2018 	ldr	r2, [fp, #-24]
80000cb0:	e2422001 	sub	r2, r2, #1
80000cb4:	e50b2018 	str	r2, [fp, #-24]
80000cb8:	e3530000 	cmp	r3, #0
80000cbc:	1affffeb 	bne	80000c70 <__memmove_down+0x2c>
80000cc0:	e51b3010 	ldr	r3, [fp, #-16]
80000cc4:	e1a00003 	mov	r0, r3
80000cc8:	e28bd000 	add	sp, fp, #0
80000ccc:	e8bd0800 	ldmfd	sp!, {fp}
80000cd0:	e12fff1e 	bx	lr

80000cd4 <__memmove_up>:
80000cd4:	e52db004 	push	{fp}		; (str fp, [sp, #-4]!)
80000cd8:	e28db000 	add	fp, sp, #0
80000cdc:	e24dd01c 	sub	sp, sp, #28
80000ce0:	e50b0010 	str	r0, [fp, #-16]
80000ce4:	e50b1014 	str	r1, [fp, #-20]
80000ce8:	e50b2018 	str	r2, [fp, #-24]
80000cec:	e51b3018 	ldr	r3, [fp, #-24]
80000cf0:	e2433001 	sub	r3, r3, #1
80000cf4:	e51b2010 	ldr	r2, [fp, #-16]
80000cf8:	e0823003 	add	r3, r2, r3
80000cfc:	e50b3008 	str	r3, [fp, #-8]
80000d00:	e51b3018 	ldr	r3, [fp, #-24]
80000d04:	e2433001 	sub	r3, r3, #1
80000d08:	e51b2014 	ldr	r2, [fp, #-20]
80000d0c:	e0823003 	add	r3, r2, r3
80000d10:	e50b300c 	str	r3, [fp, #-12]
80000d14:	ea000009 	b	80000d40 <__memmove_up+0x6c>
80000d18:	e51b300c 	ldr	r3, [fp, #-12]
80000d1c:	e5d32000 	ldrb	r2, [r3]
80000d20:	e51b3008 	ldr	r3, [fp, #-8]
80000d24:	e5c32000 	strb	r2, [r3]
80000d28:	e51b3008 	ldr	r3, [fp, #-8]
80000d2c:	e2433001 	sub	r3, r3, #1
80000d30:	e50b3008 	str	r3, [fp, #-8]
80000d34:	e51b300c 	ldr	r3, [fp, #-12]
80000d38:	e2433001 	sub	r3, r3, #1
80000d3c:	e50b300c 	str	r3, [fp, #-12]
80000d40:	e51b3018 	ldr	r3, [fp, #-24]
80000d44:	e3530000 	cmp	r3, #0
80000d48:	03a03000 	moveq	r3, #0
80000d4c:	13a03001 	movne	r3, #1
80000d50:	e6ef3073 	uxtb	r3, r3
80000d54:	e51b2018 	ldr	r2, [fp, #-24]
80000d58:	e2422001 	sub	r2, r2, #1
80000d5c:	e50b2018 	str	r2, [fp, #-24]
80000d60:	e3530000 	cmp	r3, #0
80000d64:	1affffeb 	bne	80000d18 <__memmove_up+0x44>
80000d68:	e51b3010 	ldr	r3, [fp, #-16]
80000d6c:	e1a00003 	mov	r0, r3
80000d70:	e28bd000 	add	sp, fp, #0
80000d74:	e8bd0800 	ldmfd	sp!, {fp}
80000d78:	e12fff1e 	bx	lr

80000d7c <memcpy>:
80000d7c:	e92d4800 	push	{fp, lr}
80000d80:	e28db004 	add	fp, sp, #4
80000d84:	e24dd010 	sub	sp, sp, #16
80000d88:	e50b0008 	str	r0, [fp, #-8]
80000d8c:	e50b100c 	str	r1, [fp, #-12]
80000d90:	e50b2010 	str	r2, [fp, #-16]
80000d94:	e51b0008 	ldr	r0, [fp, #-8]
80000d98:	e51b100c 	ldr	r1, [fp, #-12]
80000d9c:	e51b2010 	ldr	r2, [fp, #-16]
80000da0:	ebffffa7 	bl	80000c44 <__memmove_down>
80000da4:	e1a03000 	mov	r3, r0
80000da8:	e1a00003 	mov	r0, r3
80000dac:	e24bd004 	sub	sp, fp, #4
80000db0:	e8bd8800 	pop	{fp, pc}

80000db4 <memmove>:
80000db4:	e92d4800 	push	{fp, lr}
80000db8:	e28db004 	add	fp, sp, #4
80000dbc:	e24dd010 	sub	sp, sp, #16
80000dc0:	e50b0008 	str	r0, [fp, #-8]
80000dc4:	e50b100c 	str	r1, [fp, #-12]
80000dc8:	e50b2010 	str	r2, [fp, #-16]
80000dcc:	e51b2008 	ldr	r2, [fp, #-8]
80000dd0:	e51b300c 	ldr	r3, [fp, #-12]
80000dd4:	e1520003 	cmp	r2, r3
80000dd8:	9a000005 	bls	80000df4 <memmove+0x40>
80000ddc:	e51b0008 	ldr	r0, [fp, #-8]
80000de0:	e51b100c 	ldr	r1, [fp, #-12]
80000de4:	e51b2010 	ldr	r2, [fp, #-16]
80000de8:	ebffffb9 	bl	80000cd4 <__memmove_up>
80000dec:	e1a03000 	mov	r3, r0
80000df0:	ea000004 	b	80000e08 <memmove+0x54>
80000df4:	e51b0008 	ldr	r0, [fp, #-8]
80000df8:	e51b100c 	ldr	r1, [fp, #-12]
80000dfc:	e51b2010 	ldr	r2, [fp, #-16]
80000e00:	ebffff8f 	bl	80000c44 <__memmove_down>
80000e04:	e1a03000 	mov	r3, r0
80000e08:	e1a00003 	mov	r0, r3
80000e0c:	e24bd004 	sub	sp, fp, #4
80000e10:	e8bd8800 	pop	{fp, pc}

80000e14 <memchr>:
80000e14:	e52db004 	push	{fp}		; (str fp, [sp, #-4]!)
80000e18:	e28db000 	add	fp, sp, #0
80000e1c:	e24dd01c 	sub	sp, sp, #28
80000e20:	e50b0010 	str	r0, [fp, #-16]
80000e24:	e50b1014 	str	r1, [fp, #-20]
80000e28:	e50b2018 	str	r2, [fp, #-24]
80000e2c:	e51b3010 	ldr	r3, [fp, #-16]
80000e30:	e50b3008 	str	r3, [fp, #-8]
80000e34:	ea000005 	b	80000e50 <memchr+0x3c>
80000e38:	e51b3008 	ldr	r3, [fp, #-8]
80000e3c:	e2833001 	add	r3, r3, #1
80000e40:	e50b3008 	str	r3, [fp, #-8]
80000e44:	e51b3018 	ldr	r3, [fp, #-24]
80000e48:	e2433001 	sub	r3, r3, #1
80000e4c:	e50b3018 	str	r3, [fp, #-24]
80000e50:	e51b3018 	ldr	r3, [fp, #-24]
80000e54:	e3530000 	cmp	r3, #0
80000e58:	0a000005 	beq	80000e74 <memchr+0x60>
80000e5c:	e51b3008 	ldr	r3, [fp, #-8]
80000e60:	e5d33000 	ldrb	r3, [r3]
80000e64:	e1a02003 	mov	r2, r3
80000e68:	e51b3014 	ldr	r3, [fp, #-20]
80000e6c:	e1520003 	cmp	r2, r3
80000e70:	1afffff0 	bne	80000e38 <memchr+0x24>
80000e74:	e51b3018 	ldr	r3, [fp, #-24]
80000e78:	e3530000 	cmp	r3, #0
80000e7c:	0a000001 	beq	80000e88 <memchr+0x74>
80000e80:	e51b3008 	ldr	r3, [fp, #-8]
80000e84:	ea000000 	b	80000e8c <memchr+0x78>
80000e88:	e3a03000 	mov	r3, #0
80000e8c:	e1a00003 	mov	r0, r3
80000e90:	e28bd000 	add	sp, fp, #0
80000e94:	e8bd0800 	ldmfd	sp!, {fp}
80000e98:	e12fff1e 	bx	lr

80000e9c <strlen>:
80000e9c:	e52db004 	push	{fp}		; (str fp, [sp, #-4]!)
80000ea0:	e28db000 	add	fp, sp, #0
80000ea4:	e24dd014 	sub	sp, sp, #20
80000ea8:	e50b0010 	str	r0, [fp, #-16]
80000eac:	e51b3010 	ldr	r3, [fp, #-16]
80000eb0:	e50b3008 	str	r3, [fp, #-8]
80000eb4:	ea000002 	b	80000ec4 <strlen+0x28>
80000eb8:	e51b3008 	ldr	r3, [fp, #-8]
80000ebc:	e2833001 	add	r3, r3, #1
80000ec0:	e50b3008 	str	r3, [fp, #-8]
80000ec4:	e51b3008 	ldr	r3, [fp, #-8]
80000ec8:	e5d33000 	ldrb	r3, [r3]
80000ecc:	e3530000 	cmp	r3, #0
80000ed0:	1afffff8 	bne	80000eb8 <strlen+0x1c>
80000ed4:	e51b2008 	ldr	r2, [fp, #-8]
80000ed8:	e51b3010 	ldr	r3, [fp, #-16]
80000edc:	e0633002 	rsb	r3, r3, r2
80000ee0:	e1a00003 	mov	r0, r3
80000ee4:	e28bd000 	add	sp, fp, #0
80000ee8:	e8bd0800 	ldmfd	sp!, {fp}
80000eec:	e12fff1e 	bx	lr

80000ef0 <memset>:
80000ef0:	e52db004 	push	{fp}		; (str fp, [sp, #-4]!)
80000ef4:	e28db000 	add	fp, sp, #0
80000ef8:	e24dd01c 	sub	sp, sp, #28
80000efc:	e50b0010 	str	r0, [fp, #-16]
80000f00:	e50b1014 	str	r1, [fp, #-20]
80000f04:	e50b2018 	str	r2, [fp, #-24]
80000f08:	e51b3010 	ldr	r3, [fp, #-16]
80000f0c:	e50b3008 	str	r3, [fp, #-8]
80000f10:	ea000006 	b	80000f30 <memset+0x40>
80000f14:	e51b3014 	ldr	r3, [fp, #-20]
80000f18:	e6ef2073 	uxtb	r2, r3
80000f1c:	e51b3008 	ldr	r3, [fp, #-8]
80000f20:	e5c32000 	strb	r2, [r3]
80000f24:	e51b3008 	ldr	r3, [fp, #-8]
80000f28:	e2833001 	add	r3, r3, #1
80000f2c:	e50b3008 	str	r3, [fp, #-8]
80000f30:	e51b3018 	ldr	r3, [fp, #-24]
80000f34:	e3530000 	cmp	r3, #0
80000f38:	03a03000 	moveq	r3, #0
80000f3c:	13a03001 	movne	r3, #1
80000f40:	e6ef3073 	uxtb	r3, r3
80000f44:	e51b2018 	ldr	r2, [fp, #-24]
80000f48:	e2422001 	sub	r2, r2, #1
80000f4c:	e50b2018 	str	r2, [fp, #-24]
80000f50:	e3530000 	cmp	r3, #0
80000f54:	1affffee 	bne	80000f14 <memset+0x24>
80000f58:	e51b3010 	ldr	r3, [fp, #-16]
80000f5c:	e1a00003 	mov	r0, r3
80000f60:	e28bd000 	add	sp, fp, #0
80000f64:	e8bd0800 	ldmfd	sp!, {fp}
80000f68:	e12fff1e 	bx	lr

80000f6c <memcmp>:
80000f6c:	e52db004 	push	{fp}		; (str fp, [sp, #-4]!)
80000f70:	e28db000 	add	fp, sp, #0
80000f74:	e24dd01c 	sub	sp, sp, #28
80000f78:	e50b0010 	str	r0, [fp, #-16]
80000f7c:	e50b1014 	str	r1, [fp, #-20]
80000f80:	e50b2018 	str	r2, [fp, #-24]
80000f84:	e51b3010 	ldr	r3, [fp, #-16]
80000f88:	e50b3008 	str	r3, [fp, #-8]
80000f8c:	e51b3014 	ldr	r3, [fp, #-20]
80000f90:	e50b300c 	str	r3, [fp, #-12]
80000f94:	ea000015 	b	80000ff0 <memcmp+0x84>
80000f98:	e51b3008 	ldr	r3, [fp, #-8]
80000f9c:	e5d32000 	ldrb	r2, [r3]
80000fa0:	e51b300c 	ldr	r3, [fp, #-12]
80000fa4:	e5d33000 	ldrb	r3, [r3]
80000fa8:	e1520003 	cmp	r2, r3
80000fac:	2a000001 	bcs	80000fb8 <memcmp+0x4c>
80000fb0:	e3e03000 	mvn	r3, #0
80000fb4:	ea000018 	b	8000101c <memcmp+0xb0>
80000fb8:	e51b3008 	ldr	r3, [fp, #-8]
80000fbc:	e5d32000 	ldrb	r2, [r3]
80000fc0:	e51b300c 	ldr	r3, [fp, #-12]
80000fc4:	e5d33000 	ldrb	r3, [r3]
80000fc8:	e1520003 	cmp	r2, r3
80000fcc:	9a000001 	bls	80000fd8 <memcmp+0x6c>
80000fd0:	e3a03001 	mov	r3, #1
80000fd4:	ea000010 	b	8000101c <memcmp+0xb0>
80000fd8:	e51b3008 	ldr	r3, [fp, #-8]
80000fdc:	e2833001 	add	r3, r3, #1
80000fe0:	e50b3008 	str	r3, [fp, #-8]
80000fe4:	e51b300c 	ldr	r3, [fp, #-12]
80000fe8:	e2833001 	add	r3, r3, #1
80000fec:	e50b300c 	str	r3, [fp, #-12]
80000ff0:	e51b3018 	ldr	r3, [fp, #-24]
80000ff4:	e3530000 	cmp	r3, #0
80000ff8:	03a03000 	moveq	r3, #0
80000ffc:	13a03001 	movne	r3, #1
80001000:	e6ef3073 	uxtb	r3, r3
80001004:	e51b2018 	ldr	r2, [fp, #-24]
80001008:	e2422001 	sub	r2, r2, #1
8000100c:	e50b2018 	str	r2, [fp, #-24]
80001010:	e3530000 	cmp	r3, #0
80001014:	1affffdf 	bne	80000f98 <memcmp+0x2c>
80001018:	e3a03000 	mov	r3, #0
8000101c:	e1a00003 	mov	r0, r3
80001020:	e28bd000 	add	sp, fp, #0
80001024:	e8bd0800 	ldmfd	sp!, {fp}
80001028:	e12fff1e 	bx	lr

8000102c <strcmp>:
8000102c:	e52db004 	push	{fp}		; (str fp, [sp, #-4]!)
80001030:	e28db000 	add	fp, sp, #0
80001034:	e24dd00c 	sub	sp, sp, #12
80001038:	e50b0008 	str	r0, [fp, #-8]
8000103c:	e50b100c 	str	r1, [fp, #-12]
80001040:	ea000015 	b	8000109c <strcmp+0x70>
80001044:	e51b3008 	ldr	r3, [fp, #-8]
80001048:	e5d32000 	ldrb	r2, [r3]
8000104c:	e51b300c 	ldr	r3, [fp, #-12]
80001050:	e5d33000 	ldrb	r3, [r3]
80001054:	e1520003 	cmp	r2, r3
80001058:	2a000001 	bcs	80001064 <strcmp+0x38>
8000105c:	e3e03000 	mvn	r3, #0
80001060:	ea000026 	b	80001100 <strcmp+0xd4>
80001064:	e51b3008 	ldr	r3, [fp, #-8]
80001068:	e5d32000 	ldrb	r2, [r3]
8000106c:	e51b300c 	ldr	r3, [fp, #-12]
80001070:	e5d33000 	ldrb	r3, [r3]
80001074:	e1520003 	cmp	r2, r3
80001078:	9a000001 	bls	80001084 <strcmp+0x58>
8000107c:	e3a03001 	mov	r3, #1
80001080:	ea00001e 	b	80001100 <strcmp+0xd4>
80001084:	e51b3008 	ldr	r3, [fp, #-8]
80001088:	e2833001 	add	r3, r3, #1
8000108c:	e50b3008 	str	r3, [fp, #-8]
80001090:	e51b300c 	ldr	r3, [fp, #-12]
80001094:	e2833001 	add	r3, r3, #1
80001098:	e50b300c 	str	r3, [fp, #-12]
8000109c:	e51b3008 	ldr	r3, [fp, #-8]
800010a0:	e5d33000 	ldrb	r3, [r3]
800010a4:	e3530000 	cmp	r3, #0
800010a8:	0a000003 	beq	800010bc <strcmp+0x90>
800010ac:	e51b300c 	ldr	r3, [fp, #-12]
800010b0:	e5d33000 	ldrb	r3, [r3]
800010b4:	e3530000 	cmp	r3, #0
800010b8:	1affffe1 	bne	80001044 <strcmp+0x18>
800010bc:	e51b3008 	ldr	r3, [fp, #-8]
800010c0:	e5d33000 	ldrb	r3, [r3]
800010c4:	e3530000 	cmp	r3, #0
800010c8:	1a000005 	bne	800010e4 <strcmp+0xb8>
800010cc:	e51b300c 	ldr	r3, [fp, #-12]
800010d0:	e5d33000 	ldrb	r3, [r3]
800010d4:	e3530000 	cmp	r3, #0
800010d8:	1a000001 	bne	800010e4 <strcmp+0xb8>
800010dc:	e3a03000 	mov	r3, #0
800010e0:	ea000006 	b	80001100 <strcmp+0xd4>
800010e4:	e51b3008 	ldr	r3, [fp, #-8]
800010e8:	e5d33000 	ldrb	r3, [r3]
800010ec:	e3530000 	cmp	r3, #0
800010f0:	1a000001 	bne	800010fc <strcmp+0xd0>
800010f4:	e3e03000 	mvn	r3, #0
800010f8:	ea000000 	b	80001100 <strcmp+0xd4>
800010fc:	e3a03001 	mov	r3, #1
80001100:	e1a00003 	mov	r0, r3
80001104:	e28bd000 	add	sp, fp, #0
80001108:	e8bd0800 	ldmfd	sp!, {fp}
8000110c:	e12fff1e 	bx	lr

80001110 <strncmp>:
80001110:	e52db004 	push	{fp}		; (str fp, [sp, #-4]!)
80001114:	e28db000 	add	fp, sp, #0
80001118:	e24dd014 	sub	sp, sp, #20
8000111c:	e50b0008 	str	r0, [fp, #-8]
80001120:	e50b100c 	str	r1, [fp, #-12]
80001124:	e50b2010 	str	r2, [fp, #-16]
80001128:	ea000015 	b	80001184 <strncmp+0x74>
8000112c:	e51b3008 	ldr	r3, [fp, #-8]
80001130:	e5d32000 	ldrb	r2, [r3]
80001134:	e51b300c 	ldr	r3, [fp, #-12]
80001138:	e5d33000 	ldrb	r3, [r3]
8000113c:	e1520003 	cmp	r2, r3
80001140:	2a000001 	bcs	8000114c <strncmp+0x3c>
80001144:	e3e03000 	mvn	r3, #0
80001148:	ea000033 	b	8000121c <strncmp+0x10c>
8000114c:	e51b3008 	ldr	r3, [fp, #-8]
80001150:	e5d32000 	ldrb	r2, [r3]
80001154:	e51b300c 	ldr	r3, [fp, #-12]
80001158:	e5d33000 	ldrb	r3, [r3]
8000115c:	e1520003 	cmp	r2, r3
80001160:	9a000001 	bls	8000116c <strncmp+0x5c>
80001164:	e3a03001 	mov	r3, #1
80001168:	ea00002b 	b	8000121c <strncmp+0x10c>
8000116c:	e51b3008 	ldr	r3, [fp, #-8]
80001170:	e2833001 	add	r3, r3, #1
80001174:	e50b3008 	str	r3, [fp, #-8]
80001178:	e51b300c 	ldr	r3, [fp, #-12]
8000117c:	e2833001 	add	r3, r3, #1
80001180:	e50b300c 	str	r3, [fp, #-12]
80001184:	e51b3008 	ldr	r3, [fp, #-8]
80001188:	e5d33000 	ldrb	r3, [r3]
8000118c:	e3530000 	cmp	r3, #0
80001190:	0a00000d 	beq	800011cc <strncmp+0xbc>
80001194:	e51b300c 	ldr	r3, [fp, #-12]
80001198:	e5d33000 	ldrb	r3, [r3]
8000119c:	e3530000 	cmp	r3, #0
800011a0:	0a000009 	beq	800011cc <strncmp+0xbc>
800011a4:	e51b3010 	ldr	r3, [fp, #-16]
800011a8:	e3530000 	cmp	r3, #0
800011ac:	03a03000 	moveq	r3, #0
800011b0:	13a03001 	movne	r3, #1
800011b4:	e6ef3073 	uxtb	r3, r3
800011b8:	e51b2010 	ldr	r2, [fp, #-16]
800011bc:	e2422001 	sub	r2, r2, #1
800011c0:	e50b2010 	str	r2, [fp, #-16]
800011c4:	e3530000 	cmp	r3, #0
800011c8:	1affffd7 	bne	8000112c <strncmp+0x1c>
800011cc:	e51b3010 	ldr	r3, [fp, #-16]
800011d0:	e3530000 	cmp	r3, #0
800011d4:	0a000007 	beq	800011f8 <strncmp+0xe8>
800011d8:	e51b3008 	ldr	r3, [fp, #-8]
800011dc:	e5d33000 	ldrb	r3, [r3]
800011e0:	e3530000 	cmp	r3, #0
800011e4:	1a000005 	bne	80001200 <strncmp+0xf0>
800011e8:	e51b300c 	ldr	r3, [fp, #-12]
800011ec:	e5d33000 	ldrb	r3, [r3]
800011f0:	e3530000 	cmp	r3, #0
800011f4:	1a000001 	bne	80001200 <strncmp+0xf0>
800011f8:	e3a03000 	mov	r3, #0
800011fc:	ea000006 	b	8000121c <strncmp+0x10c>
80001200:	e51b3008 	ldr	r3, [fp, #-8]
80001204:	e5d33000 	ldrb	r3, [r3]
80001208:	e3530000 	cmp	r3, #0
8000120c:	1a000001 	bne	80001218 <strncmp+0x108>
80001210:	e3e03000 	mvn	r3, #0
80001214:	ea000000 	b	8000121c <strncmp+0x10c>
80001218:	e3a03001 	mov	r3, #1
8000121c:	e1a00003 	mov	r0, r3
80001220:	e28bd000 	add	sp, fp, #0
80001224:	e8bd0800 	ldmfd	sp!, {fp}
80001228:	e12fff1e 	bx	lr

8000122c <strchr>:
8000122c:	e52db004 	push	{fp}		; (str fp, [sp, #-4]!)
80001230:	e28db000 	add	fp, sp, #0
80001234:	e24dd014 	sub	sp, sp, #20
80001238:	e50b0010 	str	r0, [fp, #-16]
8000123c:	e50b1014 	str	r1, [fp, #-20]
80001240:	e51b3010 	ldr	r3, [fp, #-16]
80001244:	e50b3008 	str	r3, [fp, #-8]
80001248:	ea000002 	b	80001258 <strchr+0x2c>
8000124c:	e51b3008 	ldr	r3, [fp, #-8]
80001250:	e2833001 	add	r3, r3, #1
80001254:	e50b3008 	str	r3, [fp, #-8]
80001258:	e51b3008 	ldr	r3, [fp, #-8]
8000125c:	e5d33000 	ldrb	r3, [r3]
80001260:	e3530000 	cmp	r3, #0
80001264:	0a000005 	beq	80001280 <strchr+0x54>
80001268:	e51b3008 	ldr	r3, [fp, #-8]
8000126c:	e5d33000 	ldrb	r3, [r3]
80001270:	e1a02003 	mov	r2, r3
80001274:	e51b3014 	ldr	r3, [fp, #-20]
80001278:	e1520003 	cmp	r2, r3
8000127c:	1afffff2 	bne	8000124c <strchr+0x20>
80001280:	e51b3008 	ldr	r3, [fp, #-8]
80001284:	e5d33000 	ldrb	r3, [r3]
80001288:	e3530000 	cmp	r3, #0
8000128c:	0a000001 	beq	80001298 <strchr+0x6c>
80001290:	e51b3008 	ldr	r3, [fp, #-8]
80001294:	ea000000 	b	8000129c <strchr+0x70>
80001298:	e3a03000 	mov	r3, #0
8000129c:	e1a00003 	mov	r0, r3
800012a0:	e28bd000 	add	sp, fp, #0
800012a4:	e8bd0800 	ldmfd	sp!, {fp}
800012a8:	e12fff1e 	bx	lr

800012ac <strcpy>:
800012ac:	e52db004 	push	{fp}		; (str fp, [sp, #-4]!)
800012b0:	e28db000 	add	fp, sp, #0
800012b4:	e24dd014 	sub	sp, sp, #20
800012b8:	e50b0010 	str	r0, [fp, #-16]
800012bc:	e50b1014 	str	r1, [fp, #-20]
800012c0:	e3a03000 	mov	r3, #0
800012c4:	e50b3008 	str	r3, [fp, #-8]
800012c8:	ea00000a 	b	800012f8 <strcpy+0x4c>
800012cc:	e51b2010 	ldr	r2, [fp, #-16]
800012d0:	e51b3008 	ldr	r3, [fp, #-8]
800012d4:	e0823003 	add	r3, r2, r3
800012d8:	e51b1014 	ldr	r1, [fp, #-20]
800012dc:	e51b2008 	ldr	r2, [fp, #-8]
800012e0:	e0812002 	add	r2, r1, r2
800012e4:	e5d22000 	ldrb	r2, [r2]
800012e8:	e5c32000 	strb	r2, [r3]
800012ec:	e51b3008 	ldr	r3, [fp, #-8]
800012f0:	e2833001 	add	r3, r3, #1
800012f4:	e50b3008 	str	r3, [fp, #-8]
800012f8:	e51b2014 	ldr	r2, [fp, #-20]
800012fc:	e51b3008 	ldr	r3, [fp, #-8]
80001300:	e0823003 	add	r3, r2, r3
80001304:	e5d33000 	ldrb	r3, [r3]
80001308:	e3530000 	cmp	r3, #0
8000130c:	1affffee 	bne	800012cc <strcpy+0x20>
80001310:	e51b2010 	ldr	r2, [fp, #-16]
80001314:	e51b3008 	ldr	r3, [fp, #-8]
80001318:	e0823003 	add	r3, r2, r3
8000131c:	e3a02000 	mov	r2, #0
80001320:	e5c32000 	strb	r2, [r3]
80001324:	e51b3010 	ldr	r3, [fp, #-16]
80001328:	e1a00003 	mov	r0, r3
8000132c:	e28bd000 	add	sp, fp, #0
80001330:	e8bd0800 	ldmfd	sp!, {fp}
80001334:	e12fff1e 	bx	lr

80001338 <arm_hexstr2uint>:
80001338:	e52db004 	push	{fp}		; (str fp, [sp, #-4]!)
8000133c:	e28db000 	add	fp, sp, #0
80001340:	e24dd014 	sub	sp, sp, #20
80001344:	e50b0010 	str	r0, [fp, #-16]
80001348:	e3a03000 	mov	r3, #0
8000134c:	e50b3008 	str	r3, [fp, #-8]
80001350:	e3a03000 	mov	r3, #0
80001354:	e50b300c 	str	r3, [fp, #-12]
80001358:	e51b3010 	ldr	r3, [fp, #-16]
8000135c:	e5d33000 	ldrb	r3, [r3]
80001360:	e3530030 	cmp	r3, #48	; 0x30
80001364:	1a00004c 	bne	8000149c <arm_hexstr2uint+0x164>
80001368:	e51b3010 	ldr	r3, [fp, #-16]
8000136c:	e2833001 	add	r3, r3, #1
80001370:	e5d33000 	ldrb	r3, [r3]
80001374:	e3530078 	cmp	r3, #120	; 0x78
80001378:	1a000047 	bne	8000149c <arm_hexstr2uint+0x164>
8000137c:	e3a03002 	mov	r3, #2
80001380:	e50b300c 	str	r3, [fp, #-12]
80001384:	ea000044 	b	8000149c <arm_hexstr2uint+0x164>
80001388:	e51b300c 	ldr	r3, [fp, #-12]
8000138c:	e51b2010 	ldr	r2, [fp, #-16]
80001390:	e0823003 	add	r3, r2, r3
80001394:	e5d33000 	ldrb	r3, [r3]
80001398:	e353002f 	cmp	r3, #47	; 0x2f
8000139c:	9a00000f 	bls	800013e0 <arm_hexstr2uint+0xa8>
800013a0:	e51b300c 	ldr	r3, [fp, #-12]
800013a4:	e51b2010 	ldr	r2, [fp, #-16]
800013a8:	e0823003 	add	r3, r2, r3
800013ac:	e5d33000 	ldrb	r3, [r3]
800013b0:	e3530039 	cmp	r3, #57	; 0x39
800013b4:	8a000009 	bhi	800013e0 <arm_hexstr2uint+0xa8>
800013b8:	e51b3008 	ldr	r3, [fp, #-8]
800013bc:	e1a02203 	lsl	r2, r3, #4
800013c0:	e51b300c 	ldr	r3, [fp, #-12]
800013c4:	e51b1010 	ldr	r1, [fp, #-16]
800013c8:	e0813003 	add	r3, r1, r3
800013cc:	e5d33000 	ldrb	r3, [r3]
800013d0:	e0823003 	add	r3, r2, r3
800013d4:	e2433030 	sub	r3, r3, #48	; 0x30
800013d8:	e50b3008 	str	r3, [fp, #-8]
800013dc:	ea00002a 	b	8000148c <arm_hexstr2uint+0x154>
800013e0:	e51b300c 	ldr	r3, [fp, #-12]
800013e4:	e51b2010 	ldr	r2, [fp, #-16]
800013e8:	e0823003 	add	r3, r2, r3
800013ec:	e5d33000 	ldrb	r3, [r3]
800013f0:	e3530040 	cmp	r3, #64	; 0x40
800013f4:	9a00000f 	bls	80001438 <arm_hexstr2uint+0x100>
800013f8:	e51b300c 	ldr	r3, [fp, #-12]
800013fc:	e51b2010 	ldr	r2, [fp, #-16]
80001400:	e0823003 	add	r3, r2, r3
80001404:	e5d33000 	ldrb	r3, [r3]
80001408:	e3530046 	cmp	r3, #70	; 0x46
8000140c:	8a000009 	bhi	80001438 <arm_hexstr2uint+0x100>
80001410:	e51b3008 	ldr	r3, [fp, #-8]
80001414:	e1a02203 	lsl	r2, r3, #4
80001418:	e51b300c 	ldr	r3, [fp, #-12]
8000141c:	e51b1010 	ldr	r1, [fp, #-16]
80001420:	e0813003 	add	r3, r1, r3
80001424:	e5d33000 	ldrb	r3, [r3]
80001428:	e0823003 	add	r3, r2, r3
8000142c:	e2433037 	sub	r3, r3, #55	; 0x37
80001430:	e50b3008 	str	r3, [fp, #-8]
80001434:	ea000014 	b	8000148c <arm_hexstr2uint+0x154>
80001438:	e51b300c 	ldr	r3, [fp, #-12]
8000143c:	e51b2010 	ldr	r2, [fp, #-16]
80001440:	e0823003 	add	r3, r2, r3
80001444:	e5d33000 	ldrb	r3, [r3]
80001448:	e3530060 	cmp	r3, #96	; 0x60
8000144c:	9a00000e 	bls	8000148c <arm_hexstr2uint+0x154>
80001450:	e51b300c 	ldr	r3, [fp, #-12]
80001454:	e51b2010 	ldr	r2, [fp, #-16]
80001458:	e0823003 	add	r3, r2, r3
8000145c:	e5d33000 	ldrb	r3, [r3]
80001460:	e3530066 	cmp	r3, #102	; 0x66
80001464:	8a000008 	bhi	8000148c <arm_hexstr2uint+0x154>
80001468:	e51b3008 	ldr	r3, [fp, #-8]
8000146c:	e1a02203 	lsl	r2, r3, #4
80001470:	e51b300c 	ldr	r3, [fp, #-12]
80001474:	e51b1010 	ldr	r1, [fp, #-16]
80001478:	e0813003 	add	r3, r1, r3
8000147c:	e5d33000 	ldrb	r3, [r3]
80001480:	e0823003 	add	r3, r2, r3
80001484:	e2433057 	sub	r3, r3, #87	; 0x57
80001488:	e50b3008 	str	r3, [fp, #-8]
8000148c:	e51b300c 	ldr	r3, [fp, #-12]
80001490:	e2833001 	add	r3, r3, #1
80001494:	e50b300c 	str	r3, [fp, #-12]
80001498:	ea000000 	b	800014a0 <arm_hexstr2uint+0x168>
8000149c:	e1a00000 	nop			; (mov r0, r0)
800014a0:	e51b300c 	ldr	r3, [fp, #-12]
800014a4:	e51b2010 	ldr	r2, [fp, #-16]
800014a8:	e0823003 	add	r3, r2, r3
800014ac:	e5d33000 	ldrb	r3, [r3]
800014b0:	e3530000 	cmp	r3, #0
800014b4:	1affffb3 	bne	80001388 <arm_hexstr2uint+0x50>
800014b8:	e51b3008 	ldr	r3, [fp, #-8]
800014bc:	e1a00003 	mov	r0, r3
800014c0:	e28bd000 	add	sp, fp, #0
800014c4:	e8bd0800 	ldmfd	sp!, {fp}
800014c8:	e12fff1e 	bx	lr

800014cc <arm_uint2hexstr>:
800014cc:	e52db004 	push	{fp}		; (str fp, [sp, #-4]!)
800014d0:	e28db000 	add	fp, sp, #0
800014d4:	e24dd014 	sub	sp, sp, #20
800014d8:	e50b0010 	str	r0, [fp, #-16]
800014dc:	e50b1014 	str	r1, [fp, #-20]
800014e0:	e3a03000 	mov	r3, #0
800014e4:	e50b300c 	str	r3, [fp, #-12]
800014e8:	e3a03000 	mov	r3, #0
800014ec:	e50b3008 	str	r3, [fp, #-8]
800014f0:	ea00001f 	b	80001574 <arm_uint2hexstr+0xa8>
800014f4:	e51b300c 	ldr	r3, [fp, #-12]
800014f8:	e3530000 	cmp	r3, #0
800014fc:	1a000007 	bne	80001520 <arm_uint2hexstr+0x54>
80001500:	e51b3008 	ldr	r3, [fp, #-8]
80001504:	e2633007 	rsb	r3, r3, #7
80001508:	e1a03103 	lsl	r3, r3, #2
8000150c:	e51b2014 	ldr	r2, [fp, #-20]
80001510:	e1a03332 	lsr	r3, r2, r3
80001514:	e203300f 	and	r3, r3, #15
80001518:	e3530000 	cmp	r3, #0
8000151c:	0a000010 	beq	80001564 <arm_uint2hexstr+0x98>
80001520:	e51b300c 	ldr	r3, [fp, #-12]
80001524:	e51b2010 	ldr	r2, [fp, #-16]
80001528:	e0822003 	add	r2, r2, r3
8000152c:	e51b3008 	ldr	r3, [fp, #-8]
80001530:	e2633007 	rsb	r3, r3, #7
80001534:	e1a03103 	lsl	r3, r3, #2
80001538:	e51b1014 	ldr	r1, [fp, #-20]
8000153c:	e1a03331 	lsr	r3, r1, r3
80001540:	e203100f 	and	r1, r3, #15
80001544:	e3013e18 	movw	r3, #7704	; 0x1e18
80001548:	e3483000 	movt	r3, #32768	; 0x8000
8000154c:	e7d33001 	ldrb	r3, [r3, r1]
80001550:	e5c23000 	strb	r3, [r2]
80001554:	e51b300c 	ldr	r3, [fp, #-12]
80001558:	e2833001 	add	r3, r3, #1
8000155c:	e50b300c 	str	r3, [fp, #-12]
80001560:	ea000000 	b	80001568 <arm_uint2hexstr+0x9c>
80001564:	e1a00000 	nop			; (mov r0, r0)
80001568:	e51b3008 	ldr	r3, [fp, #-8]
8000156c:	e2833001 	add	r3, r3, #1
80001570:	e50b3008 	str	r3, [fp, #-8]
80001574:	e51b3008 	ldr	r3, [fp, #-8]
80001578:	e3530007 	cmp	r3, #7
8000157c:	daffffdc 	ble	800014f4 <arm_uint2hexstr+0x28>
80001580:	e51b300c 	ldr	r3, [fp, #-12]
80001584:	e3530000 	cmp	r3, #0
80001588:	1a000007 	bne	800015ac <arm_uint2hexstr+0xe0>
8000158c:	e51b300c 	ldr	r3, [fp, #-12]
80001590:	e51b2010 	ldr	r2, [fp, #-16]
80001594:	e0823003 	add	r3, r2, r3
80001598:	e3a02030 	mov	r2, #48	; 0x30
8000159c:	e5c32000 	strb	r2, [r3]
800015a0:	e51b300c 	ldr	r3, [fp, #-12]
800015a4:	e2833001 	add	r3, r3, #1
800015a8:	e50b300c 	str	r3, [fp, #-12]
800015ac:	e51b300c 	ldr	r3, [fp, #-12]
800015b0:	e51b2010 	ldr	r2, [fp, #-16]
800015b4:	e0823003 	add	r3, r2, r3
800015b8:	e3a02000 	mov	r2, #0
800015bc:	e5c32000 	strb	r2, [r3]
800015c0:	e28bd000 	add	sp, fp, #0
800015c4:	e8bd0800 	ldmfd	sp!, {fp}
800015c8:	e12fff1e 	bx	lr

800015cc <strcat>:
800015cc:	e52db004 	push	{fp}		; (str fp, [sp, #-4]!)
800015d0:	e28db000 	add	fp, sp, #0
800015d4:	e24dd00c 	sub	sp, sp, #12
800015d8:	e50b0008 	str	r0, [fp, #-8]
800015dc:	e50b100c 	str	r1, [fp, #-12]
800015e0:	ea000002 	b	800015f0 <strcat+0x24>
800015e4:	e51b3008 	ldr	r3, [fp, #-8]
800015e8:	e2833001 	add	r3, r3, #1
800015ec:	e50b3008 	str	r3, [fp, #-8]
800015f0:	e51b3008 	ldr	r3, [fp, #-8]
800015f4:	e5d33000 	ldrb	r3, [r3]
800015f8:	e3530000 	cmp	r3, #0
800015fc:	1afffff8 	bne	800015e4 <strcat+0x18>
80001600:	ea000009 	b	8000162c <strcat+0x60>
80001604:	e51b300c 	ldr	r3, [fp, #-12]
80001608:	e5d32000 	ldrb	r2, [r3]
8000160c:	e51b3008 	ldr	r3, [fp, #-8]
80001610:	e5c32000 	strb	r2, [r3]
80001614:	e51b300c 	ldr	r3, [fp, #-12]
80001618:	e2833001 	add	r3, r3, #1
8000161c:	e50b300c 	str	r3, [fp, #-12]
80001620:	e51b3008 	ldr	r3, [fp, #-8]
80001624:	e2833001 	add	r3, r3, #1
80001628:	e50b3008 	str	r3, [fp, #-8]
8000162c:	e51b300c 	ldr	r3, [fp, #-12]
80001630:	e5d33000 	ldrb	r3, [r3]
80001634:	e3530000 	cmp	r3, #0
80001638:	1afffff1 	bne	80001604 <strcat+0x38>
8000163c:	e51b3008 	ldr	r3, [fp, #-8]
80001640:	e3a02000 	mov	r2, #0
80001644:	e5c32000 	strb	r2, [r3]
80001648:	e51b3008 	ldr	r3, [fp, #-8]
8000164c:	e1a00003 	mov	r0, r3
80001650:	e28bd000 	add	sp, fp, #0
80001654:	e8bd0800 	ldmfd	sp!, {fp}
80001658:	e12fff1e 	bx	lr

8000165c <arm_str2int>:
8000165c:	e52db004 	push	{fp}		; (str fp, [sp, #-4]!)
80001660:	e28db000 	add	fp, sp, #0
80001664:	e24dd01c 	sub	sp, sp, #28
80001668:	e50b0018 	str	r0, [fp, #-24]
8000166c:	e3a03000 	mov	r3, #0
80001670:	e50b3008 	str	r3, [fp, #-8]
80001674:	e3a03000 	mov	r3, #0
80001678:	e50b300c 	str	r3, [fp, #-12]
8000167c:	e3a03000 	mov	r3, #0
80001680:	e50b3010 	str	r3, [fp, #-16]
80001684:	e51b300c 	ldr	r3, [fp, #-12]
80001688:	e51b2018 	ldr	r2, [fp, #-24]
8000168c:	e0823003 	add	r3, r2, r3
80001690:	e5d33000 	ldrb	r3, [r3]
80001694:	e353002d 	cmp	r3, #45	; 0x2d
80001698:	1a000016 	bne	800016f8 <arm_str2int+0x9c>
8000169c:	e3a03001 	mov	r3, #1
800016a0:	e50b3010 	str	r3, [fp, #-16]
800016a4:	e51b300c 	ldr	r3, [fp, #-12]
800016a8:	e2833001 	add	r3, r3, #1
800016ac:	e50b300c 	str	r3, [fp, #-12]
800016b0:	ea000010 	b	800016f8 <arm_str2int+0x9c>
800016b4:	e51b2008 	ldr	r2, [fp, #-8]
800016b8:	e1a03002 	mov	r3, r2
800016bc:	e1a03103 	lsl	r3, r3, #2
800016c0:	e0833002 	add	r3, r3, r2
800016c4:	e1a03083 	lsl	r3, r3, #1
800016c8:	e1a02003 	mov	r2, r3
800016cc:	e51b300c 	ldr	r3, [fp, #-12]
800016d0:	e51b1018 	ldr	r1, [fp, #-24]
800016d4:	e0813003 	add	r3, r1, r3
800016d8:	e5d33000 	ldrb	r3, [r3]
800016dc:	e2433030 	sub	r3, r3, #48	; 0x30
800016e0:	e0823003 	add	r3, r2, r3
800016e4:	e50b3008 	str	r3, [fp, #-8]
800016e8:	e51b300c 	ldr	r3, [fp, #-12]
800016ec:	e2833001 	add	r3, r3, #1
800016f0:	e50b300c 	str	r3, [fp, #-12]
800016f4:	ea000000 	b	800016fc <arm_str2int+0xa0>
800016f8:	e1a00000 	nop			; (mov r0, r0)
800016fc:	e51b300c 	ldr	r3, [fp, #-12]
80001700:	e51b2018 	ldr	r2, [fp, #-24]
80001704:	e0823003 	add	r3, r2, r3
80001708:	e5d33000 	ldrb	r3, [r3]
8000170c:	e3530000 	cmp	r3, #0
80001710:	1affffe7 	bne	800016b4 <arm_str2int+0x58>
80001714:	e51b3010 	ldr	r3, [fp, #-16]
80001718:	e3530000 	cmp	r3, #0
8000171c:	0a000002 	beq	8000172c <arm_str2int+0xd0>
80001720:	e51b3008 	ldr	r3, [fp, #-8]
80001724:	e2633000 	rsb	r3, r3, #0
80001728:	ea000000 	b	80001730 <arm_str2int+0xd4>
8000172c:	e51b3008 	ldr	r3, [fp, #-8]
80001730:	e1a00003 	mov	r0, r3
80001734:	e28bd000 	add	sp, fp, #0
80001738:	e8bd0800 	ldmfd	sp!, {fp}
8000173c:	e12fff1e 	bx	lr

80001740 <common_guest_entry>:
80001740:	e59fd0c8 	ldr	sp, [pc, #200]	; 80001810 <except_dabort+0x4>
80001744:	e321f0d2 	msr	CPSR_c, #210	; 0xd2
80001748:	e59fd0c4 	ldr	sp, [pc, #196]	; 80001814 <except_dabort+0x8>
8000174c:	e321f0df 	msr	CPSR_c, #223	; 0xdf
80001750:	e59fd0c0 	ldr	sp, [pc, #192]	; 80001818 <except_dabort+0xc>
80001754:	e59f00c0 	ldr	r0, [pc, #192]	; 8000181c <except_dabort+0x10>
80001758:	ee0c0f10 	mcr	15, 0, r0, cr12, cr0, {0}
8000175c:	ebfffa43 	bl	80000070 <nrm_loop>

80001760 <__semi_call>:
80001760:	ef123456 	svc	0x00123456
80001764:	e1a0f00e 	mov	pc, lr
80001768:	e320f000 	nop	{0}
8000176c:	e320f000 	nop	{0}
80001770:	e320f000 	nop	{0}
80001774:	e320f000 	nop	{0}
80001778:	e320f000 	nop	{0}
8000177c:	e320f000 	nop	{0}

80001780 <nonsecure_vector>:
80001780:	00000000 	andeq	r0, r0, r0
80001784:	ea000005 	b	800017a0 <except_unhandled>
80001788:	ea00000d 	b	800017c4 <except_svc>
8000178c:	ea00001e 	b	8000180c <except_dabort>
80001790:	ea00001d 	b	8000180c <except_dabort>
80001794:	ea000001 	b	800017a0 <except_unhandled>
80001798:	ea000012 	b	800017e8 <except_irq>
8000179c:	ea00001a 	b	8000180c <except_dabort>

800017a0 <except_unhandled>:
800017a0:	e92d1fff 	push	{r0, r1, r2, r3, r4, r5, r6, r7, r8, r9, sl, fp, ip}
800017a4:	e14f0000 	mrs	r0, SPSR
800017a8:	e92d4001 	push	{r0, lr}
800017ac:	e1a0000d 	mov	r0, sp
800017b0:	ebfffa81 	bl	800001bc <_except_unhandled>
800017b4:	e8bd4001 	pop	{r0, lr}
800017b8:	e169f000 	msr	SPSR_fc, r0
800017bc:	e8bd1fff 	pop	{r0, r1, r2, r3, r4, r5, r6, r7, r8, r9, sl, fp, ip}
800017c0:	e1b0f00e 	movs	pc, lr

800017c4 <except_svc>:
800017c4:	e92d1fff 	push	{r0, r1, r2, r3, r4, r5, r6, r7, r8, r9, sl, fp, ip}
800017c8:	e14f0000 	mrs	r0, SPSR
800017cc:	e92d4001 	push	{r0, lr}
800017d0:	e1a0000d 	mov	r0, sp
800017d4:	ebfffa7f 	bl	800001d8 <_except_svc>
800017d8:	e8bd4001 	pop	{r0, lr}
800017dc:	e169f000 	msr	SPSR_fc, r0
800017e0:	e8bd1fff 	pop	{r0, r1, r2, r3, r4, r5, r6, r7, r8, r9, sl, fp, ip}
800017e4:	e1b0f00e 	movs	pc, lr

800017e8 <except_irq>:
800017e8:	e92d1fff 	push	{r0, r1, r2, r3, r4, r5, r6, r7, r8, r9, sl, fp, ip}
800017ec:	e14f0000 	mrs	r0, SPSR
800017f0:	e92d4001 	push	{r0, lr}
800017f4:	e1a0000d 	mov	r0, sp
800017f8:	ebfffa7d 	bl	800001f4 <_except_irq>
800017fc:	e8bd4001 	pop	{r0, lr}
80001800:	e169f000 	msr	SPSR_fc, r0
80001804:	e8bd1fff 	pop	{r0, r1, r2, r3, r4, r5, r6, r7, r8, r9, sl, fp, ip}
80001808:	e25ef004 	subs	pc, lr, #4

8000180c <except_dabort>:
8000180c:	eaffffe3 	b	800017a0 <except_unhandled>
80001810:	8f400000 	svchi	0x00400000
80001814:	8f800000 	svchi	0x00800000
80001818:	90000000 	andls	r0, r0, r0
8000181c:	80001780 	andhi	r1, r0, r0, lsl #15

80001820 <uart_init>:
80001820:	e52db004 	push	{fp}		; (str fp, [sp, #-4]!)
80001824:	e28db000 	add	fp, sp, #0
80001828:	e28bd000 	add	sp, fp, #0
8000182c:	e8bd0800 	ldmfd	sp!, {fp}
80001830:	e12fff1e 	bx	lr

80001834 <uart_print>:
80001834:	e52db004 	push	{fp}		; (str fp, [sp, #-4]!)
80001838:	e28db000 	add	fp, sp, #0
8000183c:	e24dd014 	sub	sp, sp, #20
80001840:	e50b0010 	str	r0, [fp, #-16]
80001844:	e3a03000 	mov	r3, #0
80001848:	e3413c09 	movt	r3, #7177	; 0x1c09
8000184c:	e50b3008 	str	r3, [fp, #-8]
80001850:	ea000006 	b	80001870 <uart_print+0x3c>
80001854:	e51b3010 	ldr	r3, [fp, #-16]
80001858:	e5d32000 	ldrb	r2, [r3]
8000185c:	e51b3008 	ldr	r3, [fp, #-8]
80001860:	e5c32000 	strb	r2, [r3]
80001864:	e51b3010 	ldr	r3, [fp, #-16]
80001868:	e2833001 	add	r3, r3, #1
8000186c:	e50b3010 	str	r3, [fp, #-16]
80001870:	e51b3010 	ldr	r3, [fp, #-16]
80001874:	e5d33000 	ldrb	r3, [r3]
80001878:	e3530000 	cmp	r3, #0
8000187c:	1afffff4 	bne	80001854 <uart_print+0x20>
80001880:	e28bd000 	add	sp, fp, #0
80001884:	e8bd0800 	ldmfd	sp!, {fp}
80001888:	e12fff1e 	bx	lr

8000188c <uart_putc>:
8000188c:	e52db004 	push	{fp}		; (str fp, [sp, #-4]!)
80001890:	e28db000 	add	fp, sp, #0
80001894:	e24dd014 	sub	sp, sp, #20
80001898:	e1a03000 	mov	r3, r0
8000189c:	e54b300d 	strb	r3, [fp, #-13]
800018a0:	e3a03000 	mov	r3, #0
800018a4:	e3413c09 	movt	r3, #7177	; 0x1c09
800018a8:	e50b3008 	str	r3, [fp, #-8]
800018ac:	e51b3008 	ldr	r3, [fp, #-8]
800018b0:	e55b200d 	ldrb	r2, [fp, #-13]
800018b4:	e5c32000 	strb	r2, [r3]
800018b8:	e28bd000 	add	sp, fp, #0
800018bc:	e8bd0800 	ldmfd	sp!, {fp}
800018c0:	e12fff1e 	bx	lr

800018c4 <uart_print_hex32>:
800018c4:	e92d4800 	push	{fp, lr}
800018c8:	e28db004 	add	fp, sp, #4
800018cc:	e24dd018 	sub	sp, sp, #24
800018d0:	e50b0018 	str	r0, [fp, #-24]
800018d4:	e3a0300f 	mov	r3, #15
800018d8:	e50b3010 	str	r3, [fp, #-16]
800018dc:	e3010e2c 	movw	r0, #7724	; 0x1e2c
800018e0:	e3480000 	movt	r0, #32768	; 0x8000
800018e4:	ebffffd2 	bl	80001834 <uart_print>
800018e8:	e3a03007 	mov	r3, #7
800018ec:	e50b300c 	str	r3, [fp, #-12]
800018f0:	ea000017 	b	80001954 <uart_print_hex32+0x90>
800018f4:	e51b300c 	ldr	r3, [fp, #-12]
800018f8:	e1a03103 	lsl	r3, r3, #2
800018fc:	e51b2018 	ldr	r2, [fp, #-24]
80001900:	e1a02332 	lsr	r2, r2, r3
80001904:	e51b3010 	ldr	r3, [fp, #-16]
80001908:	e0023003 	and	r3, r2, r3
8000190c:	e50b3008 	str	r3, [fp, #-8]
80001910:	e51b3008 	ldr	r3, [fp, #-8]
80001914:	e3530009 	cmp	r3, #9
80001918:	8a000003 	bhi	8000192c <uart_print_hex32+0x68>
8000191c:	e51b3008 	ldr	r3, [fp, #-8]
80001920:	e2833030 	add	r3, r3, #48	; 0x30
80001924:	e50b3008 	str	r3, [fp, #-8]
80001928:	ea000002 	b	80001938 <uart_print_hex32+0x74>
8000192c:	e51b3008 	ldr	r3, [fp, #-8]
80001930:	e2833037 	add	r3, r3, #55	; 0x37
80001934:	e50b3008 	str	r3, [fp, #-8]
80001938:	e51b3008 	ldr	r3, [fp, #-8]
8000193c:	e6ef3073 	uxtb	r3, r3
80001940:	e1a00003 	mov	r0, r3
80001944:	ebffffd0 	bl	8000188c <uart_putc>
80001948:	e51b300c 	ldr	r3, [fp, #-12]
8000194c:	e2433001 	sub	r3, r3, #1
80001950:	e50b300c 	str	r3, [fp, #-12]
80001954:	e51b300c 	ldr	r3, [fp, #-12]
80001958:	e3530000 	cmp	r3, #0
8000195c:	aaffffe4 	bge	800018f4 <uart_print_hex32+0x30>
80001960:	e24bd004 	sub	sp, fp, #4
80001964:	e8bd8800 	pop	{fp, pc}

80001968 <sp804_load>:
80001968:	e52db004 	push	{fp}		; (str fp, [sp, #-4]!)
8000196c:	e28db000 	add	fp, sp, #0
80001970:	e24dd00c 	sub	sp, sp, #12
80001974:	e50b0008 	str	r0, [fp, #-8]
80001978:	e50b100c 	str	r1, [fp, #-12]
8000197c:	e51b300c 	ldr	r3, [fp, #-12]
80001980:	e51b2008 	ldr	r2, [fp, #-8]
80001984:	e5832000 	str	r2, [r3]
80001988:	e28bd000 	add	sp, fp, #0
8000198c:	e8bd0800 	ldmfd	sp!, {fp}
80001990:	e12fff1e 	bx	lr

80001994 <sp804_init_periodic>:
80001994:	e92d4800 	push	{fp, lr}
80001998:	e28db004 	add	fp, sp, #4
8000199c:	e24dd010 	sub	sp, sp, #16
800019a0:	e50b0010 	str	r0, [fp, #-16]
800019a4:	e50b1014 	str	r1, [fp, #-20]
800019a8:	e3a03062 	mov	r3, #98	; 0x62
800019ac:	e50b3008 	str	r3, [fp, #-8]
800019b0:	e51b3010 	ldr	r3, [fp, #-16]
800019b4:	e2833008 	add	r3, r3, #8
800019b8:	e51b2008 	ldr	r2, [fp, #-8]
800019bc:	e5832000 	str	r2, [r3]
800019c0:	e51b3014 	ldr	r3, [fp, #-20]
800019c4:	e3530000 	cmp	r3, #0
800019c8:	0a000003 	beq	800019dc <sp804_init_periodic+0x48>
800019cc:	e51b0014 	ldr	r0, [fp, #-20]
800019d0:	e51b1010 	ldr	r1, [fp, #-16]
800019d4:	ebffffe3 	bl	80001968 <sp804_load>
800019d8:	ea000002 	b	800019e8 <sp804_init_periodic+0x54>
800019dc:	e3a00ffa 	mov	r0, #1000	; 0x3e8
800019e0:	e51b1010 	ldr	r1, [fp, #-16]
800019e4:	ebffffdf 	bl	80001968 <sp804_load>
800019e8:	e24bd004 	sub	sp, fp, #4
800019ec:	e8bd8800 	pop	{fp, pc}

800019f0 <sp804_init_oneshot>:
800019f0:	e52db004 	push	{fp}		; (str fp, [sp, #-4]!)
800019f4:	e28db000 	add	fp, sp, #0
800019f8:	e24dd014 	sub	sp, sp, #20
800019fc:	e50b0010 	str	r0, [fp, #-16]
80001a00:	e51b3010 	ldr	r3, [fp, #-16]
80001a04:	e2833008 	add	r3, r3, #8
80001a08:	e5933000 	ldr	r3, [r3]
80001a0c:	e50b3008 	str	r3, [fp, #-8]
80001a10:	e51b3008 	ldr	r3, [fp, #-8]
80001a14:	e3833003 	orr	r3, r3, #3
80001a18:	e50b3008 	str	r3, [fp, #-8]
80001a1c:	e51b3010 	ldr	r3, [fp, #-16]
80001a20:	e2833008 	add	r3, r3, #8
80001a24:	e51b2008 	ldr	r2, [fp, #-8]
80001a28:	e5832000 	str	r2, [r3]
80001a2c:	e28bd000 	add	sp, fp, #0
80001a30:	e8bd0800 	ldmfd	sp!, {fp}
80001a34:	e12fff1e 	bx	lr

80001a38 <sp804_init>:
80001a38:	e92d4800 	push	{fp, lr}
80001a3c:	e28db004 	add	fp, sp, #4
80001a40:	e24dd008 	sub	sp, sp, #8
80001a44:	e50b0008 	str	r0, [fp, #-8]
80001a48:	e50b100c 	str	r1, [fp, #-12]
80001a4c:	e51b0008 	ldr	r0, [fp, #-8]
80001a50:	e51b100c 	ldr	r1, [fp, #-12]
80001a54:	ebffffce 	bl	80001994 <sp804_init_periodic>
80001a58:	e51b0008 	ldr	r0, [fp, #-8]
80001a5c:	eb00000c 	bl	80001a94 <sp804_start>
80001a60:	e24bd004 	sub	sp, fp, #4
80001a64:	e8bd8800 	pop	{fp, pc}

80001a68 <sp804_stop>:
80001a68:	e52db004 	push	{fp}		; (str fp, [sp, #-4]!)
80001a6c:	e28db000 	add	fp, sp, #0
80001a70:	e24dd00c 	sub	sp, sp, #12
80001a74:	e50b0008 	str	r0, [fp, #-8]
80001a78:	e51b3008 	ldr	r3, [fp, #-8]
80001a7c:	e2833008 	add	r3, r3, #8
80001a80:	e3a02000 	mov	r2, #0
80001a84:	e5832000 	str	r2, [r3]
80001a88:	e28bd000 	add	sp, fp, #0
80001a8c:	e8bd0800 	ldmfd	sp!, {fp}
80001a90:	e12fff1e 	bx	lr

80001a94 <sp804_start>:
80001a94:	e52db004 	push	{fp}		; (str fp, [sp, #-4]!)
80001a98:	e28db000 	add	fp, sp, #0
80001a9c:	e24dd014 	sub	sp, sp, #20
80001aa0:	e50b0010 	str	r0, [fp, #-16]
80001aa4:	e51b3010 	ldr	r3, [fp, #-16]
80001aa8:	e2833008 	add	r3, r3, #8
80001aac:	e5933000 	ldr	r3, [r3]
80001ab0:	e50b3008 	str	r3, [fp, #-8]
80001ab4:	e51b3008 	ldr	r3, [fp, #-8]
80001ab8:	e3833080 	orr	r3, r3, #128	; 0x80
80001abc:	e50b3008 	str	r3, [fp, #-8]
80001ac0:	e51b3010 	ldr	r3, [fp, #-16]
80001ac4:	e2833008 	add	r3, r3, #8
80001ac8:	e51b2008 	ldr	r2, [fp, #-8]
80001acc:	e5832000 	str	r2, [r3]
80001ad0:	e28bd000 	add	sp, fp, #0
80001ad4:	e8bd0800 	ldmfd	sp!, {fp}
80001ad8:	e12fff1e 	bx	lr

80001adc <sp804_read>:
80001adc:	e52db004 	push	{fp}		; (str fp, [sp, #-4]!)
80001ae0:	e28db000 	add	fp, sp, #0
80001ae4:	e24dd00c 	sub	sp, sp, #12
80001ae8:	e50b0008 	str	r0, [fp, #-8]
80001aec:	e51b3008 	ldr	r3, [fp, #-8]
80001af0:	e2833004 	add	r3, r3, #4
80001af4:	e5933000 	ldr	r3, [r3]
80001af8:	e1a00003 	mov	r0, r3
80001afc:	e28bd000 	add	sp, fp, #0
80001b00:	e8bd0800 	ldmfd	sp!, {fp}
80001b04:	e12fff1e 	bx	lr

80001b08 <sp804_irq_clear>:
80001b08:	e52db004 	push	{fp}		; (str fp, [sp, #-4]!)
80001b0c:	e28db000 	add	fp, sp, #0
80001b10:	e24dd00c 	sub	sp, sp, #12
80001b14:	e50b0008 	str	r0, [fp, #-8]
80001b18:	e51b3008 	ldr	r3, [fp, #-8]
80001b1c:	e283300c 	add	r3, r3, #12
80001b20:	e3a02001 	mov	r2, #1
80001b24:	e5832000 	str	r2, [r3]
80001b28:	e28bd000 	add	sp, fp, #0
80001b2c:	e8bd0800 	ldmfd	sp!, {fp}
80001b30:	e12fff1e 	bx	lr

80001b34 <interrupt_sp804_timer>:
80001b34:	e92d4800 	push	{fp, lr}
80001b38:	e28db004 	add	fp, sp, #4
80001b3c:	e24dd018 	sub	sp, sp, #24
80001b40:	e50b0010 	str	r0, [fp, #-16]
80001b44:	e50b1014 	str	r1, [fp, #-20]
80001b48:	e50b2018 	str	r2, [fp, #-24]
80001b4c:	e3010e30 	movw	r0, #7728	; 0x1e30
80001b50:	e3480000 	movt	r0, #32768	; 0x8000
80001b54:	ebffff36 	bl	80001834 <uart_print>
80001b58:	e3a00000 	mov	r0, #0
80001b5c:	e3410c11 	movt	r0, #7185	; 0x1c11
80001b60:	ebffffdd 	bl	80001adc <sp804_read>
80001b64:	e50b0008 	str	r0, [fp, #-8]
80001b68:	e3010e5c 	movw	r0, #7772	; 0x1e5c
80001b6c:	e3480000 	movt	r0, #32768	; 0x8000
80001b70:	ebffff2f 	bl	80001834 <uart_print>
80001b74:	e51b0008 	ldr	r0, [fp, #-8]
80001b78:	ebffff51 	bl	800018c4 <uart_print_hex32>
80001b7c:	e3010e64 	movw	r0, #7780	; 0x1e64
80001b80:	e3480000 	movt	r0, #32768	; 0x8000
80001b84:	ebffff2a 	bl	80001834 <uart_print>
80001b88:	e3a00000 	mov	r0, #0
80001b8c:	e3410c11 	movt	r0, #7185	; 0x1c11
80001b90:	ebffffdc 	bl	80001b08 <sp804_irq_clear>
80001b94:	e3010e30 	movw	r0, #7728	; 0x1e30
80001b98:	e3480000 	movt	r0, #32768	; 0x8000
80001b9c:	ebffff24 	bl	80001834 <uart_print>
80001ba0:	e24bd004 	sub	sp, fp, #4
80001ba4:	e8bd8800 	pop	{fp, pc}

80001ba8 <hvmm_tests_sp804_timer>:
80001ba8:	e92d4800 	push	{fp, lr}
80001bac:	e28db004 	add	fp, sp, #4
80001bb0:	e3a00000 	mov	r0, #0
80001bb4:	e3410c11 	movt	r0, #7185	; 0x1c11
80001bb8:	e30816a0 	movw	r1, #34464	; 0x86a0
80001bbc:	e3401001 	movt	r1, #1
80001bc0:	ebffff9c 	bl	80001a38 <sp804_init>
80001bc4:	e3a00022 	mov	r0, #34	; 0x22
80001bc8:	ebfffac2 	bl	800006d8 <gic_enable_irq>
80001bcc:	e3a00022 	mov	r0, #34	; 0x22
80001bd0:	e3011b34 	movw	r1, #6964	; 0x1b34
80001bd4:	e3481000 	movt	r1, #32768	; 0x8000
80001bd8:	e3a02000 	mov	r2, #0
80001bdc:	ebfffae9 	bl	80000788 <gic_set_irq_handler>
80001be0:	e3a03000 	mov	r3, #0
80001be4:	e1a00003 	mov	r0, r3
80001be8:	e8bd8800 	pop	{fp, pc}

Disassembly of section .rodata:

80001bec <.LC0>:
80001bec:	6575675b 	ldrbvs	r6, [r5, #-1883]!	; 0x75b
80001bf0:	5d307473 	cfldrspl	mvf7, [r0, #-460]!	; 0xfffffe34
80001bf4:	00000020 	andeq	r0, r0, r0, lsr #32

80001bf8 <.LC1>:
80001bf8:	3d3d0d0a 	ldccc	13, cr0, [sp, #-40]!	; 0xffffffd8
80001bfc:	7453203d 	ldrbvc	r2, [r3], #-61	; 0x3d
80001c00:	69747261 	ldmdbvs	r4!, {r0, r5, r6, r9, ip, sp, lr}^
80001c04:	7020676e 	eorvc	r6, r0, lr, ror #14
80001c08:	6674616c 	ldrbtvs	r6, [r4], -ip, ror #2
80001c0c:	206d726f 	rsbcs	r7, sp, pc, ror #4
80001c10:	6e69616d 	powvsez	f6, f1, #5.0
80001c14:	00000d0a 	andeq	r0, r0, sl, lsl #26

80001c18 <.LC0>:
80001c18:	6575675b 	ldrbvs	r6, [r5, #-1883]!	; 0x75b
80001c1c:	5d307473 	cfldrspl	mvf7, [r0, #-460]!	; 0xfffffe34
80001c20:	00000020 	andeq	r0, r0, r0, lsr #32

80001c24 <.LC1>:
80001c24:	203d3d3d 	eorscs	r3, sp, sp, lsr sp
80001c28:	72617453 	rsbvc	r7, r1, #1392508928	; 0x53000000
80001c2c:	676e6974 			; <UNDEFINED> instruction: 0x676e6974
80001c30:	6d6f6320 	stclvs	3, cr6, [pc, #-128]!	; 80001bb8 <hvmm_tests_sp804_timer+0x10>
80001c34:	206d6f6d 	rsbcs	r6, sp, sp, ror #30
80001c38:	72617473 	rsbvc	r7, r1, #1929379840	; 0x73000000
80001c3c:	70752074 	rsbsvc	r2, r5, r4, ror r0
80001c40:	00000d0a 	andeq	r0, r0, sl, lsl #26

80001c44 <.LC2>:
80001c44:	72657469 	rsbvc	r7, r5, #1761607680	; 0x69000000
80001c48:	6f697461 	svcvs	0x00697461
80001c4c:	0000206e 	andeq	r2, r0, lr, rrx

80001c50 <.LC3>:
80001c50:	00000d0a 	andeq	r0, r0, sl, lsl #26

80001c54 <.LC4>:
80001c54:	63767368 	cmnvs	r6, #104, 6	; 0xa0000001
80001c58:	6e69705f 	mcrvs	0, 3, r7, cr9, cr15, {2}
80001c5c:	0a292867 	beq	80a4be00 <end_bss+0xa49de3>
80001c60:	0000000d 	andeq	r0, r0, sp

80001c64 <.LC5>:
80001c64:	75746572 	ldrbvc	r6, [r4, #-1394]!	; 0x572
80001c68:	64656e72 	strbtvs	r6, [r5], #-3698	; 0xe72
80001c6c:	6f726620 	svcvs	0x00726620
80001c70:	7368206d 	cmnvc	r8, #109	; 0x6d
80001c74:	705f6376 	subsvc	r6, pc, r6, ror r3	; <UNPREDICTABLE>
80001c78:	28676e69 	stmdacs	r7!, {r0, r3, r5, r6, r9, sl, fp, sp, lr}^
80001c7c:	000d0a29 	andeq	r0, sp, r9, lsr #20

80001c80 <.LC6>:
80001c80:	63767368 	cmnvs	r6, #104, 6	; 0xa0000001
80001c84:	6569795f 	strbvs	r7, [r9, #-2399]!	; 0x95f
80001c88:	2928646c 	stmdbcs	r8!, {r2, r3, r5, r6, sl, sp, lr}
80001c8c:	00000d0a 	andeq	r0, r0, sl, lsl #26

80001c90 <.LC7>:
80001c90:	75746572 	ldrbvc	r6, [r4, #-1394]!	; 0x572
80001c94:	64656e72 	strbtvs	r6, [r5], #-3698	; 0xe72
80001c98:	6f726620 	svcvs	0x00726620
80001c9c:	7368206d 	cmnvc	r8, #109	; 0x6d
80001ca0:	795f6376 	ldmdbvc	pc, {r1, r2, r4, r5, r6, r8, r9, sp, lr}^	; <UNPREDICTABLE>
80001ca4:	646c6569 	strbtvs	r6, [ip], #-1385	; 0x569
80001ca8:	0d0a2928 	stceq	9, cr2, [sl, #-160]	; 0xffffff60
80001cac:	00000000 	andeq	r0, r0, r0

80001cb0 <.LC8>:
80001cb0:	6d6d6f63 	stclvs	15, cr6, [sp, #-396]!	; 0xfffffe74
80001cb4:	6e206e6f 	cdpvs	14, 2, cr6, cr0, cr15, {3}
80001cb8:	6c5f6d72 	mrrcvs	13, 7, r6, pc, cr2	; <UNPREDICTABLE>
80001cbc:	20706f6f 	rsbscs	r6, r0, pc, ror #30
80001cc0:	656e6f64 	strbvs	r6, [lr, #-3940]!	; 0xf64
80001cc4:	00000d0a 	andeq	r0, r0, sl, lsl #26

80001cc8 <.LC9>:
80001cc8:	2d4b5b0a 	vstrcs	d21, [fp, #-40]	; 0xffffffd8
80001ccc:	45505948 	ldrbmi	r5, [r0, #-2376]	; 0x948
80001cd0:	53495652 	movtpl	r5, #38482	; 0x9652
80001cd4:	545d524f 	ldrbpl	r5, [sp], #-591	; 0x24f
80001cd8:	23545345 	cmpcs	r4, #335544321	; 0x14000001
80001cdc:	54534e49 	ldrbpl	r4, [r3], #-3657	; 0xe49
80001ce0:	414c4c41 	cmpmi	ip, r1, asr #24
80001ce4:	4e4f4954 	mcrmi	9, 2, r4, cr15, cr4, {2}
80001ce8:	474d4223 	strbmi	r4, [sp, -r3, lsr #4]
80001cec:	54534555 	ldrbpl	r4, [r3], #-1365	; 0x555
80001cf0:	4f4f422d 	svcmi	0x004f422d
80001cf4:	41502354 	cmpmi	r0, r4, asr r3
80001cf8:	0d0a5353 	stceq	3, cr5, [sl, #-332]	; 0xfffffeb4
80001cfc:	00000000 	andeq	r0, r0, r0

80001d00 <.LC0>:
80001d00:	00000d0a 	andeq	r0, r0, sl, lsl #26

80001d04 <.LC1>:
80001d04:	7264696d 	rsbvc	r6, r4, #1785856	; 0x1b4000
80001d08:	0000003a 	andeq	r0, r0, sl, lsr r0

80001d0c <.LC2>:
80001d0c:	20636967 	rsbcs	r6, r3, r7, ror #18
80001d10:	65736162 	ldrbvs	r6, [r3, #-354]!	; 0x162
80001d14:	72646461 	rsbvc	r6, r4, #1627389952	; 0x61000000
80001d18:	0000003a 	andeq	r0, r0, sl, lsr r0

80001d1c <.LC3>:
80001d1c:	675f6162 	ldrbvs	r6, [pc, -r2, ror #2]
80001d20:	3a646369 	bcc	8191aacc <end_bss+0x1918aaf>
80001d24:	00000000 	andeq	r0, r0, r0

80001d28 <.LC4>:
80001d28:	44434947 	strbmi	r4, [r3], #-2375	; 0x947
80001d2c:	5059545f 	subspl	r5, r9, pc, asr r4
80001d30:	003a5245 	eorseq	r5, sl, r5, asr #4

80001d34 <.LC5>:
80001d34:	675f6162 	ldrbvs	r6, [pc, -r2, ror #2]
80001d38:	3a636369 	bcc	818daae4 <end_bss+0x18d8ac7>
80001d3c:	00000000 	andeq	r0, r0, r0

80001d40 <.LC6>:
80001d40:	43434947 	movtmi	r4, #14663	; 0x3947
80001d44:	4c54435f 	mrrcmi	3, 5, r4, r4, cr15	; <UNPREDICTABLE>
80001d48:	00003a52 	andeq	r3, r0, r2, asr sl

80001d4c <.LC7>:
80001d4c:	43494720 	movtmi	r4, #38688	; 0x9720
80001d50:	4d505f43 	ldclmi	15, cr5, [r0, #-268]	; 0xfffffef4
80001d54:	00003a52 	andeq	r3, r0, r2, asr sl

80001d58 <.LC8>:
80001d58:	43494720 	movtmi	r4, #38688	; 0x9720
80001d5c:	50425f43 	subpl	r5, r2, r3, asr #30
80001d60:	00003a52 	andeq	r3, r0, r2, asr sl

80001d64 <.LC9>:
80001d64:	43494720 	movtmi	r4, #38688	; 0x9720
80001d68:	50525f43 	subspl	r5, r2, r3, asr #30
80001d6c:	00003a52 	andeq	r3, r0, r2, asr sl

80001d70 <.LC10>:
80001d70:	43434947 	movtmi	r4, #14663	; 0x3947
80001d74:	5050485f 	subspl	r4, r0, pc, asr r8
80001d78:	003a5249 	eorseq	r5, sl, r9, asr #4

80001d7c <.LC11>:
80001d7c:	43434947 	movtmi	r4, #14663	; 0x3947
80001d80:	4449495f 	strbmi	r4, [r9], #-2399	; 0x95f
80001d84:	00003a52 	andeq	r3, r0, r2, asr sl

80001d88 <.LC12>:
80001d88:	76434947 	strbvc	r4, [r3], -r7, asr #18
80001d8c:	6e552032 	mrcvs	0, 2, r2, cr5, cr2, {1}
80001d90:	70707573 	rsbsvc	r7, r0, r3, ror r5
80001d94:	6574726f 	ldrbvs	r7, [r4, #-623]!	; 0x26f
80001d98:	000d0a64 	andeq	r0, sp, r4, ror #20

80001d9c <.LC13>:
80001d9c:	7264696d 	rsbvc	r6, r4, #1785856	; 0x1b4000
80001da0:	6e70702e 	cdpvs	0, 7, cr7, cr0, cr14, {1}
80001da4:	0000003a 	andeq	r0, r0, sl, lsr r0

80001da8 <.LC0>:
80001da8:	76656476 			; <UNDEFINED> instruction: 0x76656476
80001dac:	6d61735f 	stclvs	3, cr7, [r1, #-380]!	; 0xfffffe84
80001db0:	3a656c70 	bcc	8195cf78 <end_bss+0x195af5b>
80001db4:	61745320 	cmnvs	r4, r0, lsr #6
80001db8:	6e697472 	mcrvs	4, 3, r7, cr9, cr2, {3}
80001dbc:	65742067 	ldrbvs	r2, [r4, #-103]!	; 0x67
80001dc0:	2e2e7473 	mcrcs	4, 1, r7, cr14, cr3, {3}
80001dc4:	62202c2e 	eorvs	r2, r0, #11776	; 0x2e00
80001dc8:	3a657361 	bcc	8195eb54 <end_bss+0x195cb37>
80001dcc:	00000000 	andeq	r0, r0, r0

80001dd0 <.LC1>:
80001dd0:	00000d0a 	andeq	r0, r0, sl, lsl #26

80001dd4 <.LC2>:
80001dd4:	00283176 	eoreq	r3, r8, r6, ror r1

80001dd8 <.LC3>:
80001dd8:	32762b29 	rsbscc	r2, r6, #41984	; 0xa400
80001ddc:	00000028 	andeq	r0, r0, r8, lsr #32

80001de0 <.LC4>:
80001de0:	000d0a29 	andeq	r0, sp, r9, lsr #20

80001de4 <.LC5>:
80001de4:	20202020 	eorcs	r2, r0, r0, lsr #32
80001de8:	2872203d 	ldmdacs	r2!, {r0, r2, r3, r4, r5, sp}^
80001dec:	00000000 	andeq	r0, r0, r0

80001df0 <.LC6>:
80001df0:	202d2029 	eorcs	r2, sp, r9, lsr #32
80001df4:	00004b4f 	andeq	r4, r0, pc, asr #22

80001df8 <.LC7>:
80001df8:	202d2029 	eorcs	r2, sp, r9, lsr #32
80001dfc:	4c494146 	stfmie	f4, [r9], {70}	; 0x46
80001e00:	00004445 	andeq	r4, r0, r5, asr #8

80001e04 <.LC8>:
80001e04:	76656476 			; <UNDEFINED> instruction: 0x76656476
80001e08:	6d61735f 	stclvs	3, cr7, [r1, #-380]!	; 0xfffffe84
80001e0c:	3a656c70 	bcc	8195cfd4 <end_bss+0x195afb7>
80001e10:	646e4520 	strbtvs	r4, [lr], #-1312	; 0x520
80001e14:	00000d0a 	andeq	r0, r0, sl, lsl #26

80001e18 <hexchars.3940>:
80001e18:	33323130 	teqcc	r2, #48, 2
80001e1c:	37363534 			; <UNDEFINED> instruction: 0x37363534
80001e20:	42413938 	submi	r3, r1, #56, 18	; 0xe0000
80001e24:	46454443 	strbmi	r4, [r5], -r3, asr #8
80001e28:	00000000 	andeq	r0, r0, r0

80001e2c <.LC0>:
80001e2c:	00007830 	andeq	r7, r0, r0, lsr r8

80001e30 <.LC0>:
80001e30:	3d3d3d3d 	ldccc	13, cr3, [sp, #-244]!	; 0xffffff0c
80001e34:	3d3d3d3d 	ldccc	13, cr3, [sp, #-244]!	; 0xffffff0c
80001e38:	3d3d3d3d 	ldccc	13, cr3, [sp, #-244]!	; 0xffffff0c
80001e3c:	3d3d3d3d 	ldccc	13, cr3, [sp, #-244]!	; 0xffffff0c
80001e40:	3d3d3d3d 	ldccc	13, cr3, [sp, #-244]!	; 0xffffff0c
80001e44:	3d3d3d3d 	ldccc	13, cr3, [sp, #-244]!	; 0xffffff0c
80001e48:	3d3d3d3d 	ldccc	13, cr3, [sp, #-244]!	; 0xffffff0c
80001e4c:	3d3d3d3d 	ldccc	13, cr3, [sp, #-244]!	; 0xffffff0c
80001e50:	3d3d3d3d 	ldccc	13, cr3, [sp, #-244]!	; 0xffffff0c
80001e54:	0a3d3d3d 	beq	80f51350 <end_bss+0xf4f333>
80001e58:	0000000d 	andeq	r0, r0, sp

80001e5c <.LC1>:
80001e5c:	30387073 	eorscc	r7, r8, r3, ror r0
80001e60:	00003a34 	andeq	r3, r0, r4, lsr sl

80001e64 <.LC2>:
80001e64:	00000d0a 	andeq	r0, r0, sl, lsl #26

Disassembly of section .data:

80001e68 <base>:
80001e68:	3fffe000 	svccc	0x00ffe000

Disassembly of section .bss:

80001e6c <begin_bss>:
	...

8000201c <_dummy_byte>:
	...

Disassembly of section .ARM.attributes:

00000000 <.ARM.attributes>:
   0:	00003d41 	andeq	r3, r0, r1, asr #26
   4:	61656100 	cmnvs	r5, r0, lsl #2
   8:	01006962 	tsteq	r0, r2, ror #18
   c:	00000033 	andeq	r0, r0, r3, lsr r0
  10:	726f4305 	rsbvc	r4, pc, #335544320	; 0x14000000
  14:	2d786574 	cfldr64cs	mvdx6, [r8, #-464]!	; 0xfffffe30
  18:	00353141 	eorseq	r3, r5, r1, asr #2
  1c:	41070a06 	tstmi	r7, r6, lsl #20
  20:	02090108 	andeq	r0, r9, #8, 2
  24:	0412040a 	ldreq	r0, [r2], #-1034	; 0x40a
  28:	01150114 	tsteq	r5, r4, lsl r1
  2c:	01180317 	tsteq	r8, r7, lsl r3
  30:	031b021a 	tsteq	fp, #-1610612735	; 0xa0000001
  34:	0122011c 	teqeq	r2, ip, lsl r1
  38:	022c012a 	eoreq	r0, ip, #-2147483638	; 0x8000000a
  3c:	Address 0x000000000000003c is out of bounds.


Disassembly of section .comment:

00000000 <.comment>:
   0:	3a434347 	bcc	10d0d24 <GUEST_OFFSET-0x7ef2f2dc>
   4:	62552820 	subsvs	r2, r5, #32, 16	; 0x200000
   8:	75746e75 	ldrbvc	r6, [r4, #-3701]!	; 0xe75
   c:	6e694c2f 	cdpvs	12, 6, cr4, cr9, cr15, {1}
  10:	206f7261 	rsbcs	r7, pc, r1, ror #4
  14:	2e372e34 	mrccs	14, 1, r2, cr7, cr4, {1}
  18:	31312d33 	teqcc	r1, r3, lsr sp
  1c:	6e756275 	mrcvs	2, 3, r6, cr5, cr5, {3}
  20:	29317574 	ldmdbcs	r1!, {r2, r4, r5, r6, r8, sl, ip, sp, lr}
  24:	372e3420 	strcc	r3, [lr, -r0, lsr #8]!
  28:	Address 0x0000000000000028 is out of bounds.


Disassembly of section .debug_line:

00000000 <.debug_line>:
   0:	00000032 	andeq	r0, r0, r2, lsr r0
   4:	001d0002 	andseq	r0, sp, r2
   8:	01020000 	mrseq	r0, (UNDEF: 2)
   c:	000d0efb 	strdeq	r0, [sp], -fp
  10:	01010101 	tsteq	r1, r1, lsl #2
  14:	01000000 	mrseq	r0, (UNDEF: 0)
  18:	00010000 	andeq	r0, r1, r0
  1c:	746f6f62 	strbtvc	r6, [pc], #-3938	; 24 <GUEST_OFFSET-0x7fffffdc>
  20:	0000532e 	andeq	r5, r0, lr, lsr #6
  24:	00000000 	andeq	r0, r0, r0
  28:	00000205 	andeq	r0, r0, r5, lsl #4
  2c:	0f038000 	svceq	0x00038000
  30:	00020201 	andeq	r0, r2, r1, lsl #4
  34:	003b0101 	eorseq	r0, fp, r1, lsl #2
  38:	00020000 	andeq	r0, r2, r0
  3c:	0000001d 	andeq	r0, r0, sp, lsl r0
  40:	0efb0102 	cdpeq	1, 15, cr0, cr11, cr2, {0}
  44:	0101000d 	tsteq	r1, sp
  48:	00000101 	andeq	r0, r0, r1, lsl #2
  4c:	00000100 	andeq	r0, r0, r0, lsl #2
  50:	616d0001 	cmnvs	sp, r1
  54:	632e6e69 	teqvs	lr, #1680	; 0x690
  58:	00000000 	andeq	r0, r0, r0
  5c:	02050000 	andeq	r0, r5, #0
  60:	80000004 	andhi	r0, r0, r4
  64:	4c011303 	stcmi	3, cr1, [r1], {3}
  68:	04020067 	streq	r0, [r2], #-103	; 0x67
  6c:	66190301 	ldrvs	r0, [r9], -r1, lsl #6
  70:	01000202 	tsteq	r0, r2, lsl #4
  74:	00008f01 	andeq	r8, r0, r1, lsl #30
  78:	3e000200 	cdpcc	2, 0, cr0, cr0, cr0, {0}
  7c:	02000000 	andeq	r0, r0, #0
  80:	0d0efb01 	vstreq	d15, [lr, #-4]
  84:	01010100 	mrseq	r0, (UNDEF: 17)
  88:	00000001 	andeq	r0, r0, r1
  8c:	01000001 	tsteq	r0, r1
  90:	2e2f2e2e 	cdpcs	14, 2, cr2, cr15, cr14, {1}
  94:	2e2e2f2e 	cdpcs	15, 2, cr2, cr14, cr14, {1}
  98:	2f2e2e2f 	svccs	0x002e2e2f
  9c:	6d6d6f63 	stclvs	15, cr6, [sp, #-396]!	; 0xfffffe74
  a0:	672f6e6f 	strvs	r6, [pc, -pc, ror #28]!
  a4:	74736575 	ldrbtvc	r6, [r3], #-1397	; 0x575
  a8:	726f632f 	rsbvc	r6, pc, #-1140850688	; 0xbc000000
  ac:	63000065 	movwvs	r0, #101	; 0x65
  b0:	6174735f 	cmnvs	r4, pc, asr r3
  b4:	632e7472 	teqvs	lr, #1912602624	; 0x72000000
  b8:	00000100 	andeq	r0, r0, r0, lsl #2
  bc:	02050000 	andeq	r0, r5, #0
  c0:	80000028 	andhi	r0, r0, r8, lsr #32
  c4:	67013303 	strvs	r3, [r1, -r3, lsl #6]
  c8:	0402004b 	streq	r0, [r2], #-75	; 0x4b
  cc:	00660602 	rsbeq	r0, r6, r2, lsl #12
  d0:	66010402 	strvs	r0, [r1], -r2, lsl #8
  d4:	67698406 	strbvs	r8, [r9, -r6, lsl #8]!
  d8:	68692f4e 	stmdavs	r9!, {r1, r2, r3, r6, r8, r9, sl, fp, sp}^
  dc:	09034c30 	stmdbeq	r3, {r4, r5, sl, fp, lr}
  e0:	6767672e 	strbvs	r6, [r7, -lr, lsr #14]!
  e4:	83336767 	teqhi	r3, #27000832	; 0x19c0000
  e8:	672f6767 	strvs	r6, [pc, -r7, ror #14]!
  ec:	2f676784 	svccs	0x00676784
  f0:	63036e67 	movwvs	r6, #15975	; 0x3e67
  f4:	0402002e 	streq	r0, [r2], #-46	; 0x2e
  f8:	06660601 	strbteq	r0, [r6], -r1, lsl #12
  fc:	67822003 	strvs	r2, [r2, r3]
 100:	022f6867 	eoreq	r6, pc, #6750208	; 0x670000
 104:	01010004 	tsteq	r1, r4
 108:	0000005b 	andeq	r0, r0, fp, asr r0
 10c:	00400002 	subeq	r0, r0, r2
 110:	01020000 	mrseq	r0, (UNDEF: 2)
 114:	000d0efb 	strdeq	r0, [sp], -fp
 118:	01010101 	tsteq	r1, r1, lsl #2
 11c:	01000000 	mrseq	r0, (UNDEF: 0)
 120:	2e010000 	cdpcs	0, 0, cr0, cr1, cr0, {0}
 124:	2e2e2f2e 	cdpcs	15, 2, cr2, cr14, cr14, {1}
 128:	2f2e2e2f 	svccs	0x002e2e2f
 12c:	632f2e2e 	teqvs	pc, #736	; 0x2e0
 130:	6f6d6d6f 	svcvs	0x006d6d6f
 134:	75672f6e 	strbvc	r2, [r7, #-3950]!	; 0xf6e
 138:	2f747365 	svccs	0x00747365
 13c:	65726f63 	ldrbvs	r6, [r2, #-3939]!	; 0xf63
 140:	78650000 	stmdavc	r5!, {}^	; <UNPREDICTABLE>
 144:	74706563 	ldrbtvc	r6, [r0], #-1379	; 0x563
 148:	2e6e6f69 	cdpcs	15, 6, cr6, cr14, cr9, {3}
 14c:	00010063 	andeq	r0, r1, r3, rrx
 150:	05000000 	streq	r0, [r0, #-0]
 154:	0001bc02 	andeq	fp, r1, r2, lsl #24
 158:	010a0380 	smlabbeq	sl, r0, r3, r0
 15c:	69836983 	stmibvs	r3, {r0, r1, r7, r8, fp, sp, lr}
 160:	04026783 	streq	r6, [r2], #-1923	; 0x783
 164:	46010100 	strmi	r0, [r1], -r0, lsl #2
 168:	02000001 	andeq	r0, r0, #1
 16c:	00008700 	andeq	r8, r0, r0, lsl #14
 170:	fb010200 	blx	4097a <GUEST_OFFSET-0x7ffbf686>
 174:	01000d0e 	tsteq	r0, lr, lsl #26
 178:	00010101 	andeq	r0, r1, r1, lsl #2
 17c:	00010000 	andeq	r0, r1, r0
 180:	2e2e0100 	sufcse	f0, f6, f0
 184:	2f2e2e2f 	svccs	0x002e2e2f
 188:	2e2f2e2e 	cdpcs	14, 2, cr2, cr15, cr14, {1}
 18c:	6f632f2e 	svcvs	0x00632f2e
 190:	6e6f6d6d 	cdpvs	13, 6, cr6, cr15, cr13, {3}
 194:	636e692f 	cmnvs	lr, #770048	; 0xbc000
 198:	6564756c 	strbvs	r7, [r4, #-1388]!	; 0x56c
 19c:	2f2e2e00 	svccs	0x002e2e00
 1a0:	2e2f2e2e 	cdpcs	14, 2, cr2, cr15, cr14, {1}
 1a4:	2e2e2f2e 	cdpcs	15, 2, cr2, cr14, cr14, {1}
 1a8:	6d6f632f 	stclvs	3, cr6, [pc, #-188]!	; f4 <GUEST_OFFSET-0x7fffff0c>
 1ac:	2f6e6f6d 	svccs	0x006e6f6d
 1b0:	73657567 	cmnvc	r5, #432013312	; 0x19c00000
 1b4:	6f632f74 	svcvs	0x00632f74
 1b8:	00006572 	andeq	r6, r0, r2, ror r5
 1bc:	2e706d73 	mrccs	13, 3, r6, cr0, cr3, {3}
 1c0:	00010068 	andeq	r0, r1, r8, rrx
 1c4:	63696700 	cmnvs	r9, #0, 14
 1c8:	0200632e 	andeq	r6, r0, #-1207959552	; 0xb8000000
 1cc:	72610000 	rsbvc	r0, r1, #0
 1d0:	745f6863 	ldrbvc	r6, [pc], #-2147	; 1d8 <GUEST_OFFSET-0x7ffffe28>
 1d4:	73657079 	cmnvc	r5, #121	; 0x79
 1d8:	0100682e 	tsteq	r0, lr, lsr #16
 1dc:	76680000 	strbtvc	r0, [r8], -r0
 1e0:	745f6d6d 	ldrbvc	r6, [pc], #-3437	; 1e8 <GUEST_OFFSET-0x7ffffe18>
 1e4:	73657079 	cmnvc	r5, #121	; 0x79
 1e8:	0100682e 	tsteq	r0, lr, lsr #16
 1ec:	69670000 	stmdbvs	r7!, {}^	; <UNPREDICTABLE>
 1f0:	00682e63 	rsbeq	r2, r8, r3, ror #28
 1f4:	00000002 	andeq	r0, r0, r2
 1f8:	18020500 	stmdane	r2, {r8, sl}
 1fc:	03800002 	orreq	r0, r0, #2
 200:	83670115 	cmnhi	r7, #1073741829	; 0x40000005
 204:	22030204 	andcs	r0, r3, #4, 4	; 0x40000000
 208:	bbbb6982 	bllt	feeda818 <guest_stacklimit+0x6eeda818>
 20c:	bcbbbbbb 	fldmiaxlt	fp!, {d11-d103}	;@ Deprecated
 210:	67d7839f 	bfcvs	r8, #7, #17
 214:	68d7839f 	ldmvs	r7, {r0, r1, r2, r3, r4, r7, r8, r9, pc}^
 218:	6783694d 	strvs	r6, [r3, sp, asr #18]
 21c:	67bc674b 	ldrvs	r6, [ip, fp, asr #14]!
 220:	9f67679f 	svcls	0x0067679f
 224:	67d76767 	ldrbvs	r6, [r7, r7, ror #14]
 228:	67679f67 	strbvs	r9, [r7, -r7, ror #30]!
 22c:	d76767bb 			; <UNDEFINED> instruction: 0xd76767bb
 230:	67d76767 	ldrbvs	r6, [r7, r7, ror #14]
 234:	6767d767 	strbvs	sp, [r7, -r7, ror #14]!
 238:	d76767d7 			; <UNDEFINED> instruction: 0xd76767d7
 23c:	844d3168 	strbhi	r3, [sp], #-360	; 0x168
 240:	4b67834c 	blmi	19e0f78 <GUEST_OFFSET-0x7e61f088>
 244:	f383bb6d 			; <UNDEFINED> instruction: 0xf383bb6d
 248:	676768f3 			; <UNDEFINED> instruction: 0x676768f3
 24c:	2f4d679f 	svccs	0x004d679f
 250:	9108836b 	tstls	r8, fp, ror #6
 254:	0883852f 	stmeq	r3, {r0, r1, r2, r3, r5, r8, sl, pc}
 258:	bb862f91 	bllt	fe18c0a4 <guest_stacklimit+0x6e18c0a4>
 25c:	3d08674b 	stccc	7, cr6, [r8, #-300]	; 0xfffffed4
 260:	67852f4c 	strvs	r2, [r5, ip, asr #30]
 264:	0402004d 	streq	r0, [r2], #-77	; 0x4d
 268:	02006702 	andeq	r6, r0, #524288	; 0x80000
 26c:	3b080204 	blcc	200a84 <GUEST_OFFSET-0x7fdff57c>
 270:	01040200 	mrseq	r0, R12_usr
 274:	69066606 	stmdbvs	r6, {r1, r2, r9, sl, sp, lr}
 278:	bb3e0868 	bllt	f82420 <GUEST_OFFSET-0x7f07dbe0>
 27c:	4b833067 	blmi	fe0cc420 <guest_stacklimit+0x6e0cc420>
 280:	0200a067 	andeq	sl, r0, #103	; 0x67
 284:	00670204 	rsbeq	r0, r7, r4, lsl #4
 288:	08020402 	stmdaeq	r2, {r1, sl}
 28c:	0402001f 	streq	r0, [r2], #-31
 290:	06660601 	strbteq	r0, [r6], -r1, lsl #12
 294:	a6692f69 	strbtge	r2, [r9], -r9, ror #30
 298:	679f4d4c 	ldrvs	r4, [pc, ip, asr #26]
 29c:	9f6767bb 	svcls	0x006767bb
 2a0:	699f6767 	ldmibvs	pc, {r0, r1, r2, r5, r6, r8, r9, sl, sp, lr}	; <UNPREDICTABLE>
 2a4:	af085908 	svcge	0x00085908
 2a8:	ba0903bb 	blt	24119c <GUEST_OFFSET-0x7fdbee64>
 2ac:	01000402 	tsteq	r0, r2, lsl #8
 2b0:	0000ad01 	andeq	sl, r0, r1, lsl #26
 2b4:	72000200 	andvc	r0, r0, #0, 4
 2b8:	02000000 	andeq	r0, r0, #0
 2bc:	0d0efb01 	vstreq	d15, [lr, #-4]
 2c0:	01010100 	mrseq	r0, (UNDEF: 17)
 2c4:	00000001 	andeq	r0, r0, r1
 2c8:	01000001 	tsteq	r0, r1
 2cc:	2e2f2e2e 	cdpcs	14, 2, cr2, cr15, cr14, {1}
 2d0:	2e2e2f2e 	cdpcs	15, 2, cr2, cr14, cr14, {1}
 2d4:	2f2e2e2f 	svccs	0x002e2e2f
 2d8:	6d6d6f63 	stclvs	15, cr6, [sp, #-396]!	; 0xfffffe74
 2dc:	672f6e6f 	strvs	r6, [pc, -pc, ror #28]!
 2e0:	74736575 	ldrbtvc	r6, [r3], #-1397	; 0x575
 2e4:	7365742f 	cmnvc	r5, #788529152	; 0x2f000000
 2e8:	2e2e0074 	mcrcs	0, 1, r0, cr14, cr4, {3}
 2ec:	2f2e2e2f 	svccs	0x002e2e2f
 2f0:	2e2f2e2e 	cdpcs	14, 2, cr2, cr15, cr14, {1}
 2f4:	6f632f2e 	svcvs	0x00632f2e
 2f8:	6e6f6d6d 	cdpvs	13, 6, cr6, cr15, cr13, {3}
 2fc:	636e692f 	cmnvs	lr, #770048	; 0xbc000
 300:	6564756c 	strbvs	r7, [r4, #-1388]!	; 0x56c
 304:	65740000 	ldrbvs	r0, [r4, #-0]!
 308:	765f7473 			; <UNDEFINED> instruction: 0x765f7473
 30c:	5f766564 	svcpl	0x00766564
 310:	706d6173 	rsbvc	r6, sp, r3, ror r1
 314:	632e656c 	teqvs	lr, #108, 10	; 0x1b000000
 318:	00000100 	andeq	r0, r0, r0, lsl #2
 31c:	68637261 	stmdavs	r3!, {r0, r5, r6, r9, ip, sp, lr}^
 320:	7079745f 	rsbsvc	r7, r9, pc, asr r4
 324:	682e7365 	stmdavs	lr!, {r0, r2, r5, r6, r8, r9, ip, sp, lr}
 328:	00000200 	andeq	r0, r0, r0, lsl #4
 32c:	02050000 	andeq	r0, r5, #0
 330:	80000aa0 	andhi	r0, r0, r0, lsr #21
 334:	67010a03 	strvs	r0, [r1, -r3, lsl #20]
 338:	69674b67 	stmdbvs	r7!, {r0, r1, r2, r5, r6, r8, r9, fp, lr}^
 33c:	67676767 	strbvs	r6, [r7, -r7, ror #14]!
 340:	6767bb83 	strbvs	fp, [r7, -r3, lsl #23]!
 344:	67676767 	strbvs	r6, [r7, -r7, ror #14]!
 348:	67676767 	strbvs	r6, [r7, -r7, ror #14]!
 34c:	036884bb 	cmneq	r8, #-1157627904	; 0xbb000000
 350:	0200666e 	andeq	r6, r0, #115343360	; 0x6e00000
 354:	66060104 	strvs	r0, [r6], -r4, lsl #2
 358:	66140306 	ldrvs	r0, [r4], -r6, lsl #6
 35c:	00040267 	andeq	r0, r4, r7, ror #4
 360:	00820101 	addeq	r0, r2, r1, lsl #2
 364:	00020000 	andeq	r0, r2, r0
 368:	0000006d 	andeq	r0, r0, sp, rrx
 36c:	0efb0102 	cdpeq	1, 15, cr0, cr11, cr2, {0}
 370:	0101000d 	tsteq	r1, sp
 374:	00000101 	andeq	r0, r0, r1, lsl #2
 378:	00000100 	andeq	r0, r0, r0, lsl #2
 37c:	2f2e2e01 	svccs	0x002e2e01
 380:	2e2f2e2e 	cdpcs	14, 2, cr2, cr15, cr14, {1}
 384:	2e2e2f2e 	cdpcs	15, 2, cr2, cr14, cr14, {1}
 388:	6d6f632f 	stclvs	3, cr6, [pc, #-188]!	; 2d4 <GUEST_OFFSET-0x7ffffd2c>
 38c:	2f6e6f6d 	svccs	0x006e6f6d
 390:	73657567 	cmnvc	r5, #432013312	; 0x19c00000
 394:	65742f74 	ldrbvs	r2, [r4, #-3956]!	; 0xf74
 398:	2e007473 	mcrcs	4, 0, r7, cr0, cr3, {3}
 39c:	2e2e2f2e 	cdpcs	15, 2, cr2, cr14, cr14, {1}
 3a0:	2f2e2e2f 	svccs	0x002e2e2f
 3a4:	632f2e2e 	teqvs	pc, #736	; 0x2e0
 3a8:	6f6d6d6f 	svcvs	0x006d6d6f
 3ac:	6e692f6e 	cdpvs	15, 6, cr2, cr9, cr14, {3}
 3b0:	64756c63 	ldrbtvs	r6, [r5], #-3171	; 0xc63
 3b4:	74000065 	strvc	r0, [r0], #-101	; 0x65
 3b8:	5f747365 	svcpl	0x00747365
 3bc:	6d697476 	cfstrdvs	mvd7, [r9, #-472]!	; 0xfffffe28
 3c0:	632e7265 	teqvs	lr, #1342177286	; 0x50000006
 3c4:	00000100 	andeq	r0, r0, r0, lsl #2
 3c8:	68637261 	stmdavs	r3!, {r0, r5, r6, r9, ip, sp, lr}^
 3cc:	7079745f 	rsbsvc	r7, r9, pc, asr r4
 3d0:	682e7365 	stmdavs	lr!, {r0, r2, r5, r6, r8, r9, ip, sp, lr}
 3d4:	00000200 	andeq	r0, r0, r0, lsl #4
 3d8:	02050000 	andeq	r0, r5, #0
 3dc:	80000c14 	andhi	r0, r0, r4, lsl ip
 3e0:	029f831a 	addseq	r8, pc, #1744830464	; 0x68000000
 3e4:	01010006 	tsteq	r1, r6
 3e8:	00000254 	andeq	r0, r0, r4, asr r2
 3ec:	00d40002 	sbcseq	r0, r4, r2
 3f0:	01020000 	mrseq	r0, (UNDEF: 2)
 3f4:	000d0efb 	strdeq	r0, [sp], -fp
 3f8:	01010101 	tsteq	r1, r1, lsl #2
 3fc:	01000000 	mrseq	r0, (UNDEF: 0)
 400:	2e010000 	cdpcs	0, 0, cr0, cr1, cr0, {0}
 404:	2e2e2f2e 	cdpcs	15, 2, cr2, cr14, cr14, {1}
 408:	2f2e2e2f 	svccs	0x002e2e2f
 40c:	632f2e2e 	teqvs	pc, #736	; 0x2e0
 410:	6f6d6d6f 	svcvs	0x006d6d6f
 414:	6f6c2f6e 	svcvs	0x006c2f6e
 418:	752f0067 	strvc	r0, [pc, #-103]!	; 3b9 <GUEST_OFFSET-0x7ffffc47>
 41c:	6c2f7273 	sfmvs	f7, 4, [pc], #-460	; 258 <GUEST_OFFSET-0x7ffffda8>
 420:	672f6269 	strvs	r6, [pc, -r9, ror #4]!
 424:	632d6363 	teqvs	sp, #-1946157055	; 0x8c000001
 428:	73736f72 	cmnvc	r3, #456	; 0x1c8
 42c:	6d72612f 	ldfvse	f6, [r2, #-188]!	; 0xffffff44
 430:	6e696c2d 	cdpvs	12, 6, cr6, cr9, cr13, {1}
 434:	672d7875 			; <UNDEFINED> instruction: 0x672d7875
 438:	6165756e 	cmnvs	r5, lr, ror #10
 43c:	66686962 	strbtvs	r6, [r8], -r2, ror #18
 440:	372e342f 	strcc	r3, [lr, -pc, lsr #8]!
 444:	2f2e2e2f 	svccs	0x002e2e2f
 448:	2e2f2e2e 	cdpcs	14, 2, cr2, cr15, cr14, {1}
 44c:	2e2e2f2e 	cdpcs	15, 2, cr2, cr14, cr14, {1}
 450:	6d72612f 	ldfvse	f6, [r2, #-188]!	; 0xffffff44
 454:	6e696c2d 	cdpvs	12, 6, cr6, cr9, cr13, {1}
 458:	672d7875 			; <UNDEFINED> instruction: 0x672d7875
 45c:	6165756e 	cmnvs	r5, lr, ror #10
 460:	66686962 	strbtvs	r6, [r8], -r2, ror #18
 464:	636e692f 	cmnvs	lr, #770048	; 0xbc000
 468:	6564756c 	strbvs	r7, [r4, #-1388]!	; 0x56c
 46c:	73752f00 	cmnvc	r5, #0, 30
 470:	696c2f72 	stmdbvs	ip!, {r1, r4, r5, r6, r8, r9, sl, fp, sp}^
 474:	63672f62 	cmnvs	r7, #392	; 0x188
 478:	72632d63 	rsbvc	r2, r3, #6336	; 0x18c0
 47c:	2f73736f 	svccs	0x0073736f
 480:	2d6d7261 	sfmcs	f7, 2, [sp, #-388]!	; 0xfffffe7c
 484:	756e696c 	strbvc	r6, [lr, #-2412]!	; 0x96c
 488:	6e672d78 	mcrvs	13, 3, r2, cr7, cr8, {3}
 48c:	62616575 	rsbvs	r6, r1, #490733568	; 0x1d400000
 490:	2f666869 	svccs	0x00666869
 494:	2f372e34 	svccs	0x00372e34
 498:	6c636e69 	stclvs	14, cr6, [r3], #-420	; 0xfffffe5c
 49c:	00656475 	rsbeq	r6, r5, r5, ror r4
 4a0:	72747300 	rsbsvc	r7, r4, #0, 6
 4a4:	2e676e69 	cdpcs	14, 6, cr6, cr7, cr9, {3}
 4a8:	00010063 	andeq	r0, r1, r3, rrx
 4ac:	72747300 	rsbsvc	r7, r4, #0, 6
 4b0:	2e676e69 	cdpcs	14, 6, cr6, cr7, cr9, {3}
 4b4:	00020068 	andeq	r0, r2, r8, rrx
 4b8:	64747300 	ldrbtvs	r7, [r4], #-768	; 0x300
 4bc:	2e666564 	cdpcs	5, 6, cr6, cr6, cr4, {3}
 4c0:	00030068 	andeq	r0, r3, r8, rrx
 4c4:	05000000 	streq	r0, [r0, #-0]
 4c8:	000c4402 	andeq	r4, ip, r2, lsl #8
 4cc:	83bb1580 			; <UNDEFINED> instruction: 0x83bb1580
 4d0:	0402002f 	streq	r0, [r2], #-47	; 0x2f
 4d4:	083b0801 	ldmdaeq	fp!, {r0, fp}
 4d8:	bb852f3f 	bllt	fe14c1dc <guest_stacklimit+0x6e14c1dc>
 4dc:	2f68499f 	svccs	0x0068499f
 4e0:	01040200 	mrseq	r0, R12_usr
 4e4:	3f083b08 	svccc	0x00083b08
 4e8:	9fbb852f 	svcls	0x00bb852f
 4ec:	bc83bb69 	fstmiaxlt	r3, {d11-d62}	;@ Deprecated
 4f0:	4bbb699f 	blmi	feedab74 <guest_stacklimit+0x6eedab74>
 4f4:	0200672f 	andeq	r6, r0, #12320768	; 0xbc0000
 4f8:	00640104 	rsbeq	r0, r4, r4, lsl #2
 4fc:	06020402 	streq	r0, [r2], -r2, lsl #8
 500:	67be0666 	ldrvs	r0, [lr, r6, ror #12]!
 504:	83852f4c 	orrhi	r2, r5, #76, 30	; 0x130
 508:	02002f4b 	andeq	r2, r0, #300	; 0x12c
 50c:	84650104 	strbthi	r0, [r5], #-260	; 0x104
 510:	4bbb8567 	blmi	feee1ab4 <guest_stacklimit+0x6eee1ab4>
 514:	0402002f 	streq	r0, [r2], #-47	; 0x2f
 518:	3e08d501 	cfsh32cc	mvfx13, mvfx8, #1
 51c:	4bbb852f 	blmi	feee19e0 <guest_stacklimit+0x6eee19e0>
 520:	4bbb2f4b 	blmi	feecc254 <guest_stacklimit+0x6eecc254>
 524:	00674cbb 	strhteq	r4, [r7], #-203	; 0xffffff35
 528:	03010402 	movweq	r0, #5122	; 0x1402
 52c:	09036679 	stmdbeq	r3, {r0, r3, r4, r5, r6, r9, sl, sp, lr}
 530:	852f3c08 	strhi	r3, [pc, #-3080]!	; fffff930 <guest_stacklimit+0x6ffff930>
 534:	4bbb2f9f 	blmi	feecc3b8 <guest_stacklimit+0x6eecc3b8>
 538:	00674cbb 	strhteq	r4, [r7], #-203	; 0xffffff35
 53c:	03010402 	movweq	r0, #5122	; 0x1402
 540:	02006679 	andeq	r6, r0, #126877696	; 0x7900000
 544:	82060204 	andhi	r0, r6, #4, 4	; 0x40000000
 548:	82090306 	andhi	r0, r9, #402653184	; 0x18000000
 54c:	01040200 	mrseq	r0, R12_usr
 550:	83068206 	movwhi	r8, #25094	; 0x6206
 554:	2f4c834b 	svccs	0x004c834b
 558:	bb2fbb85 	bllt	bef374 <GUEST_OFFSET-0x7f410c8c>
 55c:	674bbb4b 	strbvs	fp, [fp, -fp, asr #22]
 560:	01040200 	mrseq	r0, R12_usr
 564:	00667a03 	rsbeq	r7, r6, r3, lsl #20
 568:	06020402 	streq	r0, [r2], -r2, lsl #8
 56c:	04020082 	streq	r0, [r2], #-130	; 0x82
 570:	08068201 	stmdaeq	r6, {r0, r9, pc}
 574:	04020044 	streq	r0, [r2], #-68	; 0x44
 578:	06660601 	strbteq	r0, [r6], -r1, lsl #12
 57c:	4c834bf3 	fstmiaxmi	r3, {d4-d124}	;@ Deprecated
 580:	4b9f852f 	blmi	fe7e1a44 <guest_stacklimit+0x6e7e1a44>
 584:	0402002f 	streq	r0, [r2], #-47	; 0x2f
 588:	02006501 	andeq	r6, r0, #4194304	; 0x400000
 58c:	82060204 	andhi	r0, r6, #4, 4	; 0x40000000
 590:	4c83bd06 	stcmi	13, cr11, [r3], {6}
 594:	00a0852f 	adceq	r8, r0, pc, lsr #10
 598:	67020402 	strvs	r0, [r2, -r2, lsl #8]
 59c:	02040200 	andeq	r0, r4, #0, 4
 5a0:	040200f1 	streq	r0, [r2], #-241	; 0xf1
 5a4:	06660601 	strbteq	r0, [r6], -r1, lsl #12
 5a8:	852f9fbd 	strhi	r9, [pc, #-4029]!	; fffff5f3 <guest_stacklimit+0x6ffff5f3>
 5ac:	004c4b83 	subeq	r4, ip, r3, lsl #23
 5b0:	06010402 	streq	r0, [r1], -r2, lsl #8
 5b4:	4c9f0682 	ldcmi	6, cr0, [pc], {130}	; 0x82
 5b8:	0402002f 	streq	r0, [r2], #-47	; 0x2f
 5bc:	06ba0601 	ldrteq	r0, [sl], r1, lsl #12
 5c0:	003d08bb 	ldrhteq	r0, [sp], -fp
 5c4:	06010402 	streq	r0, [r1], -r2, lsl #8
 5c8:	08bb06ba 	ldmeq	fp!, {r1, r3, r4, r5, r7, r9, sl}
 5cc:	0402003d 	streq	r0, [r2], #-61	; 0x3d
 5d0:	06ba0601 	ldrteq	r0, [sl], r1, lsl #12
 5d4:	032108bb 	teqeq	r1, #12255232	; 0xbb0000
 5d8:	02008279 	andeq	r8, r0, #-1879048185	; 0x90000007
 5dc:	2e060104 	adfcss	f0, f6, f4
 5e0:	ba0a0306 	blt	281200 <GUEST_OFFSET-0x7fd7ee00>
 5e4:	4d9f852f 	cfldr32mi	mvfx8, [pc, #188]	; 6a8 <GUEST_OFFSET-0x7ffff958>
 5e8:	04020067 	streq	r0, [r2], #-103	; 0x67
 5ec:	06660601 	strbteq	r0, [r6], -r1, lsl #12
 5f0:	842df3f6 	strthi	pc, [sp], #-1014	; 0x3f6
 5f4:	02002b7e 	andeq	r2, r0, #129024	; 0x1f800
 5f8:	66060104 	strvs	r0, [r6], -r4, lsl #2
 5fc:	66090306 	strvs	r0, [r9], -r6, lsl #6
 600:	9f689f67 	svcls	0x00689f67
 604:	002f9f69 	eoreq	r9, pc, r9, ror #30
 608:	65010402 	strvs	r0, [r1, #-1026]	; 0x402
 60c:	67832f85 	strvs	r2, [r3, r5, lsl #31]
 610:	01040200 	mrseq	r0, R12_usr
 614:	2f678763 	svccs	0x00678763
 618:	bbbc8385 	bllt	fef21434 <guest_stacklimit+0x6ef21434>
 61c:	082f694b 	stmdaeq	pc!, {r0, r1, r3, r6, r8, fp, sp, lr}	; <UNPREDICTABLE>
 620:	02008091 	andeq	r8, r0, #145	; 0x91
 624:	2e060104 	adfcss	f0, f6, f4
 628:	0200bf06 	andeq	fp, r0, #6, 30
 62c:	66060104 	strvs	r0, [r6], -r4, lsl #2
 630:	02040200 	andeq	r0, r4, #0, 4
 634:	04020066 	streq	r0, [r2], #-102	; 0x66
 638:	022f0603 	eoreq	r0, pc, #3145728	; 0x300000
 63c:	01010008 	tsteq	r1, r8
 640:	00000086 	andeq	r0, r0, r6, lsl #1
 644:	003c0002 	eorseq	r0, ip, r2
 648:	01020000 	mrseq	r0, (UNDEF: 2)
 64c:	000d0efb 	strdeq	r0, [sp], -fp
 650:	01010101 	tsteq	r1, r1, lsl #2
 654:	01000000 	mrseq	r0, (UNDEF: 0)
 658:	2e010000 	cdpcs	0, 0, cr0, cr1, cr0, {0}
 65c:	2e2e2f2e 	cdpcs	15, 2, cr2, cr14, cr14, {1}
 660:	2f2e2e2f 	svccs	0x002e2e2f
 664:	632f2e2e 	teqvs	pc, #736	; 0x2e0
 668:	6f6d6d6f 	svcvs	0x006d6d6f
 66c:	75672f6e 	strbvc	r2, [r7, #-3950]!	; 0xf6e
 670:	2f747365 	svccs	0x00747365
 674:	65726f63 	ldrbvs	r6, [r2, #-3939]!	; 0xf63
 678:	75670000 	strbvc	r0, [r7, #-0]!
 67c:	2e747365 	cdpcs	3, 7, cr7, cr4, cr5, {3}
 680:	00010053 	andeq	r0, r1, r3, asr r0
 684:	05000000 	streq	r0, [r0, #-0]
 688:	00174002 	andseq	r4, r7, r2
 68c:	010f0380 	smlabbeq	pc, r0, r3, r0	; <UNPREDICTABLE>
 690:	2f312f31 	svccs	0x00312f31
 694:	03312f31 	teqeq	r1, #49, 30	; 0xc4
 698:	f7302e0e 			; <UNDEFINED> instruction: 0xf7302e0e
 69c:	2f2f2f2f 	svccs	0x002f2f2f
 6a0:	2f322f2f 	svccs	0x00322f2f
 6a4:	312f302f 	teqcc	pc, pc, lsr #32
 6a8:	322f2f2f 	eorcc	r2, pc, #47, 30	; 0xbc
 6ac:	2f302f2f 	svccs	0x00302f2f
 6b0:	2f2f2f31 	svccs	0x002f2f31
 6b4:	302f2f32 	eorcc	r2, pc, r2, lsr pc	; <UNPREDICTABLE>
 6b8:	2f2f312f 	svccs	0x002f312f
 6bc:	a2033331 	andge	r3, r3, #-1006632960	; 0xc4000000
 6c0:	32322e7f 	eorscc	r2, r2, #2032	; 0x7f0
 6c4:	00020231 	andeq	r0, r2, r1, lsr r2
 6c8:	005d0101 	subseq	r0, sp, r1, lsl #2
 6cc:	00020000 	andeq	r0, r2, r0
 6d0:	00000025 	andeq	r0, r0, r5, lsr #32
 6d4:	0efb0102 	cdpeq	1, 15, cr0, cr11, cr2, {0}
 6d8:	0101000d 	tsteq	r1, sp
 6dc:	00000101 	andeq	r0, r0, r1, lsl #2
 6e0:	00000100 	andeq	r0, r0, r0, lsl #2
 6e4:	69726401 	ldmdbvs	r2!, {r0, sl, sp, lr}^
 6e8:	73726576 	cmnvc	r2, #494927872	; 0x1d800000
 6ec:	61750000 	cmnvs	r5, r0
 6f0:	632e7472 	teqvs	lr, #1912602624	; 0x72000000
 6f4:	00000100 	andeq	r0, r0, r0, lsl #2
 6f8:	02050000 	andeq	r0, r5, #0
 6fc:	80001820 	andhi	r1, r0, r0, lsr #16
 700:	4a090319 	bmi	24136c <GUEST_OFFSET-0x7fdbec94>
 704:	2f678369 	svccs	0x00678369
 708:	01040200 	mrseq	r0, R12_usr
 70c:	9f6984d5 	svcls	0x006984d5
 710:	83696767 	cmnhi	r9, #27000832	; 0x19c0000
 714:	d767674d 	strble	r6, [r7, -sp, asr #14]!
 718:	03678467 	cmneq	r7, #1728053248	; 0x67000000
 71c:	0200827a 	andeq	r8, r0, #-1610612729	; 0xa0000007
 720:	66060104 	strvs	r0, [r6], -r4, lsl #2
 724:	04026e06 	streq	r6, [r2], #-3590	; 0xe06
 728:	ab010100 	blge	40b30 <GUEST_OFFSET-0x7ffbf4d0>
 72c:	02000000 	andeq	r0, r0, #0
 730:	00006700 	andeq	r6, r0, r0, lsl #14
 734:	fb010200 	blx	40f3e <GUEST_OFFSET-0x7ffbf0c2>
 738:	01000d0e 	tsteq	r0, lr, lsl #26
 73c:	00010101 	andeq	r0, r1, r1, lsl #2
 740:	00010000 	andeq	r0, r1, r0
 744:	72640100 	rsbvc	r0, r4, #0, 2
 748:	72657669 	rsbvc	r7, r5, #110100480	; 0x6900000
 74c:	2e2e0073 	mcrcs	0, 1, r0, cr14, cr3, {3}
 750:	2f2e2e2f 	svccs	0x002e2e2f
 754:	2e2f2e2e 	cdpcs	14, 2, cr2, cr15, cr14, {1}
 758:	6f632f2e 	svcvs	0x00632f2e
 75c:	6e6f6d6d 	cdpvs	13, 6, cr6, cr15, cr13, {3}
 760:	636e692f 	cmnvs	lr, #770048	; 0xbc000
 764:	6564756c 	strbvs	r7, [r4, #-1388]!	; 0x56c
 768:	70730000 	rsbsvc	r0, r3, r0
 76c:	5f343038 	svcpl	0x00343038
 770:	656d6974 	strbvs	r6, [sp, #-2420]!	; 0x974
 774:	00632e72 	rsbeq	r2, r3, r2, ror lr
 778:	61000001 	tstvs	r0, r1
 77c:	5f686372 	svcpl	0x00686372
 780:	65707974 	ldrbvs	r7, [r0, #-2420]!	; 0x974
 784:	00682e73 	rsbeq	r2, r8, r3, ror lr
 788:	68000002 	stmdavs	r0, {r1}
 78c:	5f6d6d76 	svcpl	0x006d6d76
 790:	65707974 	ldrbvs	r7, [r0, #-2420]!	; 0x974
 794:	00682e73 	rsbeq	r2, r8, r3, ror lr
 798:	00000002 	andeq	r0, r0, r2
 79c:	68020500 	stmdavs	r2, {r8, sl}
 7a0:	03800019 	orreq	r0, r0, #25
 7a4:	679f012a 	ldrvs	r0, [pc, sl, lsr #2]
 7a8:	844ba169 	strbhi	sl, [fp], #-361	; 0x169
 7ac:	4d678467 	cfstrdmi	mvd8, [r7, #-412]!	; 0xfffffe64
 7b0:	83678483 	cmnhi	r7, #-2097152000	; 0x83000000
 7b4:	4b679f68 	blmi	19e855c <GUEST_OFFSET-0x7e617aa4>
 7b8:	6983834e 	stmibvs	r3, {r1, r2, r3, r6, r8, r9, pc}
 7bc:	83678383 	cmnhi	r7, #201326594	; 0xc000002
 7c0:	85678369 	strbhi	r8, [r7, #-873]!	; 0x369
 7c4:	be698383 	cdplt	3, 6, cr8, cr9, cr3, {4}
 7c8:	4b678368 	blmi	19e1570 <GUEST_OFFSET-0x7e61ea90>
 7cc:	4d676868 	stclmi	8, cr6, [r7, #-416]!	; 0xfffffe60
 7d0:	a04b9f4d 	subge	r9, fp, sp, asr #30
 7d4:	0004022f 	andeq	r0, r4, pc, lsr #4
 7d8:	Address 0x00000000000007d8 is out of bounds.


Disassembly of section .debug_info:

00000000 <.debug_info>:
       0:	00000077 	andeq	r0, r0, r7, ror r0
       4:	00000002 	andeq	r0, r0, r2
       8:	01040000 	mrseq	r0, (UNDEF: 4)
       c:	00000000 	andeq	r0, r0, r0
      10:	80000000 	andhi	r0, r0, r0
      14:	80000004 	andhi	r0, r0, r4
      18:	746f6f62 	strbtvc	r6, [pc], #-3938	; 20 <GUEST_OFFSET-0x7fffffe0>
      1c:	2f00532e 	svccs	0x0000532e
      20:	656d6f68 	strbvs	r6, [sp, #-3944]!	; 0xf68
      24:	7361632f 	cmnvc	r1, #-1140850688	; 0xbc000000
      28:	776e6f69 	strbvc	r6, [lr, -r9, ror #30]!
      2c:	6b2f6f6f 	blvs	bdbdf0 <GUEST_OFFSET-0x7f424210>
      30:	65707968 	ldrbvs	r7, [r0, #-2408]!	; 0x968
      34:	73697672 	cmnvc	r9, #119537664	; 0x7200000
      38:	702f726f 	eorvc	r7, pc, pc, ror #4
      3c:	6674616c 	ldrbtvs	r6, [r4], -ip, ror #2
      40:	2d6d726f 	sfmcs	f7, 2, [sp, #-444]!	; 0xfffffe44
      44:	69766564 	ldmdbvs	r6!, {r2, r5, r6, r8, sl, sp, lr}^
      48:	632f6563 	teqvs	pc, #415236096	; 0x18c00000
      4c:	6574726f 	ldrbvs	r7, [r4, #-623]!	; 0x26f
      50:	31615f78 	smccc	5624	; 0x15f8
      54:	5f327835 	svcpl	0x00327835
      58:	6d737472 	cfldrdvs	mvd7, [r3, #-456]!	; 0xfffffe38
      5c:	6575672f 	ldrbvs	r6, [r5, #-1839]!	; 0x72f
      60:	736f7473 	cmnvc	pc, #1929379840	; 0x73000000
      64:	676d622f 	strbvs	r6, [sp, -pc, lsr #4]!
      68:	74736575 	ldrbtvc	r6, [r3], #-1397	; 0x575
      6c:	554e4700 	strbpl	r4, [lr, #-1792]	; 0x700
      70:	20534120 	subscs	r4, r3, r0, lsr #2
      74:	34322e32 	ldrtcc	r2, [r2], #-3634	; 0xe32
      78:	6a800100 	bvs	fe000480 <guest_stacklimit+0x6e000480>
      7c:	02000000 	andeq	r0, r0, #0
      80:	00001400 	andeq	r1, r0, r0, lsl #8
      84:	07010400 	streq	r0, [r1, -r0, lsl #8]
      88:	01000000 	mrseq	r0, (UNDEF: 0)
      8c:	00000000 	andeq	r0, r0, r0
      90:	0000003d 	andeq	r0, r0, sp, lsr r0
      94:	80000004 	andhi	r0, r0, r4
      98:	80000028 	andhi	r0, r0, r8, lsr #32
      9c:	00000036 	andeq	r0, r0, r6, lsr r0
      a0:	69050402 	stmdbvs	r5, {r1, sl}
      a4:	0300746e 	movweq	r7, #1134	; 0x46e
      a8:	001d0704 	andseq	r0, sp, r4, lsl #14
      ac:	02030000 	andeq	r0, r3, #0
      b0:	00008b07 	andeq	r8, r0, r7, lsl #22
      b4:	07080300 	streq	r0, [r8, -r0, lsl #6]
      b8:	00000013 	andeq	r0, r0, r3, lsl r0
      bc:	2a080103 	bcs	2004d0 <GUEST_OFFSET-0x7fdffb30>
      c0:	04000000 	streq	r0, [r0], #-0
      c4:	00003801 	andeq	r3, r0, r1, lsl #16
      c8:	25130100 	ldrcs	r0, [r3, #-256]	; 0x100
      cc:	04000000 	streq	r0, [r0], #-0
      d0:	28800000 	stmcs	r0, {}	; <UNPREDICTABLE>
      d4:	00800000 	addeq	r0, r0, r0
      d8:	01000000 	mrseq	r0, (UNDEF: 0)
      dc:	6c617605 	stclvs	6, cr7, [r1], #-20	; 0xffffffec
      e0:	25150100 	ldrcs	r0, [r5, #-256]	; 0x100
      e4:	00000000 	andeq	r0, r0, r0
      e8:	0000a300 	andeq	sl, r0, r0, lsl #6
      ec:	63000200 	movwvs	r0, #512	; 0x200
      f0:	04000000 	streq	r0, [r0], #-0
      f4:	00000701 	andeq	r0, r0, r1, lsl #14
      f8:	009e0100 	addseq	r0, lr, r0, lsl #2
      fc:	003d0000 	eorseq	r0, sp, r0
     100:	00280000 	eoreq	r0, r8, r0
     104:	01bc8000 			; <UNDEFINED> instruction: 0x01bc8000
     108:	00758000 	rsbseq	r8, r5, r0
     10c:	04020000 	streq	r0, [r2], #-0
     110:	746e6905 	strbtvc	r6, [lr], #-2309	; 0x905
     114:	07040300 	streq	r0, [r4, -r0, lsl #6]
     118:	0000001d 	andeq	r0, r0, sp, lsl r0
     11c:	8b070203 	blhi	1c0930 <GUEST_OFFSET-0x7fe3f6d0>
     120:	03000000 	movweq	r0, #0
     124:	00130708 	andseq	r0, r3, r8, lsl #14
     128:	01030000 	mrseq	r0, (UNDEF: 3)
     12c:	00002a08 	andeq	r2, r0, r8, lsl #20
     130:	c6010400 	strgt	r0, [r1], -r0, lsl #8
     134:	01000000 	mrseq	r0, (UNDEF: 0)
     138:	00280133 	eoreq	r0, r8, r3, lsr r1
     13c:	00708000 	rsbseq	r8, r0, r0
     140:	002c8000 	eoreq	r8, ip, r0
     144:	6f010000 	svcvs	0x00010000
     148:	05000000 	streq	r0, [r0, #-0]
     14c:	35010069 	strcc	r0, [r1, #-105]	; 0x69
     150:	0000006f 	andeq	r0, r0, pc, rrx
     154:	00749102 	rsbseq	r9, r4, r2, lsl #2
     158:	00002506 	andeq	r2, r0, r6, lsl #10
     15c:	d0010700 	andle	r0, r1, r0, lsl #14
     160:	01000000 	mrseq	r0, (UNDEF: 0)
     164:	0070013a 	rsbseq	r0, r0, sl, lsr r1
     168:	01bc8000 			; <UNDEFINED> instruction: 0x01bc8000
     16c:	00588000 	subseq	r8, r8, r0
     170:	05010000 	streq	r0, [r1, #-0]
     174:	3c010069 	stccc	0, cr0, [r1], {105}	; 0x69
     178:	00000025 	andeq	r0, r0, r5, lsr #32
     17c:	08749102 	ldmdaeq	r4!, {r1, r8, ip, pc}^
     180:	00003801 	andeq	r3, r0, r1, lsl #16
     184:	25770100 	ldrbcs	r0, [r7, #-256]!	; 0x100
     188:	01000000 	mrseq	r0, (UNDEF: 0)
     18c:	00000009 	andeq	r0, r0, r9
     190:	0000010d 	andeq	r0, r0, sp, lsl #2
     194:	00eb0002 	rsceq	r0, fp, r2
     198:	01040000 	mrseq	r0, (UNDEF: 4)
     19c:	00000007 	andeq	r0, r0, r7
     1a0:	0000eb01 	andeq	lr, r0, r1, lsl #22
     1a4:	00003d00 	andeq	r3, r0, r0, lsl #26
     1a8:	0001bc00 	andeq	fp, r1, r0, lsl #24
     1ac:	00021880 	andeq	r1, r2, r0, lsl #17
     1b0:	00010880 	andeq	r0, r1, r0, lsl #17
     1b4:	011a0200 	tsteq	sl, r0, lsl #4
     1b8:	013c0000 	teqeq	ip, r0
     1bc:	00005b03 	andeq	r5, r0, r3, lsl #22
     1c0:	01150300 	tsteq	r5, r0, lsl #6
     1c4:	04010000 	streq	r0, [r1], #-0
     1c8:	0000005b 	andeq	r0, r0, fp, asr r0
     1cc:	04002302 	streq	r2, [r0], #-770	; 0x302
     1d0:	01006370 	tsteq	r0, r0, ror r3
     1d4:	00005b05 	andeq	r5, r0, r5, lsl #22
     1d8:	04230200 	strteq	r0, [r3], #-512	; 0x200
     1dc:	72706704 	rsbsvc	r6, r0, #4, 14	; 0x100000
     1e0:	62060100 	andvs	r0, r6, #0, 2
     1e4:	02000000 	andeq	r0, r0, #0
     1e8:	05000823 	streq	r0, [r0, #-2083]	; 0x823
     1ec:	001d0704 	andseq	r0, sp, r4, lsl #14
     1f0:	5b060000 	blpl	1801f8 <GUEST_OFFSET-0x7fe7fe08>
     1f4:	72000000 	andvc	r0, r0, #0
     1f8:	07000000 	streq	r0, [r0, -r0]
     1fc:	00000072 	andeq	r0, r0, r2, ror r0
     200:	0405000c 	streq	r0, [r5], #-12
     204:	00013007 	andeq	r3, r1, r7
     208:	d9010800 	stmdble	r1, {fp}
     20c:	01000000 	mrseq	r0, (UNDEF: 0)
     210:	01bc010a 			; <UNDEFINED> instruction: 0x01bc010a
     214:	01d88000 	bicseq	r8, r8, r0
     218:	00848000 	addeq	r8, r4, r0
     21c:	a2010000 	andge	r0, r1, #0
     220:	09000000 	stmdbeq	r0, {}	; <UNPREDICTABLE>
     224:	0000011f 	andeq	r0, r0, pc, lsl r1
     228:	00a20a01 	adceq	r0, r2, r1, lsl #20
     22c:	91020000 	mrsls	r0, (UNDEF: 2)
     230:	040a0074 	streq	r0, [sl], #-116	; 0x74
     234:	00000025 	andeq	r0, r0, r5, lsr #32
     238:	01470108 	cmpeq	r7, r8, lsl #2
     23c:	0e010000 	cdpeq	0, 0, cr0, cr1, cr0, {0}
     240:	0001d801 	andeq	sp, r1, r1, lsl #16
     244:	0001f480 	andeq	pc, r1, r0, lsl #9
     248:	0000b080 	andeq	fp, r0, r0, lsl #1
     24c:	00d10100 	sbcseq	r0, r1, r0, lsl #2
     250:	1f090000 	svcne	0x00090000
     254:	01000001 	tsteq	r0, r1
     258:	0000a20e 	andeq	sl, r0, lr, lsl #4
     25c:	74910200 	ldrvc	r0, [r1], #512	; 0x200
     260:	24010b00 	strcs	r0, [r1], #-2816	; 0xb00
     264:	01000001 	tsteq	r0, r1
     268:	01f40112 	mvnseq	r0, r2, lsl r1
     26c:	02188000 	andseq	r8, r8, #0
     270:	00dc8000 	sbcseq	r8, ip, r0
     274:	09010000 	stmdbeq	r1, {}	; <UNPREDICTABLE>
     278:	09000001 	stmdbeq	r0, {r0}
     27c:	0000011f 	andeq	r0, r0, pc, lsl r1
     280:	00a21201 	adceq	r1, r2, r1, lsl #4
     284:	91020000 	mrsls	r0, (UNDEF: 2)
     288:	39010c74 	stmdbcc	r1, {r2, r4, r5, r6, sl, fp}
     28c:	01000001 	tsteq	r0, r1
     290:	00010914 	andeq	r0, r1, r4, lsl r9
     294:	000d0100 	andeq	r0, sp, r0, lsl #2
     298:	05040e00 	streq	r0, [r4, #-3584]	; 0xe00
     29c:	00746e69 	rsbseq	r6, r4, r9, ror #28
     2a0:	0003f700 	andeq	pc, r3, r0, lsl #14
     2a4:	b6000200 	strlt	r0, [r0], -r0, lsl #4
     2a8:	04000001 	streq	r0, [r0], #-1
     2ac:	00000701 	andeq	r0, r0, r1, lsl #14
     2b0:	02100100 	andseq	r0, r0, #0, 2
     2b4:	003d0000 	eorseq	r0, sp, r0
     2b8:	02180000 	andseq	r0, r8, #0
     2bc:	0aa08000 	beq	fe8202c4 <guest_stacklimit+0x6e8202c4>
     2c0:	01678000 	cmneq	r7, r0
     2c4:	04020000 	streq	r0, [r2], #-0
     2c8:	746e6905 	strbtvc	r6, [lr], #-2309	; 0x905
     2cc:	03070300 	movweq	r0, #29440	; 0x7300
     2d0:	05030000 	streq	r0, [r3, #-0]
     2d4:	00000037 	andeq	r0, r0, r7, lsr r0
     2d8:	1d070404 	cfstrsne	mvf0, [r7, #-16]
     2dc:	04000000 	streq	r0, [r0], #-0
     2e0:	008b0702 	addeq	r0, fp, r2, lsl #14
     2e4:	08040000 	stmdaeq	r4, {}	; <UNPREDICTABLE>
     2e8:	00001307 	andeq	r1, r0, r7, lsl #6
     2ec:	02590300 	subseq	r0, r9, #0, 6
     2f0:	08030000 	stmdaeq	r3, {}	; <UNPREDICTABLE>
     2f4:	00000057 	andeq	r0, r0, r7, asr r0
     2f8:	2a080104 	bcs	200710 <GUEST_OFFSET-0x7fdff8f0>
     2fc:	05000000 	streq	r0, [r0, #-0]
     300:	0000031b 	andeq	r0, r0, fp, lsl r3
     304:	95090404 	strls	r0, [r9, #-1028]	; 0x404
     308:	06000000 	streq	r0, [r0], -r0
     30c:	000001c2 	andeq	r0, r0, r2, asr #3
     310:	02cd0600 	sbceq	r0, sp, #0, 12
     314:	067f0000 	ldrbteq	r0, [pc], -r0
     318:	000002e7 	andeq	r0, r0, r7, ror #5
     31c:	02bc067e 	adcseq	r0, ip, #132120576	; 0x7e00000
     320:	067d0000 	ldrbteq	r0, [sp], -r0
     324:	000001f4 	strdeq	r0, [r0], -r4
     328:	019c067c 	orrseq	r0, ip, ip, ror r6
     32c:	067b0000 	ldrbteq	r0, [fp], -r0
     330:	000002a8 	andeq	r0, r0, r8, lsr #5
     334:	7303007a 	movwvc	r0, #12410	; 0x307a
     338:	04000002 	streq	r0, [r0], #-2
     33c:	00005e11 	andeq	r5, r0, r1, lsl lr
     340:	02810300 	addeq	r0, r1, #0, 6
     344:	0e050000 	cdpeq	0, 0, cr0, cr5, cr0, {0}
     348:	000000ab 	andeq	r0, r0, fp, lsr #1
     34c:	00b10407 	adcseq	r0, r1, r7, lsl #8
     350:	01080000 	mrseq	r0, (UNDEF: 8)
     354:	000000c7 	andeq	r0, r0, r7, asr #1
     358:	00002509 	andeq	r2, r0, r9, lsl #10
     35c:	00c70900 	sbceq	r0, r7, r0, lsl #18
     360:	c7090000 	strgt	r0, [r9, -r0]
     364:	00000000 	andeq	r0, r0, r0
     368:	670b040a 	strvs	r0, [fp, -sl, lsl #8]
     36c:	b0006369 	andlt	r6, r0, r9, ror #6
     370:	3a2d0201 	bcc	b40b7c <GUEST_OFFSET-0x7f4bf484>
     374:	0c000001 	stceq	0, cr0, [r0], {1}
     378:	0000026a 	andeq	r0, r0, sl, ror #4
     37c:	002c2e02 	eoreq	r2, ip, r2, lsl #28
     380:	23020000 	movwcs	r0, #8192	; 0x2000
     384:	015b0c00 	cmpeq	fp, r0, lsl #24
     388:	2f020000 	svccs	0x00020000
     38c:	0000013a 	andeq	r0, r0, sl, lsr r1
     390:	0c042302 	stceq	3, cr2, [r4], {2}
     394:	00000153 	andeq	r0, r0, r3, asr r1
     398:	013a3002 	teqeq	sl, r2
     39c:	23020000 	movwcs	r0, #8192	; 0x2000
     3a0:	01e90c08 	mvneq	r0, r8, lsl #24
     3a4:	31020000 	mrscc	r0, (UNDEF: 2)
     3a8:	0000002c 	andeq	r0, r0, ip, lsr #32
     3ac:	0c0c2302 	stceq	3, cr2, [ip], {2}
     3b0:	00000316 	andeq	r0, r0, r6, lsl r3
     3b4:	002c3202 	eoreq	r3, ip, r2, lsl #4
     3b8:	23020000 	movwcs	r0, #8192	; 0x2000
     3bc:	02930c10 	addseq	r0, r3, #16, 24	; 0x1000
     3c0:	33020000 	movwcc	r0, #8192	; 0x2000
     3c4:	00000145 	andeq	r0, r0, r5, asr #2
     3c8:	0c142302 	ldceq	3, cr2, [r4], {2}
     3cc:	00000190 	muleq	r0, r0, r1
     3d0:	002c3402 	eoreq	r3, ip, r2, lsl #8
     3d4:	23030000 	movwcs	r0, #12288	; 0x3000
     3d8:	070003ac 	streq	r0, [r0, -ip, lsr #7]
     3dc:	00014004 	andeq	r4, r1, r4
     3e0:	002c0d00 	eoreq	r0, ip, r0, lsl #26
     3e4:	a00e0000 	andge	r0, lr, r0
     3e8:	55000000 	strpl	r0, [r0, #-0]
     3ec:	0f000001 	svceq	0x00000001
     3f0:	00000155 	andeq	r0, r0, r5, asr r1
     3f4:	04040065 	streq	r0, [r4], #-101	; 0x65
     3f8:	00013007 	andeq	r3, r1, r7
     3fc:	01691000 	cmneq	r9, r0
     400:	15010000 	strne	r0, [r1, #-0]
     404:	00002c01 	andeq	r2, r0, r1, lsl #24
     408:	00021800 	andeq	r1, r2, r0, lsl #16
     40c:	00024480 	andeq	r4, r2, r0, lsl #9
     410:	00010880 	andeq	r0, r1, r0, lsl #17
     414:	01920100 	orrseq	r0, r2, r0, lsl #2
     418:	24110000 	ldrcs	r0, [r1], #-0
     41c:	30800002 	addcc	r0, r0, r2
     420:	12800002 	addne	r0, r0, #2
     424:	000001ef 	andeq	r0, r0, pc, ror #3
     428:	002c1701 	eoreq	r1, ip, r1, lsl #14
     42c:	91020000 	mrsls	r0, (UNDEF: 2)
     430:	13000074 	movwne	r0, #116	; 0x74
     434:	00000327 	andeq	r0, r0, r7, lsr #6
     438:	44013902 	strmi	r3, [r1], #-2306	; 0x902
     43c:	80800002 	addhi	r0, r0, r2
     440:	34800003 	strcc	r0, [r0], #3
     444:	01000001 	tsteq	r0, r1
     448:	000001ba 			; <UNDEFINED> instruction: 0x000001ba
     44c:	00029c12 	andeq	r9, r2, r2, lsl ip
     450:	ba3b0200 	blt	ec0c58 <GUEST_OFFSET-0x7f13f3a8>
     454:	02000001 	andeq	r0, r0, #1
     458:	07007491 			; <UNDEFINED> instruction: 0x07007491
     45c:	0001c004 	andeq	ip, r1, r4
     460:	004c0d00 	subeq	r0, ip, r0, lsl #26
     464:	d6130000 	ldrle	r0, [r3], -r0
     468:	02000001 	andeq	r0, r0, #1
     46c:	0380014f 	orreq	r0, r0, #-1073741805	; 0xc0000013
     470:	05cc8000 	strbeq	r8, [ip]
     474:	01608000 	cmneq	r0, r0
     478:	1e010000 	cdpne	0, 0, cr0, cr1, cr0, {0}
     47c:	12000002 	andne	r0, r0, #2
     480:	000002a3 	andeq	r0, r0, r3, lsr #5
     484:	002c5102 	eoreq	r5, ip, r2, lsl #2
     488:	91020000 	mrsls	r0, (UNDEF: 2)
     48c:	038c1468 	orreq	r1, ip, #104, 8	; 0x68000000
     490:	03988000 	orrseq	r8, r8, #0
     494:	02088000 	andeq	r8, r8, #0
     498:	ef120000 	svc	0x00120000
     49c:	02000001 	andeq	r0, r0, #1
     4a0:	00002c53 	andeq	r2, r0, r3, asr ip
     4a4:	6c910200 	lfmvs	f0, 4, [r1], {0}
     4a8:	03d41100 	bicseq	r1, r4, #0, 2
     4ac:	05c48000 	strbeq	r8, [r4]
     4b0:	36158000 	ldrcc	r8, [r5], -r0
     4b4:	02000005 	andeq	r0, r0, #5
     4b8:	00002c58 	andeq	r2, r0, r8, asr ip
     4bc:	16000000 	strne	r0, [r0], -r0
     4c0:	00000261 	andeq	r0, r0, r1, ror #4
     4c4:	95017d02 	strls	r7, [r1, #-3330]	; 0xd02
     4c8:	cc000000 	stcgt	0, cr0, [r0], {-0}
     4cc:	d8800005 	stmle	r0, {r0, r2}
     4d0:	8c800006 	stchi	0, cr0, [r0], {6}
     4d4:	01000001 	tsteq	r0, r1
     4d8:	0000027e 	andeq	r0, r0, lr, ror r2
     4dc:	00025117 	andeq	r5, r2, r7, lsl r1
     4e0:	7e7d0200 	cdpvc	2, 7, cr0, cr13, cr0, {0}
     4e4:	02000002 	andeq	r0, r0, #2
     4e8:	a3125c91 	tstge	r2, #37120	; 0x9100
     4ec:	02000002 	andeq	r0, r0, #2
     4f0:	00002c7f 	andeq	r2, r0, pc, ror ip
     4f4:	64910200 	ldrvs	r0, [r1], #512	; 0x200
     4f8:	00017a12 	andeq	r7, r1, r2, lsl sl
     4fc:	95800200 	strls	r0, [r0, #512]	; 0x200
     500:	02000000 	andeq	r0, r0, #0
     504:	e4116c91 	ldr	r6, [r1], #-3217	; 0xc91
     508:	f0800005 			; <UNDEFINED> instruction: 0xf0800005
     50c:	12800005 	addne	r0, r0, #5
     510:	000001ef 	andeq	r0, r0, pc, ror #3
     514:	002c8202 	eoreq	r8, ip, r2, lsl #4
     518:	91020000 	mrsls	r0, (UNDEF: 2)
     51c:	07000068 	streq	r0, [r0, -r8, rrx]
     520:	00002c04 	andeq	r2, r0, r4, lsl #24
     524:	81011800 	tsthi	r1, r0, lsl #16
     528:	02000001 	andeq	r0, r0, #1
     52c:	0095019e 	umullseq	r0, r5, lr, r1
     530:	06d80000 	ldrbeq	r0, [r8], r0
     534:	07308000 	ldreq	r8, [r0, -r0]!
     538:	01b88000 			; <UNDEFINED> instruction: 0x01b88000
     53c:	b1010000 	mrslt	r0, (UNDEF: 1)
     540:	19000002 	stmdbne	r0, {r1}
     544:	00717269 	rsbseq	r7, r1, r9, ror #4
     548:	002c9e02 	eoreq	r9, ip, r2, lsl #28
     54c:	91020000 	mrsls	r0, (UNDEF: 2)
     550:	01180074 	tsteq	r8, r4, ror r0
     554:	000001b2 			; <UNDEFINED> instruction: 0x000001b2
     558:	9501a402 	strls	sl, [r1, #-1026]	; 0x402
     55c:	30000000 	andcc	r0, r0, r0
     560:	88800007 	stmhi	r0, {r0, r1, r2}
     564:	e4800007 	str	r0, [r0], #7
     568:	01000001 	tsteq	r0, r1
     56c:	000002de 	ldrdeq	r0, [r0], -lr
     570:	71726919 	cmnvc	r2, r9, lsl r9
     574:	2ca40200 	sfmcs	f0, 4, [r4]
     578:	02000000 	andeq	r0, r0, #0
     57c:	18007491 	stmdane	r0, {r0, r4, r7, sl, ip, sp, lr}
     580:	00023d01 	andeq	r3, r2, r1, lsl #26
     584:	01aa0200 			; <UNDEFINED> instruction: 0x01aa0200
     588:	00000095 	muleq	r0, r5, r0
     58c:	80000788 	andhi	r0, r0, r8, lsl #15
     590:	800007f8 	strdhi	r0, [r0], -r8
     594:	00000210 	andeq	r0, r0, r0, lsl r2
     598:	00033501 	andeq	r3, r3, r1, lsl #10
     59c:	72691900 	rsbvc	r1, r9, #0, 18
     5a0:	aa020071 	bge	8076c <GUEST_OFFSET-0x7ff7f894>
     5a4:	00000025 	andeq	r0, r0, r5, lsr #32
     5a8:	176c9102 	strbne	r9, [ip, -r2, lsl #2]!
     5ac:	00000249 	andeq	r0, r0, r9, asr #4
     5b0:	00a0aa02 	adceq	sl, r0, r2, lsl #20
     5b4:	91020000 	mrsls	r0, (UNDEF: 2)
     5b8:	01631768 	cmneq	r3, r8, ror #14
     5bc:	ab020000 	blge	805c4 <GUEST_OFFSET-0x7ff7fa3c>
     5c0:	000000c7 	andeq	r0, r0, r7, asr #1
     5c4:	12649102 	rsbne	r9, r4, #-2147483648	; 0x80000000
     5c8:	0000017a 	andeq	r0, r0, sl, ror r1
     5cc:	0095ad02 	addseq	sl, r5, r2, lsl #26
     5d0:	91020000 	mrsls	r0, (UNDEF: 2)
     5d4:	011a0074 	tsteq	sl, r4, ror r0
     5d8:	00000234 	andeq	r0, r0, r4, lsr r2
     5dc:	9501b502 	strls	fp, [r1, #-1282]	; 0x502
     5e0:	f8000000 			; <UNDEFINED> instruction: 0xf8000000
     5e4:	44800007 	strmi	r0, [r0], #7
     5e8:	3c800009 	stccc	0, cr0, [r0], {9}
     5ec:	01000002 	tsteq	r0, r2
     5f0:	0000036e 	andeq	r0, r0, lr, ror #6
     5f4:	00017a12 	andeq	r7, r1, r2, lsl sl
     5f8:	95b70200 	ldrls	r0, [r7, #512]!	; 0x200
     5fc:	02000000 	andeq	r0, r0, #0
     600:	691b7091 	ldmdbvs	fp, {r0, r4, r7, ip, sp, lr}
     604:	25b80200 	ldrcs	r0, [r8, #512]!	; 0x200
     608:	02000000 	andeq	r0, r0, #0
     60c:	1c007491 	cfstrsne	mvf7, [r0], {145}	; 0x91
     610:	00013901 	andeq	r3, r1, r1, lsl #18
     614:	01d00200 	bicseq	r0, r0, r0, lsl #4
     618:	80000944 	andhi	r0, r0, r4, asr #18
     61c:	80000aa0 	andhi	r0, r0, r0, lsr #21
     620:	00000268 	andeq	r0, r0, r8, ror #4
     624:	0003e301 	andeq	lr, r3, r1, lsl #6
     628:	69661900 	stmdbvs	r6!, {r8, fp, ip}^
     62c:	d0020071 	andle	r0, r2, r1, ror r0
     630:	00000025 	andeq	r0, r0, r5, lsr #32
     634:	17649102 	strbne	r9, [r4, -r2, lsl #2]!
     638:	00000310 	andeq	r0, r0, r0, lsl r3
     63c:	00c7d002 	sbceq	sp, r7, r2
     640:	91020000 	mrsls	r0, (UNDEF: 2)
     644:	61691b60 	cmnvs	r9, r0, ror #22
     648:	d7020072 	smlsdxle	r2, r2, r0, r0
     64c:	0000002c 	andeq	r0, r0, ip, lsr #32
     650:	1b6c9102 	blne	1b24a60 <GUEST_OFFSET-0x7e4db5a0>
     654:	00717269 	rsbseq	r7, r1, r9, ror #4
     658:	002cd802 	eoreq	sp, ip, r2, lsl #16
     65c:	91020000 	mrsls	r0, (UNDEF: 2)
     660:	011a1d68 	tsteq	sl, r8, ror #26
     664:	12010000 	andne	r0, r1, #0
     668:	0000011f 	andeq	r0, r0, pc, lsl r1
     66c:	03e3d902 	mvneq	sp, #32768	; 0x8000
     670:	91020000 	mrsls	r0, (UNDEF: 2)
     674:	70631b74 	rsbvc	r1, r3, r4, ror fp
     678:	db020075 	blle	80854 <GUEST_OFFSET-0x7ff7f7ac>
     67c:	0000002c 	andeq	r0, r0, ip, lsr #32
     680:	00709102 	rsbseq	r9, r0, r2, lsl #2
     684:	03c00407 	biceq	r0, r0, #117440512	; 0x7000000
     688:	0b120000 	bleq	480690 <GUEST_OFFSET-0x7fb7f970>
     68c:	02000002 	andeq	r0, r0, #2
     690:	0000c937 	andeq	ip, r0, r7, lsr r9
     694:	6c030500 	cfstr32vs	mvfx0, [r3], {-0}
     698:	0080001e 	addeq	r0, r0, lr, lsl r0
     69c:	000000df 	ldrdeq	r0, [r0], -pc	; <UNPREDICTABLE>
     6a0:	03600002 	cmneq	r0, #2
     6a4:	01040000 	mrseq	r0, (UNDEF: 4)
     6a8:	00000007 	andeq	r0, r0, r7
     6ac:	00035f01 	andeq	r5, r3, r1, lsl #30
     6b0:	00003d00 	andeq	r3, r0, r0, lsl #26
     6b4:	000aa000 	andeq	sl, sl, r0
     6b8:	000c1480 	andeq	r1, ip, r0, lsl #9
     6bc:	0002b180 	andeq	fp, r2, r0, lsl #3
     6c0:	05040200 	streq	r0, [r4, #-512]	; 0x200
     6c4:	00746e69 	rsbseq	r6, r4, r9, ror #28
     6c8:	00030703 	andeq	r0, r3, r3, lsl #14
     6cc:	37050200 	strcc	r0, [r5, -r0, lsl #4]
     6d0:	04000000 	streq	r0, [r0], #-0
     6d4:	001d0704 	andseq	r0, sp, r4, lsl #14
     6d8:	02040000 	andeq	r0, r4, #0
     6dc:	00008b07 	andeq	r8, r0, r7, lsl #22
     6e0:	07080400 	streq	r0, [r8, -r0, lsl #8]
     6e4:	00000013 	andeq	r0, r0, r3, lsl r0
     6e8:	2a080104 	bcs	200b00 <GUEST_OFFSET-0x7fdff500>
     6ec:	05000000 	streq	r0, [r0, #-0]
     6f0:	00034801 	andeq	r4, r3, r1, lsl #16
     6f4:	a00a0100 	andge	r0, sl, r0, lsl #2
     6f8:	1480000a 	strne	r0, [r0], #10
     6fc:	9480000c 	strls	r0, [r0], #12
     700:	01000002 	tsteq	r0, r2
     704:	000000d7 	ldrdeq	r0, [r0], -r7
     708:	00052c06 	andeq	r2, r5, r6, lsl #24
     70c:	d70c0100 	strle	r0, [ip, -r0, lsl #2]
     710:	02000000 	andeq	r0, r0, #0
     714:	59067091 	stmdbpl	r6, {r0, r4, r7, ip, sp, lr}
     718:	01000003 	tsteq	r0, r3
     71c:	0000d70d 	andeq	sp, r0, sp, lsl #14
     720:	6c910200 	lfmvs	f0, 4, [r1], {0}
     724:	00033c06 	andeq	r3, r3, r6, lsl #24
     728:	d70e0100 	strle	r0, [lr, -r0, lsl #2]
     72c:	02000000 	andeq	r0, r0, #0
     730:	42066891 	andmi	r6, r6, #9502720	; 0x910000
     734:	01000003 	tsteq	r0, r3
     738:	0000d70f 	andeq	sp, r0, pc, lsl #14
     73c:	64910200 	ldrvs	r0, [r1], #512	; 0x200
     740:	01006907 	tsteq	r0, r7, lsl #18
     744:	00002510 	andeq	r2, r0, r0, lsl r5
     748:	74910200 	ldrvc	r0, [r1], #512	; 0x200
     74c:	00317607 	eorseq	r7, r1, r7, lsl #12
     750:	00251101 	eoreq	r1, r5, r1, lsl #2
     754:	91020000 	mrsls	r0, (UNDEF: 2)
     758:	32760760 	rsbscc	r0, r6, #96, 14	; 0x1800000
     75c:	25110100 	ldrcs	r0, [r1, #-256]	; 0x100
     760:	02000000 	andeq	r0, r0, #0
     764:	72075c91 	andvc	r5, r7, #37120	; 0x9100
     768:	25110100 	ldrcs	r0, [r1, #-256]	; 0x100
     76c:	02000000 	andeq	r0, r0, #0
     770:	08005891 	stmdaeq	r0, {r0, r4, r7, fp, ip, lr}
     774:	0000dd04 	andeq	sp, r0, r4, lsl #26
     778:	002c0900 	eoreq	r0, ip, r0, lsl #18
     77c:	96000000 	strls	r0, [r0], -r0
     780:	02000000 	andeq	r0, r0, #0
     784:	0003dd00 	andeq	sp, r3, r0, lsl #26
     788:	07010400 	streq	r0, [r1, -r0, lsl #8]
     78c:	01000000 	mrseq	r0, (UNDEF: 0)
     790:	0000039c 	muleq	r0, ip, r3
     794:	0000003d 	andeq	r0, r0, sp, lsr r0
     798:	80000c14 	andhi	r0, r0, r4, lsl ip
     79c:	80000c44 	andhi	r0, r0, r4, asr #24
     7a0:	00000362 	andeq	r0, r0, r2, ror #6
     7a4:	69050402 	stmdbvs	r5, {r1, sl}
     7a8:	0300746e 	movweq	r7, #1134	; 0x46e
     7ac:	00000307 	andeq	r0, r0, r7, lsl #6
     7b0:	00370502 	eorseq	r0, r7, r2, lsl #10
     7b4:	04040000 	streq	r0, [r4], #-0
     7b8:	00001d07 	andeq	r1, r0, r7, lsl #26
     7bc:	07020400 	streq	r0, [r2, -r0, lsl #8]
     7c0:	0000008b 	andeq	r0, r0, fp, lsl #1
     7c4:	13070804 	movwne	r0, #30724	; 0x7804
     7c8:	04000000 	streq	r0, [r0], #-0
     7cc:	002a0801 	eoreq	r0, sl, r1, lsl #16
     7d0:	01050000 	mrseq	r0, (UNDEF: 5)
     7d4:	00000390 	muleq	r0, r0, r3
     7d8:	14010801 	strne	r0, [r1], #-2049	; 0x801
     7dc:	4480000c 	strmi	r0, [r0], #12
     7e0:	c080000c 	addgt	r0, r0, ip
     7e4:	01000002 	tsteq	r0, r2
     7e8:	0000007c 	andeq	r0, r0, ip, ror r0
     7ec:	00053606 	andeq	r3, r5, r6, lsl #12
     7f0:	2c080100 	stfcss	f0, [r8], {-0}
     7f4:	02000000 	andeq	r0, r0, #0
     7f8:	07007491 			; <UNDEFINED> instruction: 0x07007491
     7fc:	0000052c 	andeq	r0, r0, ip, lsr #10
     800:	008e0601 	addeq	r0, lr, r1, lsl #12
     804:	05010000 	streq	r0, [r1, #-0]
     808:	001e6803 	andseq	r6, lr, r3, lsl #16
     80c:	94040880 	strls	r0, [r4], #-2176	; 0x880
     810:	09000000 	stmdbeq	r0, {}	; <UNPREDICTABLE>
     814:	0000002c 	andeq	r0, r0, ip, lsr #32
     818:	00056900 	andeq	r6, r5, r0, lsl #18
     81c:	5e000200 	cdppl	2, 0, cr0, cr0, cr0, {0}
     820:	04000004 	streq	r0, [r0], #-4
     824:	00000701 	andeq	r0, r0, r1, lsl #14
     828:	04880100 	streq	r0, [r8], #256	; 0x100
     82c:	003d0000 	eorseq	r0, sp, r0
     830:	0c440000 	mareq	acc0, r0, r4
     834:	17408000 	strbne	r8, [r0, -r0]
     838:	03e88000 	mvneq	r8, #0
     83c:	ce020000 	cdpgt	0, 0, cr0, cr2, cr0, {0}
     840:	03000003 	movweq	r0, #3
     844:	000030d5 	ldrdeq	r3, [r0], -r5
     848:	07040300 	streq	r0, [r4, -r0, lsl #6]
     84c:	0000001d 	andeq	r0, r0, sp, lsl r0
     850:	30070403 	andcc	r0, r7, r3, lsl #8
     854:	03000001 	movweq	r0, #1
     858:	008b0702 	addeq	r0, fp, r2, lsl #14
     85c:	04040000 	streq	r0, [r4], #-0
     860:	746e6905 	strbtvc	r6, [lr], #-2309	; 0x905
     864:	52040500 	andpl	r0, r4, #0, 10
     868:	06000000 	streq	r0, [r0], -r0
     86c:	00000057 	andeq	r0, r0, r7, asr r0
     870:	33080103 	movwcc	r0, #33027	; 0x8103
     874:	07000000 	streq	r0, [r0, -r0]
     878:	00000425 	andeq	r0, r0, r5, lsr #8
     87c:	be010301 	cdplt	3, 0, cr0, cr1, cr1, {0}
     880:	44000000 	strmi	r0, [r0], #-0
     884:	d480000c 	strle	r0, [r0], #12
     888:	ec80000c 	stc	0, cr0, [r0], {12}
     88c:	01000002 	tsteq	r0, r2
     890:	000000be 	strheq	r0, [r0], -lr
     894:	0003e408 	andeq	lr, r3, r8, lsl #8
     898:	be030100 	adflts	f0, f3, f0
     89c:	02000000 	andeq	r0, r0, #0
     8a0:	c8086c91 	stmdagt	r8, {r0, r4, r7, sl, fp, sp, lr}
     8a4:	01000003 	tsteq	r0, r3
     8a8:	0000c003 	andeq	ip, r0, r3
     8ac:	68910200 	ldmvs	r1, {r9}
     8b0:	6e5f5f09 	cdpvs	15, 5, cr5, cr15, cr9, {0}
     8b4:	25030100 	strcs	r0, [r3, #-256]	; 0x100
     8b8:	02000000 	andeq	r0, r0, #0
     8bc:	640a6491 	strvs	r6, [sl], #-1169	; 0x491
     8c0:	c7050100 	strgt	r0, [r5, -r0, lsl #2]
     8c4:	02000000 	andeq	r0, r0, #0
     8c8:	730a7491 	movwvc	r7, #42129	; 0xa491
     8cc:	c7050100 	strgt	r0, [r5, -r0, lsl #2]
     8d0:	02000000 	andeq	r0, r0, #0
     8d4:	0b007091 	bleq	1cb20 <GUEST_OFFSET-0x7ffe34e0>
     8d8:	c6040504 	strgt	r0, [r4], -r4, lsl #10
     8dc:	0c000000 	stceq	0, cr0, [r0], {-0}
     8e0:	00cd0405 	sbceq	r0, sp, r5, lsl #8
     8e4:	01030000 	mrseq	r0, (UNDEF: 3)
     8e8:	00002a08 	andeq	r2, r0, r8, lsl #20
     8ec:	045f0700 	ldrbeq	r0, [pc], #-1792	; 8f4 <GUEST_OFFSET-0x7ffff70c>
     8f0:	0c010000 	stceq	0, cr0, [r1], {-0}
     8f4:	0000be01 	andeq	fp, r0, r1, lsl #28
     8f8:	000cd400 	andeq	sp, ip, r0, lsl #8
     8fc:	000d7c80 	andeq	r7, sp, r0, lsl #25
     900:	00031880 	andeq	r1, r3, r0, lsl #17
     904:	01340100 	teqeq	r4, r0, lsl #2
     908:	e4080000 	str	r0, [r8], #-0
     90c:	01000003 	tsteq	r0, r3
     910:	0000be0c 	andeq	fp, r0, ip, lsl #28
     914:	6c910200 	lfmvs	f0, 4, [r1], {0}
     918:	0003c808 	andeq	ip, r3, r8, lsl #16
     91c:	c00c0100 	andgt	r0, ip, r0, lsl #2
     920:	02000000 	andeq	r0, r0, #0
     924:	5f096891 	svcpl	0x00096891
     928:	01006e5f 	tsteq	r0, pc, asr lr
     92c:	0000250c 	andeq	r2, r0, ip, lsl #10
     930:	64910200 	ldrvs	r0, [r1], #512	; 0x200
     934:	0100640a 	tsteq	r0, sl, lsl #8
     938:	0000c70e 	andeq	ip, r0, lr, lsl #14
     93c:	74910200 	ldrvc	r0, [r1], #512	; 0x200
     940:	0100730a 	tsteq	r0, sl, lsl #6
     944:	0000c70e 	andeq	ip, r0, lr, lsl #14
     948:	70910200 	addsvc	r0, r1, r0, lsl #4
     94c:	73010d00 	movwvc	r0, #7424	; 0x1d00
     950:	02000004 	andeq	r0, r0, #4
     954:	00be012e 	adcseq	r0, lr, lr, lsr #2
     958:	0d7c0000 	ldcleq	0, cr0, [ip, #-0]
     95c:	0db48000 	ldceq	0, cr8, [r4]
     960:	03448000 	movteq	r8, #16384	; 0x4000
     964:	7d010000 	stcvc	0, cr0, [r1, #-0]
     968:	08000001 	stmdaeq	r0, {r0}
     96c:	000003e4 	andeq	r0, r0, r4, ror #7
     970:	00be1601 	adcseq	r1, lr, r1, lsl #12
     974:	91020000 	mrsls	r0, (UNDEF: 2)
     978:	03c80874 	biceq	r0, r8, #116, 16	; 0x740000
     97c:	16010000 	strne	r0, [r1], -r0
     980:	000000c0 	andeq	r0, r0, r0, asr #1
     984:	09709102 	ldmdbeq	r0!, {r1, r8, ip, pc}^
     988:	006e5f5f 	rsbeq	r5, lr, pc, asr pc
     98c:	00251601 	eoreq	r1, r5, r1, lsl #12
     990:	91020000 	mrsls	r0, (UNDEF: 2)
     994:	010d006c 	tsteq	sp, ip, rrx
     998:	000003dc 	ldrdeq	r0, [r0], -ip
     99c:	be013202 	cdplt	2, 0, cr3, cr1, cr2, {0}
     9a0:	b4000000 	strlt	r0, [r0], #-0
     9a4:	1480000d 	strne	r0, [r0], #13
     9a8:	7080000e 	addvc	r0, r0, lr
     9ac:	01000003 	tsteq	r0, r3
     9b0:	000001c6 	andeq	r0, r0, r6, asr #3
     9b4:	0003e408 	andeq	lr, r3, r8, lsl #8
     9b8:	be1b0100 	muflte	f0, f3, f0
     9bc:	02000000 	andeq	r0, r0, #0
     9c0:	c8087491 	stmdagt	r8, {r0, r4, r7, sl, ip, sp, lr}
     9c4:	01000003 	tsteq	r0, r3
     9c8:	0000c01b 	andeq	ip, r0, fp, lsl r0
     9cc:	70910200 	addsvc	r0, r1, r0, lsl #4
     9d0:	6e5f5f09 	cdpvs	15, 5, cr5, cr15, cr9, {0}
     9d4:	251b0100 	ldrcs	r0, [fp, #-256]	; 0x100
     9d8:	02000000 	andeq	r0, r0, #0
     9dc:	0e006c91 	mcreq	12, 0, r6, cr0, cr1, {4}
     9e0:	0003eb01 	andeq	lr, r3, r1, lsl #22
     9e4:	01600200 	cmneq	r0, r0, lsl #4
     9e8:	000000be 	strheq	r0, [r0], -lr
     9ec:	80000e14 	andhi	r0, r0, r4, lsl lr
     9f0:	80000e9c 	mulhi	r0, ip, lr
     9f4:	0000039c 	muleq	r0, ip, r3
     9f8:	00021601 	andeq	r1, r2, r1, lsl #12
     9fc:	00730900 	rsbseq	r0, r3, r0, lsl #18
     a00:	00c02301 	sbceq	r2, r0, r1, lsl #6
     a04:	91020000 	mrsls	r0, (UNDEF: 2)
     a08:	0063096c 	rsbeq	r0, r3, ip, ror #18
     a0c:	00452301 	subeq	r2, r5, r1, lsl #6
     a10:	91020000 	mrsls	r0, (UNDEF: 2)
     a14:	006e0968 	rsbeq	r0, lr, r8, ror #18
     a18:	00252301 	eoreq	r2, r5, r1, lsl #6
     a1c:	91020000 	mrsls	r0, (UNDEF: 2)
     a20:	735f0a64 	cmpvc	pc, #100, 20	; 0x64000
     a24:	16250100 	strtne	r0, [r5], -r0, lsl #2
     a28:	02000002 	andeq	r0, r0, #2
     a2c:	05007491 	streq	r7, [r0, #-1169]	; 0x491
     a30:	00021c04 	andeq	r1, r2, r4, lsl #24
     a34:	00cd0600 	sbceq	r0, sp, r0, lsl #12
     a38:	010f0000 	mrseq	r0, CPSR
     a3c:	000003f9 	strdeq	r0, [r0], -r9
     a40:	01018f02 	tsteq	r1, r2, lsl #30
     a44:	00000025 	andeq	r0, r0, r5, lsr #32
     a48:	80000e9c 	mulhi	r0, ip, lr
     a4c:	80000ef0 	strdhi	r0, [r0], -r0	; <UNPREDICTABLE>
     a50:	000003c8 	andeq	r0, r0, r8, asr #7
     a54:	00025a01 	andeq	r5, r2, r1, lsl #20
     a58:	00730900 	rsbseq	r0, r3, r0, lsl #18
     a5c:	004c3001 	subeq	r3, ip, r1
     a60:	91020000 	mrsls	r0, (UNDEF: 2)
     a64:	63730a6c 	cmnvs	r3, #108, 20	; 0x6c000
     a68:	4c320100 	ldfmis	f0, [r2], #-0
     a6c:	02000000 	andeq	r0, r0, #0
     a70:	0e007491 	mcreq	4, 0, r7, cr0, cr1, {4}
     a74:	00041e01 	andeq	r1, r4, r1, lsl #28
     a78:	01420200 	mrseq	r0, (UNDEF: 98)
     a7c:	000000be 	strheq	r0, [r0], -lr
     a80:	80000ef0 	strdhi	r0, [r0], -r0	; <UNPREDICTABLE>
     a84:	80000f6c 	andhi	r0, r0, ip, ror #30
     a88:	000003f4 	strdeq	r0, [r0], -r4
     a8c:	0002ac01 	andeq	sl, r2, r1, lsl #24
     a90:	00730900 	rsbseq	r0, r3, r0, lsl #18
     a94:	00be3801 	adcseq	r3, lr, r1, lsl #16
     a98:	91020000 	mrsls	r0, (UNDEF: 2)
     a9c:	0063096c 	rsbeq	r0, r3, ip, ror #18
     aa0:	00453801 	subeq	r3, r5, r1, lsl #16
     aa4:	91020000 	mrsls	r0, (UNDEF: 2)
     aa8:	04820868 	streq	r0, [r2], #2152	; 0x868
     aac:	38010000 	stmdacc	r1, {}	; <UNPREDICTABLE>
     ab0:	00000025 	andeq	r0, r0, r5, lsr #32
     ab4:	0a649102 	beq	1924ec4 <GUEST_OFFSET-0x7e6db13c>
     ab8:	01007378 	tsteq	r0, r8, ror r3
     abc:	0002ac3a 	andeq	sl, r2, sl, lsr ip
     ac0:	74910200 	ldrvc	r0, [r1], #512	; 0x200
     ac4:	57040500 	strpl	r0, [r4, -r0, lsl #10]
     ac8:	0e000000 	cdpeq	0, 0, cr0, cr0, cr0, {0}
     acc:	0003d501 	andeq	sp, r3, r1, lsl #10
     ad0:	01450200 	mrseq	r0, (UNDEF: 101)
     ad4:	00000045 	andeq	r0, r0, r5, asr #32
     ad8:	80000f6c 	andhi	r0, r0, ip, ror #30
     adc:	8000102c 	andhi	r1, r0, ip, lsr #32
     ae0:	00000420 	andeq	r0, r0, r0, lsr #8
     ae4:	00031301 	andeq	r1, r3, r1, lsl #6
     ae8:	31700900 	cmncc	r0, r0, lsl #18
     aec:	c0400100 	subgt	r0, r0, r0, lsl #2
     af0:	02000000 	andeq	r0, r0, #0
     af4:	70096c91 	mulvc	r9, r1, ip
     af8:	40010032 	andmi	r0, r1, r2, lsr r0
     afc:	000000c0 	andeq	r0, r0, r0, asr #1
     b00:	09689102 	stmdbeq	r8!, {r1, r8, ip, pc}^
     b04:	4001006e 	andmi	r0, r1, lr, rrx
     b08:	00000025 	andeq	r0, r0, r5, lsr #32
     b0c:	0a649102 	beq	1924f1c <GUEST_OFFSET-0x7e6db0e4>
     b10:	0031705f 	eorseq	r7, r1, pc, asr r0
     b14:	02164201 	andseq	r4, r6, #268435456	; 0x10000000
     b18:	91020000 	mrsls	r0, (UNDEF: 2)
     b1c:	705f0a74 	subsvc	r0, pc, r4, ror sl	; <UNPREDICTABLE>
     b20:	43010032 	movwmi	r0, #4146	; 0x1032
     b24:	00000216 	andeq	r0, r0, r6, lsl r2
     b28:	00709102 	rsbseq	r9, r0, r2, lsl #2
     b2c:	046c010e 	strbteq	r0, [ip], #-270	; 0x10e
     b30:	90020000 	andls	r0, r2, r0
     b34:	00004501 	andeq	r4, r0, r1, lsl #10
     b38:	00102c00 	andseq	r2, r0, r0, lsl #24
     b3c:	00111080 	andseq	r1, r1, r0, lsl #1
     b40:	00044c80 	andeq	r4, r4, r0, lsl #25
     b44:	034c0100 	movteq	r0, #49408	; 0xc100
     b48:	73090000 	movwvc	r0, #36864	; 0x9000
     b4c:	50010031 	andpl	r0, r1, r1, lsr r0
     b50:	0000004c 	andeq	r0, r0, ip, asr #32
     b54:	09749102 	ldmdbeq	r4!, {r1, r8, ip, pc}^
     b58:	01003273 	tsteq	r0, r3, ror r2
     b5c:	00004c50 	andeq	r4, r0, r0, asr ip
     b60:	70910200 	addsvc	r0, r1, r0, lsl #4
     b64:	7a010e00 	bvc	4436c <GUEST_OFFSET-0x7ffbbc94>
     b68:	02000004 	andeq	r0, r0, #4
     b6c:	00450193 	umaaleq	r0, r5, r3, r1
     b70:	11100000 	tstne	r0, r0
     b74:	122c8000 	eorne	r8, ip, #0
     b78:	04788000 	ldrbteq	r8, [r8], #-0
     b7c:	91010000 	mrsls	r0, (UNDEF: 1)
     b80:	09000003 	stmdbeq	r0, {r0, r1}
     b84:	01003173 	tsteq	r0, r3, ror r1
     b88:	00004c63 	andeq	r4, r0, r3, ror #24
     b8c:	74910200 	ldrvc	r0, [r1], #512	; 0x200
     b90:	00327309 	eorseq	r7, r2, r9, lsl #6
     b94:	004c6301 	subeq	r6, ip, r1, lsl #6
     b98:	91020000 	mrsls	r0, (UNDEF: 2)
     b9c:	006e0970 	rsbeq	r0, lr, r0, ror r9
     ba0:	00256301 	eoreq	r6, r5, r1, lsl #6
     ba4:	91020000 	mrsls	r0, (UNDEF: 2)
     ba8:	010e006c 	tsteq	lr, ip, rrx
     bac:	000003f2 	strdeq	r0, [r0], -r2
     bb0:	ac01ec02 	stcge	12, cr14, [r1], {2}
     bb4:	2c000002 	stccs	0, cr0, [r0], {2}
     bb8:	ac800012 	stcge	0, cr0, [r0], {18}
     bbc:	a4800012 	strge	r0, [r0], #18
     bc0:	01000004 	tsteq	r0, r4
     bc4:	000003d5 	ldrdeq	r0, [r0], -r5
     bc8:	01007309 	tsteq	r0, r9, lsl #6
     bcc:	00004c75 	andeq	r4, r0, r5, ror ip
     bd0:	6c910200 	lfmvs	f0, 4, [r1], {0}
     bd4:	01006309 	tsteq	r0, r9, lsl #6
     bd8:	00004575 	andeq	r4, r0, r5, ror r5
     bdc:	68910200 	ldmvs	r1, {r9}
     be0:	00735f0a 	rsbseq	r5, r3, sl, lsl #30
     be4:	02167701 	andseq	r7, r6, #262144	; 0x40000
     be8:	91020000 	mrsls	r0, (UNDEF: 2)
     bec:	010e0074 	tsteq	lr, r4, ror r0
     bf0:	00000410 	andeq	r0, r0, r0, lsl r4
     bf4:	ac018102 	stfged	f0, [r1], {2}
     bf8:	ac000002 	stcge	0, cr0, [r0], {2}
     bfc:	38800012 	stmcc	r0, {r1, r4}
     c00:	d0800013 	addle	r0, r0, r3, lsl r0
     c04:	01000004 	tsteq	r0, r4
     c08:	0000041c 	andeq	r0, r0, ip, lsl r4
     c0c:	0003e608 	andeq	lr, r3, r8, lsl #12
     c10:	ac810100 	stfges	f0, [r1], {0}
     c14:	02000002 	andeq	r0, r0, #2
     c18:	73096c91 	movwvc	r6, #40081	; 0x9c91
     c1c:	01006372 	tsteq	r0, r2, ror r3
     c20:	00004c81 	andeq	r4, r0, r1, lsl #25
     c24:	68910200 	ldmvs	r1, {r9}
     c28:	0100690a 	tsteq	r0, sl, lsl #18
     c2c:	00003083 	andeq	r3, r0, r3, lsl #1
     c30:	74910200 	ldrvc	r0, [r1], #512	; 0x200
     c34:	00010e00 	andeq	r0, r1, r0, lsl #28
     c38:	01000004 	tsteq	r0, r4
     c3c:	0030018b 	eorseq	r0, r0, fp, lsl #3
     c40:	13380000 	teqne	r8, #0
     c44:	14cc8000 	strbne	r8, [ip], #0
     c48:	04fc8000 	ldrbteq	r8, [ip], #0
     c4c:	65010000 	strvs	r0, [r1, #-0]
     c50:	09000004 	stmdbeq	r0, {r2}
     c54:	00637273 	rsbeq	r7, r3, r3, ror r2
     c58:	02ac8b01 	adceq	r8, ip, #1024	; 0x400
     c5c:	91020000 	mrsls	r0, (UNDEF: 2)
     c60:	61760a6c 	cmnvs	r6, ip, ror #20
     c64:	8d01006c 	stchi	0, cr0, [r1, #-432]	; 0xfffffe50
     c68:	00000030 	andeq	r0, r0, r0, lsr r0
     c6c:	0a749102 	beq	1d2507c <GUEST_OFFSET-0x7e2daf84>
     c70:	00736f70 	rsbseq	r6, r3, r0, ror pc
     c74:	00458e01 	subeq	r8, r5, r1, lsl #28
     c78:	91020000 	mrsls	r0, (UNDEF: 2)
     c7c:	01100070 	tsteq	r0, r0, ror r0
     c80:	00000434 	andeq	r0, r0, r4, lsr r4
     c84:	cc01a001 	stcgt	0, cr10, [r1], {1}
     c88:	cc800014 	stcgt	0, cr0, [r0], {20}
     c8c:	28800015 	stmcs	r0, {r0, r2, r4}
     c90:	01000005 	tsteq	r0, r5
     c94:	000004c9 	andeq	r0, r0, r9, asr #9
     c98:	74736409 	ldrbtvc	r6, [r3], #-1033	; 0x409
     c9c:	aca00100 	stfges	f0, [r0]
     ca0:	02000002 	andeq	r0, r0, #2
     ca4:	73096c91 	movwvc	r6, #40081	; 0x9c91
     ca8:	01006372 	tsteq	r0, r2, ror r3
     cac:	000030a0 	andeq	r3, r0, r0, lsr #1
     cb0:	68910200 	ldmvs	r1, {r9}
     cb4:	6574690a 	ldrbvs	r6, [r4, #-2314]!	; 0x90a
     cb8:	45a20100 	strmi	r0, [r2, #256]!	; 0x100
     cbc:	02000000 	andeq	r0, r0, #0
     cc0:	700a7491 	mulvc	sl, r1, r4
     cc4:	0100736f 	tsteq	r0, pc, ror #6
     cc8:	000045a2 	andeq	r4, r0, r2, lsr #11
     ccc:	70910200 	addsvc	r0, r1, r0, lsl #4
     cd0:	00044a11 	andeq	r4, r4, r1, lsl sl
     cd4:	d9a30100 	stmible	r3!, {r8}
     cd8:	05000004 	streq	r0, [r0, #-4]
     cdc:	001e1803 	andseq	r1, lr, r3, lsl #16
     ce0:	57120080 	ldrpl	r0, [r2, -r0, lsl #1]
     ce4:	d9000000 	stmdble	r0, {}	; <UNPREDICTABLE>
     ce8:	13000004 	movwne	r0, #4
     cec:	00000037 	andeq	r0, r0, r7, lsr r0
     cf0:	c9060010 	stmdbgt	r6, {r4}
     cf4:	0e000004 	cdpeq	0, 0, cr0, cr0, cr4, {0}
     cf8:	00041701 	andeq	r1, r4, r1, lsl #14
     cfc:	01890200 	orreq	r0, r9, r0, lsl #4
     d00:	000002ac 	andeq	r0, r0, ip, lsr #5
     d04:	800015cc 	andhi	r1, r0, ip, asr #11
     d08:	8000165c 	andhi	r1, r0, ip, asr r6
     d0c:	00000554 	andeq	r0, r0, r4, asr r5
     d10:	00051901 	andeq	r1, r5, r1, lsl #18
     d14:	03e60800 	mvneq	r0, #0, 16
     d18:	b5010000 	strlt	r0, [r1, #-0]
     d1c:	000002ac 	andeq	r0, r0, ip, lsr #5
     d20:	09749102 	ldmdbeq	r4!, {r1, r8, ip, pc}^
     d24:	00637273 	rsbeq	r7, r3, r3, ror r2
     d28:	004cb501 	subeq	fp, ip, r1, lsl #10
     d2c:	91020000 	mrsls	r0, (UNDEF: 2)
     d30:	01140070 	tsteq	r4, r0, ror r0
     d34:	00000453 	andeq	r0, r0, r3, asr r4
     d38:	4501c301 	strmi	ip, [r1, #-769]	; 0x301
     d3c:	5c000000 	stcpl	0, cr0, [r0], {-0}
     d40:	40800016 	addmi	r0, r0, r6, lsl r0
     d44:	80800017 	addhi	r0, r0, r7, lsl r0
     d48:	01000005 	tsteq	r0, r5
     d4c:	63727309 	cmnvs	r2, #603979776	; 0x24000000
     d50:	acc30100 	stfgee	f0, [r3], {0}
     d54:	02000002 	andeq	r0, r0, #2
     d58:	760a6491 			; <UNDEFINED> instruction: 0x760a6491
     d5c:	01006c61 	tsteq	r0, r1, ror #24
     d60:	000045c5 	andeq	r4, r0, r5, asr #11
     d64:	74910200 	ldrvc	r0, [r1], #512	; 0x200
     d68:	736f700a 	cmnvc	pc, #10
     d6c:	45c50100 	strbmi	r0, [r5, #256]	; 0x100
     d70:	02000000 	andeq	r0, r0, #0
     d74:	44117091 	ldrmi	r7, [r1], #-145	; 0x91
     d78:	01000004 	tsteq	r0, r4
     d7c:	000045c5 	andeq	r4, r0, r5, asr #11
     d80:	6c910200 	lfmvs	f0, 4, [r1], {0}
     d84:	00960000 	addseq	r0, r6, r0
     d88:	00020000 	andeq	r0, r2, r0
     d8c:	000005a1 	andeq	r0, r0, r1, lsr #11
     d90:	06400104 	strbeq	r0, [r0], -r4, lsl #2
     d94:	17400000 	strbne	r0, [r0, -r0]
     d98:	18208000 	stmdane	r0!, {pc}
     d9c:	2e2e8000 	cdpcs	0, 2, cr8, cr14, cr0, {0}
     da0:	2f2e2e2f 	svccs	0x002e2e2f
     da4:	2e2f2e2e 	cdpcs	14, 2, cr2, cr15, cr14, {1}
     da8:	6f632f2e 	svcvs	0x00632f2e
     dac:	6e6f6d6d 	cdpvs	13, 6, cr6, cr15, cr13, {3}
     db0:	6575672f 	ldrbvs	r6, [r5, #-1839]!	; 0x72f
     db4:	632f7473 	teqvs	pc, #1929379840	; 0x73000000
     db8:	2f65726f 	svccs	0x0065726f
     dbc:	73657567 	cmnvc	r5, #432013312	; 0x19c00000
     dc0:	00532e74 	subseq	r2, r3, r4, ror lr
     dc4:	6d6f682f 	stclvs	8, cr6, [pc, #-188]!	; d10 <GUEST_OFFSET-0x7ffff2f0>
     dc8:	61632f65 	cmnvs	r3, r5, ror #30
     dcc:	6e6f6973 	mcrvs	9, 3, r6, cr15, cr3, {3}
     dd0:	2f6f6f77 	svccs	0x006f6f77
     dd4:	7079686b 	rsbsvc	r6, r9, fp, ror #16
     dd8:	69767265 	ldmdbvs	r6!, {r0, r2, r5, r6, r9, ip, sp, lr}^
     ddc:	2f726f73 	svccs	0x00726f73
     de0:	74616c70 	strbtvc	r6, [r1], #-3184	; 0xc70
     de4:	6d726f66 	ldclvs	15, cr6, [r2, #-408]!	; 0xfffffe68
     de8:	7665642d 	strbtvc	r6, [r5], -sp, lsr #8
     dec:	2f656369 	svccs	0x00656369
     df0:	74726f63 	ldrbtvc	r6, [r2], #-3939	; 0xf63
     df4:	615f7865 	cmpvs	pc, r5, ror #16
     df8:	32783531 	rsbscc	r3, r8, #205520896	; 0xc400000
     dfc:	7374725f 	cmnvc	r4, #-268435451	; 0xf0000005
     e00:	75672f6d 	strbvc	r2, [r7, #-3949]!	; 0xf6d
     e04:	6f747365 	svcvs	0x00747365
     e08:	6d622f73 	stclvs	15, cr2, [r2, #-460]!	; 0xfffffe34
     e0c:	73657567 	cmnvc	r5, #432013312	; 0x19c00000
     e10:	4e470074 	mcrmi	0, 2, r0, cr7, cr4, {3}
     e14:	53412055 	movtpl	r2, #4181	; 0x1055
     e18:	322e3220 	eorcc	r3, lr, #32, 4
     e1c:	80010034 	andhi	r0, r1, r4, lsr r0
     e20:	00000128 	andeq	r0, r0, r8, lsr #2
     e24:	05b50002 	ldreq	r0, [r5, #2]!
     e28:	01040000 	mrseq	r0, (UNDEF: 4)
     e2c:	00000007 	andeq	r0, r0, r7
     e30:	0004cd01 	andeq	ip, r4, r1, lsl #26
     e34:	00003d00 	andeq	r3, r0, r0, lsl #26
     e38:	00182000 	andseq	r2, r8, r0
     e3c:	00196880 	andseq	r6, r9, r0, lsl #17
     e40:	0006ca80 	andeq	ip, r6, r0, lsl #21
     e44:	b3010200 	movwlt	r0, #4608	; 0x1200
     e48:	01000004 	tsteq	r0, r4
     e4c:	18200107 	stmdane	r0!, {r0, r1, r2, r8}
     e50:	18348000 	ldmdane	r4!, {pc}
     e54:	05ac8000 	streq	r8, [ip, #0]!
     e58:	03010000 	movweq	r0, #4096	; 0x1000
     e5c:	0004a801 	andeq	sl, r4, r1, lsl #16
     e60:	01130100 	tsteq	r3, r0, lsl #2
     e64:	80001834 	andhi	r1, r0, r4, lsr r8
     e68:	8000188c 	andhi	r1, r0, ip, lsl #17
     e6c:	000005d8 	ldrdeq	r0, [r0], -r8
     e70:	00007201 	andeq	r7, r0, r1, lsl #4
     e74:	74730400 	ldrbtvc	r0, [r3], #-1024	; 0x400
     e78:	13010072 	movwne	r0, #4210	; 0x1072
     e7c:	00000072 	andeq	r0, r0, r2, ror r0
     e80:	056c9102 	strbeq	r9, [ip, #-258]!	; 0x102
     e84:	000004bd 			; <UNDEFINED> instruction: 0x000004bd
     e88:	00721501 	rsbseq	r1, r2, r1, lsl #10
     e8c:	91020000 	mrsls	r0, (UNDEF: 2)
     e90:	04060074 	streq	r0, [r6], #-116	; 0x74
     e94:	00000078 	andeq	r0, r0, r8, ror r0
     e98:	33080107 	movwcc	r0, #33031	; 0x8107
     e9c:	03000000 	movweq	r0, #0
     ea0:	0004c301 	andeq	ip, r4, r1, lsl #6
     ea4:	011a0100 	tsteq	sl, r0, lsl #2
     ea8:	8000188c 	andhi	r1, r0, ip, lsl #17
     eac:	800018c4 	andhi	r1, r0, r4, asr #17
     eb0:	00000604 	andeq	r0, r0, r4, lsl #12
     eb4:	0000b401 	andeq	fp, r0, r1, lsl #8
     eb8:	00630400 	rsbeq	r0, r3, r0, lsl #8
     ebc:	00781a01 	rsbseq	r1, r8, r1, lsl #20
     ec0:	91020000 	mrsls	r0, (UNDEF: 2)
     ec4:	04bd056f 	ldrteq	r0, [sp], #1391	; 0x56f
     ec8:	1c010000 	stcne	0, cr0, [r1], {-0}
     ecc:	000000b4 	strheq	r0, [r0], -r4
     ed0:	00749102 	rsbseq	r9, r4, r2, lsl #2
     ed4:	00ba0406 	adcseq	r0, sl, r6, lsl #8
     ed8:	78080000 	stmdavc	r8, {}	; <UNPREDICTABLE>
     edc:	09000000 	stmdbeq	r0, {}	; <UNPREDICTABLE>
     ee0:	0004e801 	andeq	lr, r4, r1, lsl #16
     ee4:	01200100 	teqeq	r0, r0, lsl #2
     ee8:	800018c4 	andhi	r1, r0, r4, asr #17
     eec:	80001968 	andhi	r1, r0, r8, ror #18
     ef0:	00000630 	andeq	r0, r0, r0, lsr r6
     ef4:	00010c01 	andeq	r0, r1, r1, lsl #24
     ef8:	00760400 	rsbseq	r0, r6, r0, lsl #8
     efc:	010c2001 	tsteq	ip, r1
     f00:	91020000 	mrsls	r0, (UNDEF: 2)
     f04:	04f90564 	ldrbteq	r0, [r9], #1380	; 0x564
     f08:	22010000 	andcs	r0, r1, #0
     f0c:	0000010c 	andeq	r0, r0, ip, lsl #2
     f10:	0a6c9102 	beq	1b25320 <GUEST_OFFSET-0x7e4dace0>
     f14:	23010063 	movwcs	r0, #4195	; 0x1063
     f18:	0000010c 	andeq	r0, r0, ip, lsl #2
     f1c:	0a749102 	beq	1d2532c <GUEST_OFFSET-0x7e2dacd4>
     f20:	24010069 	strcs	r0, [r1], #-105	; 0x69
     f24:	00000113 	andeq	r0, r0, r3, lsl r1
     f28:	00709102 	rsbseq	r9, r0, r2, lsl #2
     f2c:	1d070407 	cfstrsne	mvf0, [r7, #-28]	; 0xffffffe4
     f30:	0b000000 	bleq	f38 <GUEST_OFFSET-0x7ffff0c8>
     f34:	6e690504 	cdpvs	5, 6, cr0, cr9, cr4, {0}
     f38:	dc050074 	stcle	0, cr0, [r5], {116}	; 0x74
     f3c:	01000004 	tsteq	r0, r4
     f40:	00007805 	andeq	r7, r0, r5, lsl #16
     f44:	1c030500 	cfstr32ne	mvfx0, [r3], {-0}
     f48:	00800020 	addeq	r0, r0, r0, lsr #32
     f4c:	000002d2 	ldrdeq	r0, [r0], -r2
     f50:	06680002 	strbteq	r0, [r8], -r2
     f54:	01040000 	mrseq	r0, (UNDEF: 4)
     f58:	00000007 	andeq	r0, r0, r7
     f5c:	00053c01 	andeq	r3, r5, r1, lsl #24
     f60:	00003d00 	andeq	r3, r0, r0, lsl #26
     f64:	00196800 	andseq	r6, r9, r0, lsl #16
     f68:	001bec80 	andseq	lr, fp, r0, lsl #25
     f6c:	00072b80 	andeq	r2, r7, r0, lsl #23
     f70:	05040200 	streq	r0, [r4, #-512]	; 0x200
     f74:	00746e69 	rsbseq	r6, r4, r9, ror #28
     f78:	00030703 	andeq	r0, r3, r3, lsl #14
     f7c:	37050200 	strcc	r0, [r5, -r0, lsl #4]
     f80:	04000000 	streq	r0, [r0], #-0
     f84:	001d0704 	andseq	r0, sp, r4, lsl #14
     f88:	02040000 	andeq	r0, r4, #0
     f8c:	00008b07 	andeq	r8, r0, r7, lsl #22
     f90:	07080400 	streq	r0, [r8, -r0, lsl #8]
     f94:	00000013 	andeq	r0, r0, r3, lsl r0
     f98:	00025903 	andeq	r5, r2, r3, lsl #18
     f9c:	57080200 	strpl	r0, [r8, -r0, lsl #4]
     fa0:	04000000 	streq	r0, [r0], #-0
     fa4:	002a0801 	eoreq	r0, sl, r1, lsl #16
     fa8:	1b050000 	blne	140fb0 <GUEST_OFFSET-0x7febf050>
     fac:	04000003 	streq	r0, [r0], #-3
     fb0:	00950903 	addseq	r0, r5, r3, lsl #18
     fb4:	c2060000 	andgt	r0, r6, #0
     fb8:	00000001 	andeq	r0, r0, r1
     fbc:	0002cd06 	andeq	ip, r2, r6, lsl #26
     fc0:	e7067f00 	str	r7, [r6, -r0, lsl #30]
     fc4:	7e000002 	cdpvc	0, 0, cr0, cr0, cr2, {0}
     fc8:	0002bc06 	andeq	fp, r2, r6, lsl #24
     fcc:	f4067d00 			; <UNDEFINED> instruction: 0xf4067d00
     fd0:	7c000001 	stcvc	0, cr0, [r0], {1}
     fd4:	00019c06 	andeq	r9, r1, r6, lsl #24
     fd8:	a8067b00 	stmdage	r6, {r8, r9, fp, ip, sp, lr}
     fdc:	7a000002 	bvc	fec <GUEST_OFFSET-0x7ffff014>
     fe0:	02730300 	rsbseq	r0, r3, #0, 6
     fe4:	11030000 	mrsne	r0, (UNDEF: 3)
     fe8:	0000005e 	andeq	r0, r0, lr, asr r0
     fec:	0005d403 	andeq	sp, r5, r3, lsl #8
     ff0:	4c1b0300 	ldcmi	3, cr0, [fp], {-0}
     ff4:	07000000 	streq	r0, [r0, -r0]
     ff8:	c1010804 	tstgt	r1, r4, lsl #16
     ffc:	01000005 	tsteq	r0, r5
    1000:	1968012a 	stmdbne	r8!, {r1, r3, r5, r8}^
    1004:	19948000 	ldmibne	r4, {pc}
    1008:	065c8000 	ldrbeq	r8, [ip], -r0
    100c:	e4010000 	str	r0, [r1], #-0
    1010:	09000000 	stmdbeq	r0, {}	; <UNPREDICTABLE>
    1014:	000005cc 	andeq	r0, r0, ip, asr #11
    1018:	002c2a01 	eoreq	r2, ip, r1, lsl #20
    101c:	91020000 	mrsls	r0, (UNDEF: 2)
    1020:	05260974 	streq	r0, [r6, #-2420]!	; 0x974
    1024:	2a010000 	bcs	4102c <GUEST_OFFSET-0x7ffbefd4>
    1028:	0000002c 	andeq	r0, r0, ip, lsr #32
    102c:	00709102 	rsbseq	r9, r0, r2, lsl #2
    1030:	05ad010a 	streq	r0, [sp, #266]!	; 0x10a
    1034:	2f010000 	svccs	0x00010000
    1038:	00199401 	andseq	r9, r9, r1, lsl #8
    103c:	0019f080 	andseq	pc, r9, r0, lsl #1
    1040:	00068880 	andeq	r8, r6, r0, lsl #17
    1044:	01290100 	teqeq	r9, r0, lsl #2
    1048:	26090000 	strcs	r0, [r9], -r0
    104c:	01000005 	tsteq	r0, r5
    1050:	00002c2f 	andeq	r2, r0, pc, lsr #24
    1054:	6c910200 	lfmvs	f0, 4, [r1], {0}
    1058:	00053109 	andeq	r3, r5, r9, lsl #2
    105c:	2c2f0100 	stfcss	f0, [pc], #-0	; 1064 <GUEST_OFFSET-0x7fffef9c>
    1060:	02000000 	andeq	r0, r0, #0
    1064:	720b6891 	andvc	r6, fp, #9502720	; 0x910000
    1068:	01006765 	tsteq	r0, r5, ror #14
    106c:	00012931 	andeq	r2, r1, r1, lsr r9
    1070:	74910200 	ldrvc	r0, [r1], #512	; 0x200
    1074:	002c0c00 	eoreq	r0, ip, r0, lsl #24
    1078:	01080000 	mrseq	r0, (UNDEF: 8)
    107c:	00000552 	andeq	r0, r0, r2, asr r5
    1080:	f0013c01 			; <UNDEFINED> instruction: 0xf0013c01
    1084:	38800019 	stmcc	r0, {r0, r3, r4}
    1088:	b480001a 	strlt	r0, [r0], #26
    108c:	01000006 	tsteq	r0, r6
    1090:	00000165 	andeq	r0, r0, r5, ror #2
    1094:	00052609 	andeq	r2, r5, r9, lsl #12
    1098:	2c3c0100 	ldfcss	f0, [ip], #-0
    109c:	02000000 	andeq	r0, r0, #0
    10a0:	720b6c91 	andvc	r6, fp, #37120	; 0x9100
    10a4:	01006765 	tsteq	r0, r5, ror #14
    10a8:	0001293e 	andeq	r2, r1, lr, lsr r9
    10ac:	74910200 	ldrvc	r0, [r1], #512	; 0x200
    10b0:	ff010a00 			; <UNDEFINED> instruction: 0xff010a00
    10b4:	01000004 	tsteq	r0, r4
    10b8:	1a380143 	bne	e015cc <GUEST_OFFSET-0x7f1fea34>
    10bc:	1a688000 	bne	1a210c4 <GUEST_OFFSET-0x7e5def3c>
    10c0:	06e08000 	strbteq	r8, [r0], r0
    10c4:	9c010000 	stcls	0, cr0, [r1], {-0}
    10c8:	09000001 	stmdbeq	r0, {r0}
    10cc:	00000526 	andeq	r0, r0, r6, lsr #10
    10d0:	002c4301 	eoreq	r4, ip, r1, lsl #6
    10d4:	91020000 	mrsls	r0, (UNDEF: 2)
    10d8:	05310974 	ldreq	r0, [r1, #-2420]!	; 0x974
    10dc:	43010000 	movwmi	r0, #4096	; 0x1000
    10e0:	0000002c 	andeq	r0, r0, ip, lsr #32
    10e4:	00709102 	rsbseq	r9, r0, r2, lsl #2
    10e8:	05650108 	strbeq	r0, [r5, #-264]!	; 0x108
    10ec:	4a010000 	bmi	410f4 <GUEST_OFFSET-0x7ffbef0c>
    10f0:	001a6801 	andseq	r6, sl, r1, lsl #16
    10f4:	001a9480 	andseq	r9, sl, r0, lsl #9
    10f8:	00070c80 	andeq	r0, r7, r0, lsl #25
    10fc:	01c50100 	biceq	r0, r5, r0, lsl #2
    1100:	26090000 	strcs	r0, [r9], -r0
    1104:	01000005 	tsteq	r0, r5
    1108:	00002c4a 	andeq	r2, r0, sl, asr #24
    110c:	74910200 	ldrvc	r0, [r1], #512	; 0x200
    1110:	0a010800 	beq	43118 <GUEST_OFFSET-0x7ffbcee8>
    1114:	01000005 	tsteq	r0, r5
    1118:	1a94014f 	bne	fe50165c <guest_stacklimit+0x6e50165c>
    111c:	1adc8000 	bne	ff721124 <guest_stacklimit+0x6f721124>
    1120:	07388000 	ldreq	r8, [r8, -r0]!
    1124:	fc010000 	stc2	0, cr0, [r1], {-0}
    1128:	09000001 	stmdbeq	r0, {r0}
    112c:	00000526 	andeq	r0, r0, r6, lsr #10
    1130:	002c4f01 	eoreq	r4, ip, r1, lsl #30
    1134:	91020000 	mrsls	r0, (UNDEF: 2)
    1138:	65720b6c 	ldrbvs	r0, [r2, #-2924]!	; 0xb6c
    113c:	51010067 	tstpl	r1, r7, rrx
    1140:	00000129 	andeq	r0, r0, r9, lsr #2
    1144:	00749102 	rsbseq	r9, r4, r2, lsl #2
    1148:	058b010d 	streq	r0, [fp, #269]	; 0x10d
    114c:	56010000 	strpl	r0, [r1], -r0
    1150:	00002c01 	andeq	r2, r0, r1, lsl #24
    1154:	001adc00 	andseq	sp, sl, r0, lsl #24
    1158:	001b0880 	andseq	r0, fp, r0, lsl #17
    115c:	00076480 	andeq	r6, r7, r0, lsl #9
    1160:	02290100 	eoreq	r0, r9, #0, 2
    1164:	26090000 	strcs	r0, [r9], -r0
    1168:	01000005 	tsteq	r0, r5
    116c:	00002c56 	andeq	r2, r0, r6, asr ip
    1170:	74910200 	ldrvc	r0, [r1], #512	; 0x200
    1174:	16010800 	strne	r0, [r1], -r0, lsl #16
    1178:	01000005 	tsteq	r0, r5
    117c:	1b08015b 	blne	2016f0 <GUEST_OFFSET-0x7fdfe910>
    1180:	1b348000 	blne	d21188 <GUEST_OFFSET-0x7f2dee78>
    1184:	07908000 	ldreq	r8, [r0, r0]
    1188:	52010000 	andpl	r0, r1, #0
    118c:	09000002 	stmdbeq	r0, {r1}
    1190:	00000526 	andeq	r0, r0, r6, lsr #10
    1194:	002c5b01 	eoreq	r5, ip, r1, lsl #22
    1198:	91020000 	mrsls	r0, (UNDEF: 2)
    119c:	010a0074 	tsteq	sl, r4, ror r0
    11a0:	00000575 	andeq	r0, r0, r5, ror r5
    11a4:	34016001 	strcc	r6, [r1], #-1
    11a8:	a880001b 	stmge	r0, {r0, r1, r3, r4}
    11ac:	bc80001b 	stclt	0, cr0, [r0], {27}
    11b0:	01000007 	tsteq	r0, r7
    11b4:	000002bb 			; <UNDEFINED> instruction: 0x000002bb
    11b8:	7172690e 	cmnvc	r2, lr, lsl #18
    11bc:	25600100 	strbcs	r0, [r0, #-256]!	; 0x100
    11c0:	02000000 	andeq	r0, r0, #0
    11c4:	10096c91 	mulne	r9, r1, ip
    11c8:	01000003 	tsteq	r0, r3
    11cc:	0000ab60 	andeq	sl, r0, r0, ror #22
    11d0:	68910200 	ldmvs	r1, {r9}
    11d4:	00016309 	andeq	r6, r1, r9, lsl #6
    11d8:	ab600100 	blge	18015e0 <GUEST_OFFSET-0x7e7fea20>
    11dc:	02000000 	andeq	r0, r0, #0
    11e0:	630f6491 	movwvs	r6, #62609	; 0xf491
    11e4:	01006c74 	tsteq	r0, r4, ror ip
    11e8:	00002c62 	andeq	r2, r0, r2, ror #24
    11ec:	61760b00 	cmnvs	r6, r0, lsl #22
    11f0:	6301006c 	movwvs	r0, #4204	; 0x106c
    11f4:	0000002c 	andeq	r0, r0, ip, lsr #32
    11f8:	10749102 	rsbsne	r9, r4, r2, lsl #2
    11fc:	00000570 	andeq	r0, r0, r0, ror r5
    1200:	00a06401 	adceq	r6, r0, r1, lsl #8
    1204:	11000000 	mrsne	r0, (UNDEF: 0)
    1208:	00059601 	andeq	r9, r5, r1, lsl #12
    120c:	01710100 	cmneq	r1, r0, lsl #2
    1210:	00000095 	muleq	r0, r5, r0
    1214:	80001ba8 	andhi	r1, r0, r8, lsr #23
    1218:	80001bec 	andhi	r1, r0, ip, ror #23
    121c:	000007e8 	andeq	r0, r0, r8, ror #15
    1220:	Address 0x0000000000001220 is out of bounds.


Disassembly of section .debug_abbrev:

00000000 <.debug_abbrev>:
   0:	10001101 	andne	r1, r0, r1, lsl #2
   4:	12011106 	andne	r1, r1, #-2147483647	; 0x80000001
   8:	1b080301 	blne	200c14 <GUEST_OFFSET-0x7fdff3ec>
   c:	13082508 	movwne	r2, #34056	; 0x8508
  10:	00000005 	andeq	r0, r0, r5
  14:	25011101 	strcs	r1, [r1, #-257]	; 0x101
  18:	030b130e 	movweq	r1, #45838	; 0xb30e
  1c:	110e1b0e 	tstne	lr, lr, lsl #22
  20:	10011201 	andne	r1, r1, r1, lsl #4
  24:	02000006 	andeq	r0, r0, #6
  28:	0b0b0024 	bleq	2c00c0 <GUEST_OFFSET-0x7fd3ff40>
  2c:	08030b3e 	stmdaeq	r3, {r1, r2, r3, r4, r5, r8, r9, fp}
  30:	24030000 	strcs	r0, [r3], #-0
  34:	3e0b0b00 	vmlacc.f64	d0, d11, d0
  38:	000e030b 	andeq	r0, lr, fp, lsl #6
  3c:	012e0400 	teqeq	lr, r0, lsl #8
  40:	0e030c3f 	mcreq	12, 0, r0, cr3, cr15, {1}
  44:	0b3b0b3a 	bleq	ec2d34 <GUEST_OFFSET-0x7f13d2cc>
  48:	01111349 	tsteq	r1, r9, asr #6
  4c:	06400112 			; <UNDEFINED> instruction: 0x06400112
  50:	000c4296 	muleq	ip, r6, r2
  54:	00340500 	eorseq	r0, r4, r0, lsl #10
  58:	0b3a0803 	bleq	e8206c <GUEST_OFFSET-0x7f17df94>
  5c:	13490b3b 	movtne	r0, #39739	; 0x9b3b
  60:	01000000 	mrseq	r0, (UNDEF: 0)
  64:	0e250111 	mcreq	1, 1, r0, cr5, cr1, {0}
  68:	0e030b13 	vmoveq.32	d3[0], r0
  6c:	01110e1b 	tsteq	r1, fp, lsl lr
  70:	06100112 			; <UNDEFINED> instruction: 0x06100112
  74:	24020000 	strcs	r0, [r2], #-0
  78:	3e0b0b00 	vmlacc.f64	d0, d11, d0
  7c:	0008030b 	andeq	r0, r8, fp, lsl #6
  80:	00240300 	eoreq	r0, r4, r0, lsl #6
  84:	0b3e0b0b 	bleq	f82cb8 <GUEST_OFFSET-0x7f07d348>
  88:	00000e03 	andeq	r0, r0, r3, lsl #28
  8c:	3f012e04 	svccc	0x00012e04
  90:	3a0e030c 	bcc	380cc8 <GUEST_OFFSET-0x7fc7f338>
  94:	270b3b0b 	strcs	r3, [fp, -fp, lsl #22]
  98:	1201110c 	andne	r1, r1, #12, 2
  9c:	97064001 	strls	r4, [r6, -r1]
  a0:	13010c42 	movwne	r0, #7234	; 0x1c42
  a4:	34050000 	strcc	r0, [r5], #-0
  a8:	3a080300 	bcc	200cb0 <GUEST_OFFSET-0x7fdff350>
  ac:	490b3b0b 	stmdbmi	fp, {r0, r1, r3, r8, r9, fp, ip, sp}
  b0:	000a0213 	andeq	r0, sl, r3, lsl r2
  b4:	00350600 	eorseq	r0, r5, r0, lsl #12
  b8:	00001349 	andeq	r1, r0, r9, asr #6
  bc:	3f012e07 	svccc	0x00012e07
  c0:	3a0e030c 	bcc	380cf8 <GUEST_OFFSET-0x7fc7f308>
  c4:	270b3b0b 	strcs	r3, [fp, -fp, lsl #22]
  c8:	1201110c 	andne	r1, r1, #12, 2
  cc:	96064001 	strls	r4, [r6], -r1
  d0:	00000c42 	andeq	r0, r0, r2, asr #24
  d4:	3f012e08 	svccc	0x00012e08
  d8:	3a0e030c 	bcc	380d10 <GUEST_OFFSET-0x7fc7f2f0>
  dc:	490b3b0b 	stmdbmi	fp, {r0, r1, r3, r8, r9, fp, ip, sp}
  e0:	000c3c13 	andeq	r3, ip, r3, lsl ip
  e4:	00180900 	andseq	r0, r8, r0, lsl #18
  e8:	01000000 	mrseq	r0, (UNDEF: 0)
  ec:	0e250111 	mcreq	1, 1, r0, cr5, cr1, {0}
  f0:	0e030b13 	vmoveq.32	d3[0], r0
  f4:	01110e1b 	tsteq	r1, fp, lsl lr
  f8:	06100112 			; <UNDEFINED> instruction: 0x06100112
  fc:	13020000 	movwne	r0, #8192	; 0x2000
 100:	0b0e0301 	bleq	380d0c <GUEST_OFFSET-0x7fc7f2f4>
 104:	3b0b3a0b 	blcc	2ce938 <GUEST_OFFSET-0x7fd316c8>
 108:	0013010b 	andseq	r0, r3, fp, lsl #2
 10c:	000d0300 	andeq	r0, sp, r0, lsl #6
 110:	0b3a0e03 	bleq	e83924 <GUEST_OFFSET-0x7f17c6dc>
 114:	13490b3b 	movtne	r0, #39739	; 0x9b3b
 118:	00000a38 	andeq	r0, r0, r8, lsr sl
 11c:	03000d04 	movweq	r0, #3332	; 0xd04
 120:	3b0b3a08 	blcc	2ce948 <GUEST_OFFSET-0x7fd316b8>
 124:	3813490b 	ldmdacc	r3, {r0, r1, r3, r8, fp, lr}
 128:	0500000a 	streq	r0, [r0, #-10]
 12c:	0b0b0024 	bleq	2c01c4 <GUEST_OFFSET-0x7fd3fe3c>
 130:	0e030b3e 	vmoveq.16	d3[0], r0
 134:	01060000 	mrseq	r0, (UNDEF: 6)
 138:	01134901 	tsteq	r3, r1, lsl #18
 13c:	07000013 	smladeq	r0, r3, r0, r0
 140:	13490021 	movtne	r0, #36897	; 0x9021
 144:	00000b2f 	andeq	r0, r0, pc, lsr #22
 148:	3f012e08 	svccc	0x00012e08
 14c:	3a0e030c 	bcc	380d84 <GUEST_OFFSET-0x7fc7f27c>
 150:	270b3b0b 	strcs	r3, [fp, -fp, lsl #22]
 154:	1201110c 	andne	r1, r1, #12, 2
 158:	97064001 	strls	r4, [r6, -r1]
 15c:	13010c42 	movwne	r0, #7234	; 0x1c42
 160:	05090000 	streq	r0, [r9, #-0]
 164:	3a0e0300 	bcc	380d6c <GUEST_OFFSET-0x7fc7f294>
 168:	490b3b0b 	stmdbmi	fp, {r0, r1, r3, r8, r9, fp, ip, sp}
 16c:	000a0213 	andeq	r0, sl, r3, lsl r2
 170:	000f0a00 	andeq	r0, pc, r0, lsl #20
 174:	13490b0b 	movtne	r0, #39691	; 0x9b0b
 178:	2e0b0000 	cdpcs	0, 0, cr0, cr11, cr0, {0}
 17c:	030c3f01 	movweq	r3, #52993	; 0xcf01
 180:	3b0b3a0e 	blcc	2ce9c0 <GUEST_OFFSET-0x7fd31640>
 184:	110c270b 	tstne	ip, fp, lsl #14
 188:	40011201 	andmi	r1, r1, r1, lsl #4
 18c:	0c429606 	mcrreq	6, 0, r9, r2, cr6
 190:	00001301 	andeq	r1, r0, r1, lsl #6
 194:	3f012e0c 	svccc	0x00012e0c
 198:	3a0e030c 	bcc	380dd0 <GUEST_OFFSET-0x7fc7f230>
 19c:	490b3b0b 	stmdbmi	fp, {r0, r1, r3, r8, r9, fp, ip, sp}
 1a0:	000c3c13 	andeq	r3, ip, r3, lsl ip
 1a4:	00180d00 	andseq	r0, r8, r0, lsl #26
 1a8:	240e0000 	strcs	r0, [lr], #-0
 1ac:	3e0b0b00 	vmlacc.f64	d0, d11, d0
 1b0:	0008030b 	andeq	r0, r8, fp, lsl #6
 1b4:	11010000 	mrsne	r0, (UNDEF: 1)
 1b8:	130e2501 	movwne	r2, #58625	; 0xe501
 1bc:	1b0e030b 	blne	380df0 <GUEST_OFFSET-0x7fc7f210>
 1c0:	1201110e 	andne	r1, r1, #-2147483645	; 0x80000003
 1c4:	00061001 	andeq	r1, r6, r1
 1c8:	00240200 	eoreq	r0, r4, r0, lsl #4
 1cc:	0b3e0b0b 	bleq	f82e00 <GUEST_OFFSET-0x7f07d200>
 1d0:	00000803 	andeq	r0, r0, r3, lsl #16
 1d4:	03001603 	movweq	r1, #1539	; 0x603
 1d8:	3b0b3a0e 	blcc	2cea18 <GUEST_OFFSET-0x7fd315e8>
 1dc:	0013490b 	andseq	r4, r3, fp, lsl #18
 1e0:	00240400 	eoreq	r0, r4, r0, lsl #8
 1e4:	0b3e0b0b 	bleq	f82e18 <GUEST_OFFSET-0x7f07d1e8>
 1e8:	00000e03 	andeq	r0, r0, r3, lsl #28
 1ec:	03010405 	movweq	r0, #5125	; 0x1405
 1f0:	3a0b0b0e 	bcc	2c2e30 <GUEST_OFFSET-0x7fd3d1d0>
 1f4:	010b3b0b 	tsteq	fp, fp, lsl #22
 1f8:	06000013 			; <UNDEFINED> instruction: 0x06000013
 1fc:	0e030028 	cdpeq	0, 0, cr0, cr3, cr8, {1}
 200:	00000d1c 	andeq	r0, r0, ip, lsl sp
 204:	0b000f07 	bleq	3e28 <GUEST_OFFSET-0x7fffc1d8>
 208:	0013490b 	andseq	r4, r3, fp, lsl #18
 20c:	01150800 	tsteq	r5, r0, lsl #16
 210:	13010c27 	movwne	r0, #7207	; 0x1c27
 214:	05090000 	streq	r0, [r9, #-0]
 218:	00134900 	andseq	r4, r3, r0, lsl #18
 21c:	000f0a00 	andeq	r0, pc, r0, lsl #20
 220:	00000b0b 	andeq	r0, r0, fp, lsl #22
 224:	0301130b 	movweq	r1, #4875	; 0x130b
 228:	3a050b08 	bcc	142e50 <GUEST_OFFSET-0x7febd1b0>
 22c:	010b3b0b 	tsteq	fp, fp, lsl #22
 230:	0c000013 	stceq	0, cr0, [r0], {19}
 234:	0e03000d 	cdpeq	0, 0, cr0, cr3, cr13, {0}
 238:	0b3b0b3a 	bleq	ec2f28 <GUEST_OFFSET-0x7f13d0d8>
 23c:	0a381349 	beq	e04f68 <GUEST_OFFSET-0x7f1fb098>
 240:	350d0000 	strcc	r0, [sp, #-0]
 244:	00134900 	andseq	r4, r3, r0, lsl #18
 248:	01010e00 	tsteq	r1, r0, lsl #28
 24c:	13011349 	movwne	r1, #4937	; 0x1349
 250:	210f0000 	mrscs	r0, CPSR
 254:	2f134900 	svccs	0x00134900
 258:	1000000b 	andne	r0, r0, fp
 25c:	0e03012e 	adfeqsp	f0, f3, #0.5
 260:	0b3b0b3a 	bleq	ec2f50 <GUEST_OFFSET-0x7f13d0b0>
 264:	13490c27 	movtne	r0, #39975	; 0x9c27
 268:	01120111 	tsteq	r2, r1, lsl r1
 26c:	42970640 	addsmi	r0, r7, #64, 12	; 0x4000000
 270:	0013010c 	andseq	r0, r3, ip, lsl #2
 274:	010b1100 	mrseq	r1, (UNDEF: 27)
 278:	01120111 	tsteq	r2, r1, lsl r1
 27c:	34120000 	ldrcc	r0, [r2], #-0
 280:	3a0e0300 	bcc	380e88 <GUEST_OFFSET-0x7fc7f178>
 284:	490b3b0b 	stmdbmi	fp, {r0, r1, r3, r8, r9, fp, ip, sp}
 288:	000a0213 	andeq	r0, sl, r3, lsl r2
 28c:	012e1300 	teqeq	lr, r0, lsl #6
 290:	0b3a0e03 	bleq	e83aa4 <GUEST_OFFSET-0x7f17c55c>
 294:	0c270b3b 	stceq	11, cr0, [r7], #-236	; 0xffffff14
 298:	01120111 	tsteq	r2, r1, lsl r1
 29c:	42960640 	addsmi	r0, r6, #64, 12	; 0x4000000
 2a0:	0013010c 	andseq	r0, r3, ip, lsl #2
 2a4:	010b1400 	tsteq	fp, r0, lsl #8
 2a8:	01120111 	tsteq	r2, r1, lsl r1
 2ac:	00001301 	andeq	r1, r0, r1, lsl #6
 2b0:	03003415 	movweq	r3, #1045	; 0x415
 2b4:	3b0b3a0e 	blcc	2ceaf4 <GUEST_OFFSET-0x7fd3150c>
 2b8:	0013490b 	andseq	r4, r3, fp, lsl #18
 2bc:	012e1600 	teqeq	lr, r0, lsl #12
 2c0:	0b3a0e03 	bleq	e83ad4 <GUEST_OFFSET-0x7f17c52c>
 2c4:	0c270b3b 	stceq	11, cr0, [r7], #-236	; 0xffffff14
 2c8:	01111349 	tsteq	r1, r9, asr #6
 2cc:	06400112 			; <UNDEFINED> instruction: 0x06400112
 2d0:	010c4296 			; <UNDEFINED> instruction: 0x010c4296
 2d4:	17000013 	smladne	r0, r3, r0, r0
 2d8:	0e030005 	cdpeq	0, 0, cr0, cr3, cr5, {0}
 2dc:	0b3b0b3a 	bleq	ec2fcc <GUEST_OFFSET-0x7f13d034>
 2e0:	0a021349 	beq	8500c <GUEST_OFFSET-0x7ff7aff4>
 2e4:	2e180000 	cdpcs	0, 1, cr0, cr8, cr0, {0}
 2e8:	030c3f01 	movweq	r3, #52993	; 0xcf01
 2ec:	3b0b3a0e 	blcc	2ceb2c <GUEST_OFFSET-0x7fd314d4>
 2f0:	490c270b 	stmdbmi	ip, {r0, r1, r3, r8, r9, sl, sp}
 2f4:	12011113 	andne	r1, r1, #-1073741820	; 0xc0000004
 2f8:	97064001 	strls	r4, [r6, -r1]
 2fc:	13010c42 	movwne	r0, #7234	; 0x1c42
 300:	05190000 	ldreq	r0, [r9, #-0]
 304:	3a080300 	bcc	200f0c <GUEST_OFFSET-0x7fdff0f4>
 308:	490b3b0b 	stmdbmi	fp, {r0, r1, r3, r8, r9, fp, ip, sp}
 30c:	000a0213 	andeq	r0, sl, r3, lsl r2
 310:	012e1a00 	teqeq	lr, r0, lsl #20
 314:	0e030c3f 	mcreq	12, 0, r0, cr3, cr15, {1}
 318:	0b3b0b3a 	bleq	ec3008 <GUEST_OFFSET-0x7f13cff8>
 31c:	13490c27 	movtne	r0, #39975	; 0x9c27
 320:	01120111 	tsteq	r2, r1, lsl r1
 324:	42960640 	addsmi	r0, r6, #64, 12	; 0x4000000
 328:	0013010c 	andseq	r0, r3, ip, lsl #2
 32c:	00341b00 	eorseq	r1, r4, r0, lsl #22
 330:	0b3a0803 	bleq	e82344 <GUEST_OFFSET-0x7f17dcbc>
 334:	13490b3b 	movtne	r0, #39739	; 0x9b3b
 338:	00000a02 	andeq	r0, r0, r2, lsl #20
 33c:	3f012e1c 	svccc	0x00012e1c
 340:	3a0e030c 	bcc	380f78 <GUEST_OFFSET-0x7fc7f088>
 344:	270b3b0b 	strcs	r3, [fp, -fp, lsl #22]
 348:	1201110c 	andne	r1, r1, #12, 2
 34c:	96064001 	strls	r4, [r6], -r1
 350:	13010c42 	movwne	r0, #7234	; 0x1c42
 354:	131d0000 	tstne	sp, #0
 358:	3c0e0300 	stccc	3, cr0, [lr], {-0}
 35c:	0000000c 	andeq	r0, r0, ip
 360:	25011101 	strcs	r1, [r1, #-257]	; 0x101
 364:	030b130e 	movweq	r1, #45838	; 0xb30e
 368:	110e1b0e 	tstne	lr, lr, lsl #22
 36c:	10011201 	andne	r1, r1, r1, lsl #4
 370:	02000006 	andeq	r0, r0, #6
 374:	0b0b0024 	bleq	2c040c <GUEST_OFFSET-0x7fd3fbf4>
 378:	08030b3e 	stmdaeq	r3, {r1, r2, r3, r4, r5, r8, r9, fp}
 37c:	16030000 	strne	r0, [r3], -r0
 380:	3a0e0300 	bcc	380f88 <GUEST_OFFSET-0x7fc7f078>
 384:	490b3b0b 	stmdbmi	fp, {r0, r1, r3, r8, r9, fp, ip, sp}
 388:	04000013 	streq	r0, [r0], #-19
 38c:	0b0b0024 	bleq	2c0424 <GUEST_OFFSET-0x7fd3fbdc>
 390:	0e030b3e 	vmoveq.16	d3[0], r0
 394:	2e050000 	cdpcs	0, 0, cr0, cr5, cr0, {0}
 398:	030c3f01 	movweq	r3, #52993	; 0xcf01
 39c:	3b0b3a0e 	blcc	2cebdc <GUEST_OFFSET-0x7fd31424>
 3a0:	1201110b 	andne	r1, r1, #-1073741822	; 0xc0000002
 3a4:	96064001 	strls	r4, [r6], -r1
 3a8:	13010c42 	movwne	r0, #7234	; 0x1c42
 3ac:	34060000 	strcc	r0, [r6], #-0
 3b0:	3a0e0300 	bcc	380fb8 <GUEST_OFFSET-0x7fc7f048>
 3b4:	490b3b0b 	stmdbmi	fp, {r0, r1, r3, r8, r9, fp, ip, sp}
 3b8:	000a0213 	andeq	r0, sl, r3, lsl r2
 3bc:	00340700 	eorseq	r0, r4, r0, lsl #14
 3c0:	0b3a0803 	bleq	e823d4 <GUEST_OFFSET-0x7f17dc2c>
 3c4:	13490b3b 	movtne	r0, #39739	; 0x9b3b
 3c8:	00000a02 	andeq	r0, r0, r2, lsl #20
 3cc:	0b000f08 	bleq	3ff4 <GUEST_OFFSET-0x7fffc00c>
 3d0:	0013490b 	andseq	r4, r3, fp, lsl #18
 3d4:	00350900 	eorseq	r0, r5, r0, lsl #18
 3d8:	00001349 	andeq	r1, r0, r9, asr #6
 3dc:	01110100 	tsteq	r1, r0, lsl #2
 3e0:	0b130e25 	bleq	4c3c7c <GUEST_OFFSET-0x7fb3c384>
 3e4:	0e1b0e03 	cdpeq	14, 1, cr0, cr11, cr3, {0}
 3e8:	01120111 	tsteq	r2, r1, lsl r1
 3ec:	00000610 	andeq	r0, r0, r0, lsl r6
 3f0:	0b002402 	bleq	9400 <GUEST_OFFSET-0x7fff6c00>
 3f4:	030b3e0b 	movweq	r3, #48651	; 0xbe0b
 3f8:	03000008 	movweq	r0, #8
 3fc:	0e030016 	mcreq	0, 0, r0, cr3, cr6, {0}
 400:	0b3b0b3a 	bleq	ec30f0 <GUEST_OFFSET-0x7f13cf10>
 404:	00001349 	andeq	r1, r0, r9, asr #6
 408:	0b002404 	bleq	9420 <GUEST_OFFSET-0x7fff6be0>
 40c:	030b3e0b 	movweq	r3, #48651	; 0xbe0b
 410:	0500000e 	streq	r0, [r0, #-14]
 414:	0c3f012e 	ldfeqs	f0, [pc], #-184	; 364 <GUEST_OFFSET-0x7ffffc9c>
 418:	0b3a0e03 	bleq	e83c2c <GUEST_OFFSET-0x7f17c3d4>
 41c:	0c270b3b 	stceq	11, cr0, [r7], #-236	; 0xffffff14
 420:	01120111 	tsteq	r2, r1, lsl r1
 424:	42970640 	addsmi	r0, r7, #64, 12	; 0x4000000
 428:	0013010c 	andseq	r0, r3, ip, lsl #2
 42c:	00050600 	andeq	r0, r5, r0, lsl #12
 430:	0b3a0e03 	bleq	e83c44 <GUEST_OFFSET-0x7f17c3bc>
 434:	13490b3b 	movtne	r0, #39739	; 0x9b3b
 438:	00000a02 	andeq	r0, r0, r2, lsl #20
 43c:	03003407 	movweq	r3, #1031	; 0x407
 440:	3b0b3a0e 	blcc	2cec80 <GUEST_OFFSET-0x7fd31380>
 444:	3f13490b 	svccc	0x0013490b
 448:	000a020c 	andeq	r0, sl, ip, lsl #4
 44c:	000f0800 	andeq	r0, pc, r0, lsl #16
 450:	13490b0b 	movtne	r0, #39691	; 0x9b0b
 454:	35090000 	strcc	r0, [r9, #-0]
 458:	00134900 	andseq	r4, r3, r0, lsl #18
 45c:	11010000 	mrsne	r0, (UNDEF: 1)
 460:	130e2501 	movwne	r2, #58625	; 0xe501
 464:	1b0e030b 	blne	381098 <GUEST_OFFSET-0x7fc7ef68>
 468:	1201110e 	andne	r1, r1, #-2147483645	; 0x80000003
 46c:	00061001 	andeq	r1, r6, r1
 470:	00160200 	andseq	r0, r6, r0, lsl #4
 474:	0b3a0e03 	bleq	e83c88 <GUEST_OFFSET-0x7f17c378>
 478:	13490b3b 	movtne	r0, #39739	; 0x9b3b
 47c:	24030000 	strcs	r0, [r3], #-0
 480:	3e0b0b00 	vmlacc.f64	d0, d11, d0
 484:	000e030b 	andeq	r0, lr, fp, lsl #6
 488:	00240400 	eoreq	r0, r4, r0, lsl #8
 48c:	0b3e0b0b 	bleq	f830c0 <GUEST_OFFSET-0x7f07cf40>
 490:	00000803 	andeq	r0, r0, r3, lsl #16
 494:	0b000f05 	bleq	40b0 <GUEST_OFFSET-0x7fffbf50>
 498:	0013490b 	andseq	r4, r3, fp, lsl #18
 49c:	00260600 	eoreq	r0, r6, r0, lsl #12
 4a0:	00001349 	andeq	r1, r0, r9, asr #6
 4a4:	03012e07 	movweq	r2, #7687	; 0x1e07
 4a8:	3b0b3a0e 	blcc	2cece8 <GUEST_OFFSET-0x7fd31318>
 4ac:	490c270b 	stmdbmi	ip, {r0, r1, r3, r8, r9, sl, sp}
 4b0:	12011113 	andne	r1, r1, #-1073741820	; 0xc0000004
 4b4:	97064001 	strls	r4, [r6, -r1]
 4b8:	13010c42 	movwne	r0, #7234	; 0x1c42
 4bc:	05080000 	streq	r0, [r8, #-0]
 4c0:	3a0e0300 	bcc	3810c8 <GUEST_OFFSET-0x7fc7ef38>
 4c4:	490b3b0b 	stmdbmi	fp, {r0, r1, r3, r8, r9, fp, ip, sp}
 4c8:	000a0213 	andeq	r0, sl, r3, lsl r2
 4cc:	00050900 	andeq	r0, r5, r0, lsl #18
 4d0:	0b3a0803 	bleq	e824e4 <GUEST_OFFSET-0x7f17db1c>
 4d4:	13490b3b 	movtne	r0, #39739	; 0x9b3b
 4d8:	00000a02 	andeq	r0, r0, r2, lsl #20
 4dc:	0300340a 	movweq	r3, #1034	; 0x40a
 4e0:	3b0b3a08 	blcc	2ced08 <GUEST_OFFSET-0x7fd312f8>
 4e4:	0213490b 	andseq	r4, r3, #180224	; 0x2c000
 4e8:	0b00000a 	bleq	518 <GUEST_OFFSET-0x7ffffae8>
 4ec:	0b0b000f 	bleq	2c0530 <GUEST_OFFSET-0x7fd3fad0>
 4f0:	260c0000 	strcs	r0, [ip], -r0
 4f4:	0d000000 	stceq	0, cr0, [r0, #-0]
 4f8:	0c3f012e 	ldfeqs	f0, [pc], #-184	; 448 <GUEST_OFFSET-0x7ffffbb8>
 4fc:	0b3a0e03 	bleq	e83d10 <GUEST_OFFSET-0x7f17c2f0>
 500:	0c270b3b 	stceq	11, cr0, [r7], #-236	; 0xffffff14
 504:	01111349 	tsteq	r1, r9, asr #6
 508:	06400112 			; <UNDEFINED> instruction: 0x06400112
 50c:	010c4296 			; <UNDEFINED> instruction: 0x010c4296
 510:	0e000013 	mcreq	0, 0, r0, cr0, cr3, {0}
 514:	0c3f012e 	ldfeqs	f0, [pc], #-184	; 464 <GUEST_OFFSET-0x7ffffb9c>
 518:	0b3a0e03 	bleq	e83d2c <GUEST_OFFSET-0x7f17c2d4>
 51c:	0c270b3b 	stceq	11, cr0, [r7], #-236	; 0xffffff14
 520:	01111349 	tsteq	r1, r9, asr #6
 524:	06400112 			; <UNDEFINED> instruction: 0x06400112
 528:	010c4297 			; <UNDEFINED> instruction: 0x010c4297
 52c:	0f000013 	svceq	0x00000013
 530:	0c3f012e 	ldfeqs	f0, [pc], #-184	; 480 <GUEST_OFFSET-0x7ffffb80>
 534:	0b3a0e03 	bleq	e83d48 <GUEST_OFFSET-0x7f17c2b8>
 538:	0c27053b 	cfstr32eq	mvfx0, [r7], #-236	; 0xffffff14
 53c:	01111349 	tsteq	r1, r9, asr #6
 540:	06400112 			; <UNDEFINED> instruction: 0x06400112
 544:	010c4297 			; <UNDEFINED> instruction: 0x010c4297
 548:	10000013 	andne	r0, r0, r3, lsl r0
 54c:	0c3f012e 	ldfeqs	f0, [pc], #-184	; 49c <GUEST_OFFSET-0x7ffffb64>
 550:	0b3a0e03 	bleq	e83d64 <GUEST_OFFSET-0x7f17c29c>
 554:	0c270b3b 	stceq	11, cr0, [r7], #-236	; 0xffffff14
 558:	01120111 	tsteq	r2, r1, lsl r1
 55c:	42970640 	addsmi	r0, r7, #64, 12	; 0x4000000
 560:	0013010c 	andseq	r0, r3, ip, lsl #2
 564:	00341100 	eorseq	r1, r4, r0, lsl #2
 568:	0b3a0e03 	bleq	e83d7c <GUEST_OFFSET-0x7f17c284>
 56c:	13490b3b 	movtne	r0, #39739	; 0x9b3b
 570:	00000a02 	andeq	r0, r0, r2, lsl #20
 574:	49010112 	stmdbmi	r1, {r1, r4, r8}
 578:	00130113 	andseq	r0, r3, r3, lsl r1
 57c:	00211300 	eoreq	r1, r1, r0, lsl #6
 580:	0b2f1349 	bleq	bc52ac <GUEST_OFFSET-0x7f43ad54>
 584:	2e140000 	cdpcs	0, 1, cr0, cr4, cr0, {0}
 588:	030c3f01 	movweq	r3, #52993	; 0xcf01
 58c:	3b0b3a0e 	blcc	2cedcc <GUEST_OFFSET-0x7fd31234>
 590:	490c270b 	stmdbmi	ip, {r0, r1, r3, r8, r9, sl, sp}
 594:	12011113 	andne	r1, r1, #-1073741820	; 0xc0000004
 598:	97064001 	strls	r4, [r6, -r1]
 59c:	00000c42 	andeq	r0, r0, r2, asr #24
 5a0:	00110100 	andseq	r0, r1, r0, lsl #2
 5a4:	01110610 	tsteq	r1, r0, lsl r6
 5a8:	08030112 	stmdaeq	r3, {r1, r4, r8}
 5ac:	0825081b 	stmdaeq	r5!, {r0, r1, r3, r4, fp}
 5b0:	00000513 	andeq	r0, r0, r3, lsl r5
 5b4:	01110100 	tsteq	r1, r0, lsl #2
 5b8:	0b130e25 	bleq	4c3e54 <GUEST_OFFSET-0x7fb3c1ac>
 5bc:	0e1b0e03 	cdpeq	14, 1, cr0, cr11, cr3, {0}
 5c0:	01120111 	tsteq	r2, r1, lsl r1
 5c4:	00000610 	andeq	r0, r0, r0, lsl r6
 5c8:	3f002e02 	svccc	0x00002e02
 5cc:	3a0e030c 	bcc	381204 <GUEST_OFFSET-0x7fc7edfc>
 5d0:	270b3b0b 	strcs	r3, [fp, -fp, lsl #22]
 5d4:	1201110c 	andne	r1, r1, #12, 2
 5d8:	97064001 	strls	r4, [r6, -r1]
 5dc:	00000c42 	andeq	r0, r0, r2, asr #24
 5e0:	3f012e03 	svccc	0x00012e03
 5e4:	3a0e030c 	bcc	38121c <GUEST_OFFSET-0x7fc7ede4>
 5e8:	270b3b0b 	strcs	r3, [fp, -fp, lsl #22]
 5ec:	1201110c 	andne	r1, r1, #12, 2
 5f0:	97064001 	strls	r4, [r6, -r1]
 5f4:	13010c42 	movwne	r0, #7234	; 0x1c42
 5f8:	05040000 	streq	r0, [r4, #-0]
 5fc:	3a080300 	bcc	201204 <GUEST_OFFSET-0x7fdfedfc>
 600:	490b3b0b 	stmdbmi	fp, {r0, r1, r3, r8, r9, fp, ip, sp}
 604:	000a0213 	andeq	r0, sl, r3, lsl r2
 608:	00340500 	eorseq	r0, r4, r0, lsl #10
 60c:	0b3a0e03 	bleq	e83e20 <GUEST_OFFSET-0x7f17c1e0>
 610:	13490b3b 	movtne	r0, #39739	; 0x9b3b
 614:	00000a02 	andeq	r0, r0, r2, lsl #20
 618:	0b000f06 	bleq	4238 <GUEST_OFFSET-0x7fffbdc8>
 61c:	0013490b 	andseq	r4, r3, fp, lsl #18
 620:	00240700 	eoreq	r0, r4, r0, lsl #14
 624:	0b3e0b0b 	bleq	f83258 <GUEST_OFFSET-0x7f07cda8>
 628:	00000e03 	andeq	r0, r0, r3, lsl #28
 62c:	49003508 	stmdbmi	r0, {r3, r8, sl, ip, sp}
 630:	09000013 	stmdbeq	r0, {r0, r1, r4}
 634:	0c3f012e 	ldfeqs	f0, [pc], #-184	; 584 <GUEST_OFFSET-0x7ffffa7c>
 638:	0b3a0e03 	bleq	e83e4c <GUEST_OFFSET-0x7f17c1b4>
 63c:	0c270b3b 	stceq	11, cr0, [r7], #-236	; 0xffffff14
 640:	01120111 	tsteq	r2, r1, lsl r1
 644:	42960640 	addsmi	r0, r6, #64, 12	; 0x4000000
 648:	0013010c 	andseq	r0, r3, ip, lsl #2
 64c:	00340a00 	eorseq	r0, r4, r0, lsl #20
 650:	0b3a0803 	bleq	e82664 <GUEST_OFFSET-0x7f17d99c>
 654:	13490b3b 	movtne	r0, #39739	; 0x9b3b
 658:	00000a02 	andeq	r0, r0, r2, lsl #20
 65c:	0b00240b 	bleq	9690 <GUEST_OFFSET-0x7fff6970>
 660:	030b3e0b 	movweq	r3, #48651	; 0xbe0b
 664:	00000008 	andeq	r0, r0, r8
 668:	25011101 	strcs	r1, [r1, #-257]	; 0x101
 66c:	030b130e 	movweq	r1, #45838	; 0xb30e
 670:	110e1b0e 	tstne	lr, lr, lsl #22
 674:	10011201 	andne	r1, r1, r1, lsl #4
 678:	02000006 	andeq	r0, r0, #6
 67c:	0b0b0024 	bleq	2c0714 <GUEST_OFFSET-0x7fd3f8ec>
 680:	08030b3e 	stmdaeq	r3, {r1, r2, r3, r4, r5, r8, r9, fp}
 684:	16030000 	strne	r0, [r3], -r0
 688:	3a0e0300 	bcc	381290 <GUEST_OFFSET-0x7fc7ed70>
 68c:	490b3b0b 	stmdbmi	fp, {r0, r1, r3, r8, r9, fp, ip, sp}
 690:	04000013 	streq	r0, [r0], #-19
 694:	0b0b0024 	bleq	2c072c <GUEST_OFFSET-0x7fd3f8d4>
 698:	0e030b3e 	vmoveq.16	d3[0], r0
 69c:	04050000 	streq	r0, [r5], #-0
 6a0:	0b0e0301 	bleq	3812ac <GUEST_OFFSET-0x7fc7ed54>
 6a4:	3b0b3a0b 	blcc	2ceed8 <GUEST_OFFSET-0x7fd31128>
 6a8:	0013010b 	andseq	r0, r3, fp, lsl #2
 6ac:	00280600 	eoreq	r0, r8, r0, lsl #12
 6b0:	0d1c0e03 	ldceq	14, cr0, [ip, #-12]
 6b4:	0f070000 	svceq	0x00070000
 6b8:	000b0b00 	andeq	r0, fp, r0, lsl #22
 6bc:	012e0800 	teqeq	lr, r0, lsl #16
 6c0:	0e030c3f 	mcreq	12, 0, r0, cr3, cr15, {1}
 6c4:	0b3b0b3a 	bleq	ec33b4 <GUEST_OFFSET-0x7f13cc4c>
 6c8:	01110c27 	tsteq	r1, r7, lsr #24
 6cc:	06400112 			; <UNDEFINED> instruction: 0x06400112
 6d0:	010c4297 			; <UNDEFINED> instruction: 0x010c4297
 6d4:	09000013 	stmdbeq	r0, {r0, r1, r4}
 6d8:	0e030005 	cdpeq	0, 0, cr0, cr3, cr5, {0}
 6dc:	0b3b0b3a 	bleq	ec33cc <GUEST_OFFSET-0x7f13cc34>
 6e0:	0a021349 	beq	8540c <GUEST_OFFSET-0x7ff7abf4>
 6e4:	2e0a0000 	cdpcs	0, 0, cr0, cr10, cr0, {0}
 6e8:	030c3f01 	movweq	r3, #52993	; 0xcf01
 6ec:	3b0b3a0e 	blcc	2cef2c <GUEST_OFFSET-0x7fd310d4>
 6f0:	110c270b 	tstne	ip, fp, lsl #14
 6f4:	40011201 	andmi	r1, r1, r1, lsl #4
 6f8:	0c429606 	mcrreq	6, 0, r9, r2, cr6
 6fc:	00001301 	andeq	r1, r0, r1, lsl #6
 700:	0300340b 	movweq	r3, #1035	; 0x40b
 704:	3b0b3a08 	blcc	2cef2c <GUEST_OFFSET-0x7fd310d4>
 708:	0213490b 	andseq	r4, r3, #180224	; 0x2c000
 70c:	0c00000a 	stceq	0, cr0, [r0], {10}
 710:	13490035 	movtne	r0, #36917	; 0x9035
 714:	2e0d0000 	cdpcs	0, 0, cr0, cr13, cr0, {0}
 718:	030c3f01 	movweq	r3, #52993	; 0xcf01
 71c:	3b0b3a0e 	blcc	2cef5c <GUEST_OFFSET-0x7fd310a4>
 720:	490c270b 	stmdbmi	ip, {r0, r1, r3, r8, r9, sl, sp}
 724:	12011113 	andne	r1, r1, #-1073741820	; 0xc0000004
 728:	97064001 	strls	r4, [r6, -r1]
 72c:	13010c42 	movwne	r0, #7234	; 0x1c42
 730:	050e0000 	streq	r0, [lr, #-0]
 734:	3a080300 	bcc	20133c <GUEST_OFFSET-0x7fdfecc4>
 738:	490b3b0b 	stmdbmi	fp, {r0, r1, r3, r8, r9, fp, ip, sp}
 73c:	000a0213 	andeq	r0, sl, r3, lsl r2
 740:	00340f00 	eorseq	r0, r4, r0, lsl #30
 744:	0b3a0803 	bleq	e82758 <GUEST_OFFSET-0x7f17d8a8>
 748:	13490b3b 	movtne	r0, #39739	; 0x9b3b
 74c:	34100000 	ldrcc	r0, [r0], #-0
 750:	3a0e0300 	bcc	381358 <GUEST_OFFSET-0x7fc7eca8>
 754:	490b3b0b 	stmdbmi	fp, {r0, r1, r3, r8, r9, fp, ip, sp}
 758:	11000013 	tstne	r0, r3, lsl r0
 75c:	0c3f002e 	ldceq	0, cr0, [pc], #-184	; 6ac <GUEST_OFFSET-0x7ffff954>
 760:	0b3a0e03 	bleq	e83f74 <GUEST_OFFSET-0x7f17c08c>
 764:	0c270b3b 	stceq	11, cr0, [r7], #-236	; 0xffffff14
 768:	01111349 	tsteq	r1, r9, asr #6
 76c:	06400112 			; <UNDEFINED> instruction: 0x06400112
 770:	000c4296 	muleq	ip, r6, r2
	...

Disassembly of section .debug_aranges:

00000000 <.debug_aranges>:
   0:	0000001c 	andeq	r0, r0, ip, lsl r0
   4:	00000002 	andeq	r0, r0, r2
   8:	00040000 	andeq	r0, r4, r0
   c:	00000000 	andeq	r0, r0, r0
  10:	80000000 	andhi	r0, r0, r0
  14:	00000004 	andeq	r0, r0, r4
	...
  20:	0000001c 	andeq	r0, r0, ip, lsl r0
  24:	007b0002 	rsbseq	r0, fp, r2
  28:	00040000 	andeq	r0, r4, r0
  2c:	00000000 	andeq	r0, r0, r0
  30:	80000004 	andhi	r0, r0, r4
  34:	00000024 	andeq	r0, r0, r4, lsr #32
	...
  40:	0000001c 	andeq	r0, r0, ip, lsl r0
  44:	00e90002 	rsceq	r0, r9, r2
  48:	00040000 	andeq	r0, r4, r0
  4c:	00000000 	andeq	r0, r0, r0
  50:	80000028 	andhi	r0, r0, r8, lsr #32
  54:	00000194 	muleq	r0, r4, r1
	...
  60:	0000001c 	andeq	r0, r0, ip, lsl r0
  64:	01900002 	orrseq	r0, r0, r2
  68:	00040000 	andeq	r0, r4, r0
  6c:	00000000 	andeq	r0, r0, r0
  70:	800001bc 			; <UNDEFINED> instruction: 0x800001bc
  74:	0000005c 	andeq	r0, r0, ip, asr r0
	...
  80:	0000001c 	andeq	r0, r0, ip, lsl r0
  84:	02a10002 	adceq	r0, r1, #2
  88:	00040000 	andeq	r0, r4, r0
  8c:	00000000 	andeq	r0, r0, r0
  90:	80000218 	andhi	r0, r0, r8, lsl r2
  94:	00000888 	andeq	r0, r0, r8, lsl #17
	...
  a0:	0000001c 	andeq	r0, r0, ip, lsl r0
  a4:	069c0002 	ldreq	r0, [ip], r2
  a8:	00040000 	andeq	r0, r4, r0
  ac:	00000000 	andeq	r0, r0, r0
  b0:	80000aa0 	andhi	r0, r0, r0, lsr #21
  b4:	00000174 	andeq	r0, r0, r4, ror r1
	...
  c0:	0000001c 	andeq	r0, r0, ip, lsl r0
  c4:	077f0002 	ldrbeq	r0, [pc, -r2]!
  c8:	00040000 	andeq	r0, r4, r0
  cc:	00000000 	andeq	r0, r0, r0
  d0:	80000c14 	andhi	r0, r0, r4, lsl ip
  d4:	00000030 	andeq	r0, r0, r0, lsr r0
	...
  e0:	0000001c 	andeq	r0, r0, ip, lsl r0
  e4:	08190002 	ldmdaeq	r9, {r1}
  e8:	00040000 	andeq	r0, r4, r0
  ec:	00000000 	andeq	r0, r0, r0
  f0:	80000c44 	andhi	r0, r0, r4, asr #24
  f4:	00000afc 	strdeq	r0, [r0], -ip
	...
 100:	0000001c 	andeq	r0, r0, ip, lsl r0
 104:	0d860002 	stceq	0, cr0, [r6, #8]
 108:	00040000 	andeq	r0, r4, r0
 10c:	00000000 	andeq	r0, r0, r0
 110:	80001740 	andhi	r1, r0, r0, asr #14
 114:	000000e0 	andeq	r0, r0, r0, ror #1
	...
 120:	0000001c 	andeq	r0, r0, ip, lsl r0
 124:	0e200002 	cdpeq	0, 2, cr0, cr0, cr2, {0}
 128:	00040000 	andeq	r0, r4, r0
 12c:	00000000 	andeq	r0, r0, r0
 130:	80001820 	andhi	r1, r0, r0, lsr #16
 134:	00000148 	andeq	r0, r0, r8, asr #2
	...
 140:	0000001c 	andeq	r0, r0, ip, lsl r0
 144:	0f4c0002 	svceq	0x004c0002
 148:	00040000 	andeq	r0, r4, r0
 14c:	00000000 	andeq	r0, r0, r0
 150:	80001968 	andhi	r1, r0, r8, ror #18
 154:	00000284 	andeq	r0, r0, r4, lsl #5
	...

Disassembly of section .debug_loc:

00000000 <.debug_loc>:
   0:	00000000 	andeq	r0, r0, r0
   4:	00000004 	andeq	r0, r0, r4
   8:	007d0002 	rsbseq	r0, sp, r2
   c:	00000004 	andeq	r0, r0, r4
  10:	00000008 	andeq	r0, r0, r8
  14:	087d0002 	ldmdaeq	sp!, {r1}^
  18:	00000008 	andeq	r0, r0, r8
  1c:	00000024 	andeq	r0, r0, r4, lsr #32
  20:	047b0002 	ldrbteq	r0, [fp], #-2
	...
  30:	00000004 	andeq	r0, r0, r4
  34:	007d0002 	rsbseq	r0, sp, r2
  38:	00000004 	andeq	r0, r0, r4
  3c:	00000008 	andeq	r0, r0, r8
  40:	047d0002 	ldrbteq	r0, [sp], #-2
  44:	00000008 	andeq	r0, r0, r8
  48:	00000048 	andeq	r0, r0, r8, asr #32
  4c:	047b0002 	ldrbteq	r0, [fp], #-2
	...
  58:	00000048 	andeq	r0, r0, r8, asr #32
  5c:	0000004c 	andeq	r0, r0, ip, asr #32
  60:	007d0002 	rsbseq	r0, sp, r2
  64:	0000004c 	andeq	r0, r0, ip, asr #32
  68:	00000050 	andeq	r0, r0, r0, asr r0
  6c:	087d0002 	ldmdaeq	sp!, {r1}^
  70:	00000050 	andeq	r0, r0, r0, asr r0
  74:	00000194 	muleq	r0, r4, r1
  78:	047b0002 	ldrbteq	r0, [fp], #-2
	...
  88:	00000004 	andeq	r0, r0, r4
  8c:	007d0002 	rsbseq	r0, sp, r2
  90:	00000004 	andeq	r0, r0, r4
  94:	00000008 	andeq	r0, r0, r8
  98:	047d0002 	ldrbteq	r0, [sp], #-2
  9c:	00000008 	andeq	r0, r0, r8
  a0:	0000001c 	andeq	r0, r0, ip, lsl r0
  a4:	047b0002 	ldrbteq	r0, [fp], #-2
	...
  b0:	0000001c 	andeq	r0, r0, ip, lsl r0
  b4:	00000020 	andeq	r0, r0, r0, lsr #32
  b8:	007d0002 	rsbseq	r0, sp, r2
  bc:	00000020 	andeq	r0, r0, r0, lsr #32
  c0:	00000024 	andeq	r0, r0, r4, lsr #32
  c4:	047d0002 	ldrbteq	r0, [sp], #-2
  c8:	00000024 	andeq	r0, r0, r4, lsr #32
  cc:	00000038 	andeq	r0, r0, r8, lsr r0
  d0:	047b0002 	ldrbteq	r0, [fp], #-2
	...
  dc:	00000038 	andeq	r0, r0, r8, lsr r0
  e0:	0000003c 	andeq	r0, r0, ip, lsr r0
  e4:	007d0002 	rsbseq	r0, sp, r2
  e8:	0000003c 	andeq	r0, r0, ip, lsr r0
  ec:	00000040 	andeq	r0, r0, r0, asr #32
  f0:	087d0002 	ldmdaeq	sp!, {r1}^
  f4:	00000040 	andeq	r0, r0, r0, asr #32
  f8:	0000005c 	andeq	r0, r0, ip, asr r0
  fc:	047b0002 	ldrbteq	r0, [fp], #-2
	...
 10c:	00000004 	andeq	r0, r0, r4
 110:	007d0002 	rsbseq	r0, sp, r2
 114:	00000004 	andeq	r0, r0, r4
 118:	00000008 	andeq	r0, r0, r8
 11c:	087d0002 	ldmdaeq	sp!, {r1}^
 120:	00000008 	andeq	r0, r0, r8
 124:	0000002c 	andeq	r0, r0, ip, lsr #32
 128:	047b0002 	ldrbteq	r0, [fp], #-2
	...
 134:	0000002c 	andeq	r0, r0, ip, lsr #32
 138:	00000030 	andeq	r0, r0, r0, lsr r0
 13c:	007d0002 	rsbseq	r0, sp, r2
 140:	00000030 	andeq	r0, r0, r0, lsr r0
 144:	00000034 	andeq	r0, r0, r4, lsr r0
 148:	087d0002 	ldmdaeq	sp!, {r1}^
 14c:	00000034 	andeq	r0, r0, r4, lsr r0
 150:	00000168 	andeq	r0, r0, r8, ror #2
 154:	047b0002 	ldrbteq	r0, [fp], #-2
	...
 160:	00000168 	andeq	r0, r0, r8, ror #2
 164:	0000016c 	andeq	r0, r0, ip, ror #2
 168:	007d0002 	rsbseq	r0, sp, r2
 16c:	0000016c 	andeq	r0, r0, ip, ror #2
 170:	00000170 	andeq	r0, r0, r0, ror r1
 174:	0c7d0002 	ldcleq	0, cr0, [sp], #-8
 178:	00000170 	andeq	r0, r0, r0, ror r1
 17c:	000003b4 			; <UNDEFINED> instruction: 0x000003b4
 180:	047b0002 	ldrbteq	r0, [fp], #-2
	...
 18c:	000003b4 			; <UNDEFINED> instruction: 0x000003b4
 190:	000003b8 			; <UNDEFINED> instruction: 0x000003b8
 194:	007d0002 	rsbseq	r0, sp, r2
 198:	000003b8 			; <UNDEFINED> instruction: 0x000003b8
 19c:	000003bc 			; <UNDEFINED> instruction: 0x000003bc
 1a0:	0c7d0002 	ldcleq	0, cr0, [sp], #-8
 1a4:	000003bc 			; <UNDEFINED> instruction: 0x000003bc
 1a8:	000004c0 	andeq	r0, r0, r0, asr #9
 1ac:	047b0002 	ldrbteq	r0, [fp], #-2
	...
 1b8:	000004c0 	andeq	r0, r0, r0, asr #9
 1bc:	000004c4 	andeq	r0, r0, r4, asr #9
 1c0:	007d0002 	rsbseq	r0, sp, r2
 1c4:	000004c4 	andeq	r0, r0, r4, asr #9
 1c8:	000004c8 	andeq	r0, r0, r8, asr #9
 1cc:	047d0002 	ldrbteq	r0, [sp], #-2
 1d0:	000004c8 	andeq	r0, r0, r8, asr #9
 1d4:	00000518 	andeq	r0, r0, r8, lsl r5
 1d8:	047b0002 	ldrbteq	r0, [fp], #-2
	...
 1e4:	00000518 	andeq	r0, r0, r8, lsl r5
 1e8:	0000051c 	andeq	r0, r0, ip, lsl r5
 1ec:	007d0002 	rsbseq	r0, sp, r2
 1f0:	0000051c 	andeq	r0, r0, ip, lsl r5
 1f4:	00000520 	andeq	r0, r0, r0, lsr #10
 1f8:	047d0002 	ldrbteq	r0, [sp], #-2
 1fc:	00000520 	andeq	r0, r0, r0, lsr #10
 200:	00000570 	andeq	r0, r0, r0, ror r5
 204:	047b0002 	ldrbteq	r0, [fp], #-2
	...
 210:	00000570 	andeq	r0, r0, r0, ror r5
 214:	00000574 	andeq	r0, r0, r4, ror r5
 218:	007d0002 	rsbseq	r0, sp, r2
 21c:	00000574 	andeq	r0, r0, r4, ror r5
 220:	00000578 	andeq	r0, r0, r8, ror r5
 224:	047d0002 	ldrbteq	r0, [sp], #-2
 228:	00000578 	andeq	r0, r0, r8, ror r5
 22c:	000005e0 	andeq	r0, r0, r0, ror #11
 230:	047b0002 	ldrbteq	r0, [fp], #-2
	...
 23c:	000005e0 	andeq	r0, r0, r0, ror #11
 240:	000005e4 	andeq	r0, r0, r4, ror #11
 244:	007d0002 	rsbseq	r0, sp, r2
 248:	000005e4 	andeq	r0, r0, r4, ror #11
 24c:	000005e8 	andeq	r0, r0, r8, ror #11
 250:	087d0002 	ldmdaeq	sp!, {r1}^
 254:	000005e8 	andeq	r0, r0, r8, ror #11
 258:	0000072c 	andeq	r0, r0, ip, lsr #14
 25c:	047b0002 	ldrbteq	r0, [fp], #-2
	...
 268:	0000072c 	andeq	r0, r0, ip, lsr #14
 26c:	00000730 	andeq	r0, r0, r0, lsr r7
 270:	007d0002 	rsbseq	r0, sp, r2
 274:	00000730 	andeq	r0, r0, r0, lsr r7
 278:	00000734 	andeq	r0, r0, r4, lsr r7
 27c:	087d0002 	ldmdaeq	sp!, {r1}^
 280:	00000734 	andeq	r0, r0, r4, lsr r7
 284:	00000888 	andeq	r0, r0, r8, lsl #17
 288:	047b0002 	ldrbteq	r0, [fp], #-2
	...
 298:	00000004 	andeq	r0, r0, r4
 29c:	007d0002 	rsbseq	r0, sp, r2
 2a0:	00000004 	andeq	r0, r0, r4
 2a4:	00000008 	andeq	r0, r0, r8
 2a8:	087d0002 	ldmdaeq	sp!, {r1}^
 2ac:	00000008 	andeq	r0, r0, r8
 2b0:	00000174 	andeq	r0, r0, r4, ror r1
 2b4:	047b0002 	ldrbteq	r0, [fp], #-2
	...
 2c4:	00000004 	andeq	r0, r0, r4
 2c8:	007d0002 	rsbseq	r0, sp, r2
 2cc:	00000004 	andeq	r0, r0, r4
 2d0:	00000008 	andeq	r0, r0, r8
 2d4:	047d0002 	ldrbteq	r0, [sp], #-2
 2d8:	00000008 	andeq	r0, r0, r8
 2dc:	00000030 	andeq	r0, r0, r0, lsr r0
 2e0:	047b0002 	ldrbteq	r0, [fp], #-2
	...
 2f0:	00000004 	andeq	r0, r0, r4
 2f4:	007d0002 	rsbseq	r0, sp, r2
 2f8:	00000004 	andeq	r0, r0, r4
 2fc:	00000008 	andeq	r0, r0, r8
 300:	047d0002 	ldrbteq	r0, [sp], #-2
 304:	00000008 	andeq	r0, r0, r8
 308:	00000090 	muleq	r0, r0, r0
 30c:	047b0002 	ldrbteq	r0, [fp], #-2
	...
 318:	00000090 	muleq	r0, r0, r0
 31c:	00000094 	muleq	r0, r4, r0
 320:	007d0002 	rsbseq	r0, sp, r2
 324:	00000094 	muleq	r0, r4, r0
 328:	00000098 	muleq	r0, r8, r0
 32c:	047d0002 	ldrbteq	r0, [sp], #-2
 330:	00000098 	muleq	r0, r8, r0
 334:	00000138 	andeq	r0, r0, r8, lsr r1
 338:	047b0002 	ldrbteq	r0, [fp], #-2
	...
 344:	00000138 	andeq	r0, r0, r8, lsr r1
 348:	0000013c 	andeq	r0, r0, ip, lsr r1
 34c:	007d0002 	rsbseq	r0, sp, r2
 350:	0000013c 	andeq	r0, r0, ip, lsr r1
 354:	00000140 	andeq	r0, r0, r0, asr #2
 358:	087d0002 	ldmdaeq	sp!, {r1}^
 35c:	00000140 	andeq	r0, r0, r0, asr #2
 360:	00000170 	andeq	r0, r0, r0, ror r1
 364:	047b0002 	ldrbteq	r0, [fp], #-2
	...
 370:	00000170 	andeq	r0, r0, r0, ror r1
 374:	00000174 	andeq	r0, r0, r4, ror r1
 378:	007d0002 	rsbseq	r0, sp, r2
 37c:	00000174 	andeq	r0, r0, r4, ror r1
 380:	00000178 	andeq	r0, r0, r8, ror r1
 384:	087d0002 	ldmdaeq	sp!, {r1}^
 388:	00000178 	andeq	r0, r0, r8, ror r1
 38c:	000001d0 	ldrdeq	r0, [r0], -r0	; <UNPREDICTABLE>
 390:	047b0002 	ldrbteq	r0, [fp], #-2
	...
 39c:	000001d0 	ldrdeq	r0, [r0], -r0	; <UNPREDICTABLE>
 3a0:	000001d4 	ldrdeq	r0, [r0], -r4
 3a4:	007d0002 	rsbseq	r0, sp, r2
 3a8:	000001d4 	ldrdeq	r0, [r0], -r4
 3ac:	000001d8 	ldrdeq	r0, [r0], -r8
 3b0:	047d0002 	ldrbteq	r0, [sp], #-2
 3b4:	000001d8 	ldrdeq	r0, [r0], -r8
 3b8:	00000258 	andeq	r0, r0, r8, asr r2
 3bc:	047b0002 	ldrbteq	r0, [fp], #-2
	...
 3c8:	00000258 	andeq	r0, r0, r8, asr r2
 3cc:	0000025c 	andeq	r0, r0, ip, asr r2
 3d0:	007d0002 	rsbseq	r0, sp, r2
 3d4:	0000025c 	andeq	r0, r0, ip, asr r2
 3d8:	00000260 	andeq	r0, r0, r0, ror #4
 3dc:	047d0002 	ldrbteq	r0, [sp], #-2
 3e0:	00000260 	andeq	r0, r0, r0, ror #4
 3e4:	000002ac 	andeq	r0, r0, ip, lsr #5
 3e8:	047b0002 	ldrbteq	r0, [fp], #-2
	...
 3f4:	000002ac 	andeq	r0, r0, ip, lsr #5
 3f8:	000002b0 			; <UNDEFINED> instruction: 0x000002b0
 3fc:	007d0002 	rsbseq	r0, sp, r2
 400:	000002b0 			; <UNDEFINED> instruction: 0x000002b0
 404:	000002b4 			; <UNDEFINED> instruction: 0x000002b4
 408:	047d0002 	ldrbteq	r0, [sp], #-2
 40c:	000002b4 			; <UNDEFINED> instruction: 0x000002b4
 410:	00000328 	andeq	r0, r0, r8, lsr #6
 414:	047b0002 	ldrbteq	r0, [fp], #-2
	...
 420:	00000328 	andeq	r0, r0, r8, lsr #6
 424:	0000032c 	andeq	r0, r0, ip, lsr #6
 428:	007d0002 	rsbseq	r0, sp, r2
 42c:	0000032c 	andeq	r0, r0, ip, lsr #6
 430:	00000330 	andeq	r0, r0, r0, lsr r3
 434:	047d0002 	ldrbteq	r0, [sp], #-2
 438:	00000330 	andeq	r0, r0, r0, lsr r3
 43c:	000003e8 	andeq	r0, r0, r8, ror #7
 440:	047b0002 	ldrbteq	r0, [fp], #-2
	...
 44c:	000003e8 	andeq	r0, r0, r8, ror #7
 450:	000003ec 	andeq	r0, r0, ip, ror #7
 454:	007d0002 	rsbseq	r0, sp, r2
 458:	000003ec 	andeq	r0, r0, ip, ror #7
 45c:	000003f0 	strdeq	r0, [r0], -r0	; <UNPREDICTABLE>
 460:	047d0002 	ldrbteq	r0, [sp], #-2
 464:	000003f0 	strdeq	r0, [r0], -r0	; <UNPREDICTABLE>
 468:	000004cc 	andeq	r0, r0, ip, asr #9
 46c:	047b0002 	ldrbteq	r0, [fp], #-2
	...
 478:	000004cc 	andeq	r0, r0, ip, asr #9
 47c:	000004d0 	ldrdeq	r0, [r0], -r0	; <UNPREDICTABLE>
 480:	007d0002 	rsbseq	r0, sp, r2
 484:	000004d0 	ldrdeq	r0, [r0], -r0	; <UNPREDICTABLE>
 488:	000004d4 	ldrdeq	r0, [r0], -r4
 48c:	047d0002 	ldrbteq	r0, [sp], #-2
 490:	000004d4 	ldrdeq	r0, [r0], -r4
 494:	000005e8 	andeq	r0, r0, r8, ror #11
 498:	047b0002 	ldrbteq	r0, [fp], #-2
	...
 4a4:	000005e8 	andeq	r0, r0, r8, ror #11
 4a8:	000005ec 	andeq	r0, r0, ip, ror #11
 4ac:	007d0002 	rsbseq	r0, sp, r2
 4b0:	000005ec 	andeq	r0, r0, ip, ror #11
 4b4:	000005f0 	strdeq	r0, [r0], -r0	; <UNPREDICTABLE>
 4b8:	047d0002 	ldrbteq	r0, [sp], #-2
 4bc:	000005f0 	strdeq	r0, [r0], -r0	; <UNPREDICTABLE>
 4c0:	00000668 	andeq	r0, r0, r8, ror #12
 4c4:	047b0002 	ldrbteq	r0, [fp], #-2
	...
 4d0:	00000668 	andeq	r0, r0, r8, ror #12
 4d4:	0000066c 	andeq	r0, r0, ip, ror #12
 4d8:	007d0002 	rsbseq	r0, sp, r2
 4dc:	0000066c 	andeq	r0, r0, ip, ror #12
 4e0:	00000670 	andeq	r0, r0, r0, ror r6
 4e4:	047d0002 	ldrbteq	r0, [sp], #-2
 4e8:	00000670 	andeq	r0, r0, r0, ror r6
 4ec:	000006f4 	strdeq	r0, [r0], -r4
 4f0:	047b0002 	ldrbteq	r0, [fp], #-2
	...
 4fc:	000006f4 	strdeq	r0, [r0], -r4
 500:	000006f8 	strdeq	r0, [r0], -r8
 504:	007d0002 	rsbseq	r0, sp, r2
 508:	000006f8 	strdeq	r0, [r0], -r8
 50c:	000006fc 	strdeq	r0, [r0], -ip
 510:	047d0002 	ldrbteq	r0, [sp], #-2
 514:	000006fc 	strdeq	r0, [r0], -ip
 518:	00000888 	andeq	r0, r0, r8, lsl #17
 51c:	047b0002 	ldrbteq	r0, [fp], #-2
	...
 528:	00000888 	andeq	r0, r0, r8, lsl #17
 52c:	0000088c 	andeq	r0, r0, ip, lsl #17
 530:	007d0002 	rsbseq	r0, sp, r2
 534:	0000088c 	andeq	r0, r0, ip, lsl #17
 538:	00000890 	muleq	r0, r0, r8
 53c:	047d0002 	ldrbteq	r0, [sp], #-2
 540:	00000890 	muleq	r0, r0, r8
 544:	00000988 	andeq	r0, r0, r8, lsl #19
 548:	047b0002 	ldrbteq	r0, [fp], #-2
	...
 554:	00000988 	andeq	r0, r0, r8, lsl #19
 558:	0000098c 	andeq	r0, r0, ip, lsl #19
 55c:	007d0002 	rsbseq	r0, sp, r2
 560:	0000098c 	andeq	r0, r0, ip, lsl #19
 564:	00000990 	muleq	r0, r0, r9
 568:	047d0002 	ldrbteq	r0, [sp], #-2
 56c:	00000990 	muleq	r0, r0, r9
 570:	00000a18 	andeq	r0, r0, r8, lsl sl
 574:	047b0002 	ldrbteq	r0, [fp], #-2
	...
 580:	00000a18 	andeq	r0, r0, r8, lsl sl
 584:	00000a1c 	andeq	r0, r0, ip, lsl sl
 588:	007d0002 	rsbseq	r0, sp, r2
 58c:	00000a1c 	andeq	r0, r0, ip, lsl sl
 590:	00000a20 	andeq	r0, r0, r0, lsr #20
 594:	047d0002 	ldrbteq	r0, [sp], #-2
 598:	00000a20 	andeq	r0, r0, r0, lsr #20
 59c:	00000afc 	strdeq	r0, [r0], -ip
 5a0:	047b0002 	ldrbteq	r0, [fp], #-2
	...
 5b0:	00000004 	andeq	r0, r0, r4
 5b4:	007d0002 	rsbseq	r0, sp, r2
 5b8:	00000004 	andeq	r0, r0, r4
 5bc:	00000008 	andeq	r0, r0, r8
 5c0:	047d0002 	ldrbteq	r0, [sp], #-2
 5c4:	00000008 	andeq	r0, r0, r8
 5c8:	00000014 	andeq	r0, r0, r4, lsl r0
 5cc:	047b0002 	ldrbteq	r0, [fp], #-2
	...
 5d8:	00000014 	andeq	r0, r0, r4, lsl r0
 5dc:	00000018 	andeq	r0, r0, r8, lsl r0
 5e0:	007d0002 	rsbseq	r0, sp, r2
 5e4:	00000018 	andeq	r0, r0, r8, lsl r0
 5e8:	0000001c 	andeq	r0, r0, ip, lsl r0
 5ec:	047d0002 	ldrbteq	r0, [sp], #-2
 5f0:	0000001c 	andeq	r0, r0, ip, lsl r0
 5f4:	0000006c 	andeq	r0, r0, ip, rrx
 5f8:	047b0002 	ldrbteq	r0, [fp], #-2
	...
 604:	0000006c 	andeq	r0, r0, ip, rrx
 608:	00000070 	andeq	r0, r0, r0, ror r0
 60c:	007d0002 	rsbseq	r0, sp, r2
 610:	00000070 	andeq	r0, r0, r0, ror r0
 614:	00000074 	andeq	r0, r0, r4, ror r0
 618:	047d0002 	ldrbteq	r0, [sp], #-2
 61c:	00000074 	andeq	r0, r0, r4, ror r0
 620:	000000a4 	andeq	r0, r0, r4, lsr #1
 624:	047b0002 	ldrbteq	r0, [fp], #-2
	...
 630:	000000a4 	andeq	r0, r0, r4, lsr #1
 634:	000000a8 	andeq	r0, r0, r8, lsr #1
 638:	007d0002 	rsbseq	r0, sp, r2
 63c:	000000a8 	andeq	r0, r0, r8, lsr #1
 640:	000000ac 	andeq	r0, r0, ip, lsr #1
 644:	087d0002 	ldmdaeq	sp!, {r1}^
 648:	000000ac 	andeq	r0, r0, ip, lsr #1
 64c:	00000148 	andeq	r0, r0, r8, asr #2
 650:	047b0002 	ldrbteq	r0, [fp], #-2
	...
 660:	00000004 	andeq	r0, r0, r4
 664:	007d0002 	rsbseq	r0, sp, r2
 668:	00000004 	andeq	r0, r0, r4
 66c:	00000008 	andeq	r0, r0, r8
 670:	047d0002 	ldrbteq	r0, [sp], #-2
 674:	00000008 	andeq	r0, r0, r8
 678:	0000002c 	andeq	r0, r0, ip, lsr #32
 67c:	047b0002 	ldrbteq	r0, [fp], #-2
	...
 688:	0000002c 	andeq	r0, r0, ip, lsr #32
 68c:	00000030 	andeq	r0, r0, r0, lsr r0
 690:	007d0002 	rsbseq	r0, sp, r2
 694:	00000030 	andeq	r0, r0, r0, lsr r0
 698:	00000034 	andeq	r0, r0, r4, lsr r0
 69c:	087d0002 	ldmdaeq	sp!, {r1}^
 6a0:	00000034 	andeq	r0, r0, r4, lsr r0
 6a4:	00000088 	andeq	r0, r0, r8, lsl #1
 6a8:	047b0002 	ldrbteq	r0, [fp], #-2
	...
 6b4:	00000088 	andeq	r0, r0, r8, lsl #1
 6b8:	0000008c 	andeq	r0, r0, ip, lsl #1
 6bc:	007d0002 	rsbseq	r0, sp, r2
 6c0:	0000008c 	andeq	r0, r0, ip, lsl #1
 6c4:	00000090 	muleq	r0, r0, r0
 6c8:	047d0002 	ldrbteq	r0, [sp], #-2
 6cc:	00000090 	muleq	r0, r0, r0
 6d0:	000000d0 	ldrdeq	r0, [r0], -r0	; <UNPREDICTABLE>
 6d4:	047b0002 	ldrbteq	r0, [fp], #-2
	...
 6e0:	000000d0 	ldrdeq	r0, [r0], -r0	; <UNPREDICTABLE>
 6e4:	000000d4 	ldrdeq	r0, [r0], -r4
 6e8:	007d0002 	rsbseq	r0, sp, r2
 6ec:	000000d4 	ldrdeq	r0, [r0], -r4
 6f0:	000000d8 	ldrdeq	r0, [r0], -r8
 6f4:	087d0002 	ldmdaeq	sp!, {r1}^
 6f8:	000000d8 	ldrdeq	r0, [r0], -r8
 6fc:	00000100 	andeq	r0, r0, r0, lsl #2
 700:	047b0002 	ldrbteq	r0, [fp], #-2
	...
 70c:	00000100 	andeq	r0, r0, r0, lsl #2
 710:	00000104 	andeq	r0, r0, r4, lsl #2
 714:	007d0002 	rsbseq	r0, sp, r2
 718:	00000104 	andeq	r0, r0, r4, lsl #2
 71c:	00000108 	andeq	r0, r0, r8, lsl #2
 720:	047d0002 	ldrbteq	r0, [sp], #-2
 724:	00000108 	andeq	r0, r0, r8, lsl #2
 728:	0000012c 	andeq	r0, r0, ip, lsr #2
 72c:	047b0002 	ldrbteq	r0, [fp], #-2
	...
 738:	0000012c 	andeq	r0, r0, ip, lsr #2
 73c:	00000130 	andeq	r0, r0, r0, lsr r1
 740:	007d0002 	rsbseq	r0, sp, r2
 744:	00000130 	andeq	r0, r0, r0, lsr r1
 748:	00000134 	andeq	r0, r0, r4, lsr r1
 74c:	047d0002 	ldrbteq	r0, [sp], #-2
 750:	00000134 	andeq	r0, r0, r4, lsr r1
 754:	00000174 	andeq	r0, r0, r4, ror r1
 758:	047b0002 	ldrbteq	r0, [fp], #-2
	...
 764:	00000174 	andeq	r0, r0, r4, ror r1
 768:	00000178 	andeq	r0, r0, r8, ror r1
 76c:	007d0002 	rsbseq	r0, sp, r2
 770:	00000178 	andeq	r0, r0, r8, ror r1
 774:	0000017c 	andeq	r0, r0, ip, ror r1
 778:	047d0002 	ldrbteq	r0, [sp], #-2
 77c:	0000017c 	andeq	r0, r0, ip, ror r1
 780:	000001a0 	andeq	r0, r0, r0, lsr #3
 784:	047b0002 	ldrbteq	r0, [fp], #-2
	...
 790:	000001a0 	andeq	r0, r0, r0, lsr #3
 794:	000001a4 	andeq	r0, r0, r4, lsr #3
 798:	007d0002 	rsbseq	r0, sp, r2
 79c:	000001a4 	andeq	r0, r0, r4, lsr #3
 7a0:	000001a8 	andeq	r0, r0, r8, lsr #3
 7a4:	047d0002 	ldrbteq	r0, [sp], #-2
 7a8:	000001a8 	andeq	r0, r0, r8, lsr #3
 7ac:	000001cc 	andeq	r0, r0, ip, asr #3
 7b0:	047b0002 	ldrbteq	r0, [fp], #-2
	...
 7bc:	000001cc 	andeq	r0, r0, ip, asr #3
 7c0:	000001d0 	ldrdeq	r0, [r0], -r0	; <UNPREDICTABLE>
 7c4:	007d0002 	rsbseq	r0, sp, r2
 7c8:	000001d0 	ldrdeq	r0, [r0], -r0	; <UNPREDICTABLE>
 7cc:	000001d4 	ldrdeq	r0, [r0], -r4
 7d0:	087d0002 	ldmdaeq	sp!, {r1}^
 7d4:	000001d4 	ldrdeq	r0, [r0], -r4
 7d8:	00000240 	andeq	r0, r0, r0, asr #4
 7dc:	047b0002 	ldrbteq	r0, [fp], #-2
	...
 7e8:	00000240 	andeq	r0, r0, r0, asr #4
 7ec:	00000244 	andeq	r0, r0, r4, asr #4
 7f0:	007d0002 	rsbseq	r0, sp, r2
 7f4:	00000244 	andeq	r0, r0, r4, asr #4
 7f8:	00000248 	andeq	r0, r0, r8, asr #4
 7fc:	087d0002 	ldmdaeq	sp!, {r1}^
 800:	00000248 	andeq	r0, r0, r8, asr #4
 804:	00000284 	andeq	r0, r0, r4, lsl #5
 808:	047b0002 	ldrbteq	r0, [fp], #-2
	...

Disassembly of section .debug_str:

00000000 <.debug_str>:
   0:	6e69616d 	powvsez	f6, f1, #5.0
   4:	4700632e 	strmi	r6, [r0, -lr, lsr #6]
   8:	4320554e 	teqmi	r0, #327155712	; 0x13800000
   c:	372e3420 	strcc	r3, [lr, -r0, lsr #8]!
  10:	6c00332e 	stcvs	3, cr3, [r0], {46}	; 0x2e
  14:	20676e6f 	rsbcs	r6, r7, pc, ror #28
  18:	676e6f6c 	strbvs	r6, [lr, -ip, ror #30]!
  1c:	736e7520 	cmnvc	lr, #32, 10	; 0x8000000
  20:	656e6769 	strbvs	r6, [lr, #-1897]!	; 0x769
  24:	6e692064 	cdpvs	0, 6, cr2, cr9, cr4, {3}
  28:	6e750074 	mrcvs	0, 3, r0, cr5, cr4, {3}
  2c:	6e676973 	mcrvs	9, 3, r6, cr7, cr3, {3}
  30:	63206465 	teqvs	r0, #1694498816	; 0x65000000
  34:	00726168 	rsbseq	r6, r2, r8, ror #2
  38:	6e69616d 	powvsez	f6, f1, #5.0
  3c:	6f682f00 	svcvs	0x00682f00
  40:	632f656d 	teqvs	pc, #457179136	; 0x1b400000
  44:	6f697361 	svcvs	0x00697361
  48:	6f6f776e 	svcvs	0x006f776e
  4c:	79686b2f 	stmdbvc	r8!, {r0, r1, r2, r3, r5, r8, r9, fp, sp, lr}^
  50:	76726570 			; <UNDEFINED> instruction: 0x76726570
  54:	726f7369 	rsbvc	r7, pc, #-1543503871	; 0xa4000001
  58:	616c702f 	cmnvs	ip, pc, lsr #32
  5c:	726f6674 	rsbvc	r6, pc, #116, 12	; 0x7400000
  60:	65642d6d 	strbvs	r2, [r4, #-3437]!	; 0xd6d
  64:	65636976 	strbvs	r6, [r3, #-2422]!	; 0x976
  68:	726f632f 	rsbvc	r6, pc, #-1140850688	; 0xbc000000
  6c:	5f786574 	svcpl	0x00786574
  70:	78353161 	ldmdavc	r5!, {r0, r5, r6, r8, ip, sp}
  74:	74725f32 	ldrbtvc	r5, [r2], #-3890	; 0xf32
  78:	672f6d73 			; <UNDEFINED> instruction: 0x672f6d73
  7c:	74736575 	ldrbtvc	r6, [r3], #-1397	; 0x575
  80:	622f736f 	eorvs	r7, pc, #-1140850687	; 0xbc000001
  84:	6575676d 	ldrbvs	r6, [r5, #-1901]!	; 0x76d
  88:	73007473 	movwvc	r7, #1139	; 0x473
  8c:	74726f68 	ldrbtvc	r6, [r2], #-3944	; 0xf68
  90:	736e7520 	cmnvc	lr, #32, 10	; 0x8000000
  94:	656e6769 	strbvs	r6, [lr, #-1897]!	; 0x769
  98:	6e692064 	cdpvs	0, 6, cr2, cr9, cr4, {3}
  9c:	2e2e0074 	mcrcs	0, 1, r0, cr14, cr4, {3}
  a0:	2f2e2e2f 	svccs	0x002e2e2f
  a4:	2e2f2e2e 	cdpcs	14, 2, cr2, cr15, cr14, {1}
  a8:	6f632f2e 	svcvs	0x00632f2e
  ac:	6e6f6d6d 	cdpvs	13, 6, cr6, cr15, cr13, {3}
  b0:	6575672f 	ldrbvs	r6, [r5, #-1839]!	; 0x72f
  b4:	632f7473 	teqvs	pc, #1929379840	; 0x73000000
  b8:	2f65726f 	svccs	0x0065726f
  bc:	74735f63 	ldrbtvc	r5, [r3], #-3939	; 0xf63
  c0:	2e747261 	cdpcs	2, 7, cr7, cr4, cr1, {3}
  c4:	726e0063 	rsbvc	r0, lr, #99	; 0x63
  c8:	65645f6d 	strbvs	r5, [r4, #-3949]!	; 0xf6d
  cc:	0079616c 	rsbseq	r6, r9, ip, ror #2
  d0:	5f6d726e 	svcpl	0x006d726e
  d4:	706f6f6c 	rsbvc	r6, pc, ip, ror #30
  d8:	78655f00 	stmdavc	r5!, {r8, r9, sl, fp, ip, lr}^
  dc:	74706563 	ldrbtvc	r6, [r0], #-1379	; 0x563
  e0:	686e755f 	stmdavs	lr!, {r0, r1, r2, r3, r4, r6, r8, sl, ip, sp, lr}^
  e4:	6c646e61 	stclvs	14, cr6, [r4], #-388	; 0xfffffe7c
  e8:	2e006465 	cdpcs	4, 0, cr6, cr0, cr5, {3}
  ec:	2e2e2f2e 	cdpcs	15, 2, cr2, cr14, cr14, {1}
  f0:	2f2e2e2f 	svccs	0x002e2e2f
  f4:	632f2e2e 	teqvs	pc, #736	; 0x2e0
  f8:	6f6d6d6f 	svcvs	0x006d6d6f
  fc:	75672f6e 	strbvc	r2, [r7, #-3950]!	; 0xf6e
 100:	2f747365 	svccs	0x00747365
 104:	65726f63 	ldrbvs	r6, [r2, #-3939]!	; 0xf63
 108:	6378652f 	cmnvs	r8, #197132288	; 0xbc00000
 10c:	69747065 	ldmdbvs	r4!, {r0, r2, r5, r6, ip, sp, lr}^
 110:	632e6e6f 	teqvs	lr, #1776	; 0x6f0
 114:	73706300 	cmnvc	r0, #0, 6
 118:	72610072 	rsbvc	r0, r1, #114	; 0x72
 11c:	725f6863 	subsvc	r6, pc, #6488064	; 0x630000
 120:	00736765 	rsbseq	r6, r3, r5, ror #14
 124:	6378655f 	cmnvs	r8, #398458880	; 0x17c00000
 128:	5f747065 	svcpl	0x00747065
 12c:	00717269 	rsbseq	r7, r1, r9, ror #4
 130:	657a6973 	ldrbvs	r6, [sl, #-2419]!	; 0x973
 134:	65707974 	ldrbvs	r7, [r0, #-2420]!	; 0x974
 138:	63696700 	cmnvs	r9, #0, 14
 13c:	746e695f 	strbtvc	r6, [lr], #-2399	; 0x95f
 140:	75727265 	ldrbvc	r7, [r2, #-613]!	; 0x265
 144:	5f007470 	svcpl	0x00007470
 148:	65637865 	strbvs	r7, [r3, #-2149]!	; 0x865
 14c:	735f7470 	cmpvc	pc, #112, 8	; 0x70000000
 150:	62006376 	andvs	r6, r0, #-671088639	; 0xd8000001
 154:	69675f61 	stmdbvs	r7!, {r0, r5, r6, r8, r9, sl, fp, ip, lr}^
 158:	62006363 	andvs	r6, r0, #-1946157055	; 0x8c000001
 15c:	69675f61 	stmdbvs	r7!, {r0, r5, r6, r8, r9, sl, fp, ip, lr}^
 160:	70006463 	andvc	r6, r0, r3, ror #8
 164:	61746164 	cmnvs	r4, r4, ror #2
 168:	706d7300 	rsbvc	r7, sp, r0, lsl #6
 16c:	6f72705f 	svcvs	0x0072705f
 170:	73736563 	cmnvc	r3, #415236096	; 0x18c00000
 174:	695f726f 	ldmdbvs	pc, {r0, r1, r2, r3, r5, r6, r9, ip, sp, lr}^	; <UNPREDICTABLE>
 178:	65720064 	ldrbvs	r0, [r2, #-100]!	; 0x64
 17c:	746c7573 	strbtvc	r7, [ip], #-1395	; 0x573
 180:	63696700 	cmnvs	r9, #0, 14
 184:	616e655f 	cmnvs	lr, pc, asr r5
 188:	5f656c62 	svcpl	0x00656c62
 18c:	00717269 	rsbseq	r7, r1, r9, ror #4
 190:	74696e69 	strbtvc	r6, [r9], #-3689	; 0xe69
 194:	696c6169 	stmdbvs	ip!, {r0, r3, r5, r6, r8, sp, lr}^
 198:	0064657a 	rsbeq	r6, r4, sl, ror r5
 19c:	4d4d5648 	stclmi	6, cr5, [sp, #-288]	; 0xfffffee0
 1a0:	4154535f 	cmpmi	r4, pc, asr r3
 1a4:	5f535554 	svcpl	0x00535554
 1a8:	5f544f4e 	svcpl	0x00544f4e
 1ac:	4e554f46 	cdpmi	15, 5, cr4, cr5, cr6, {2}
 1b0:	69670044 	stmdbvs	r7!, {r2, r6}^
 1b4:	69645f63 	stmdbvs	r4!, {r0, r1, r5, r6, r8, r9, sl, fp, ip, lr}^
 1b8:	6c626173 	stfvse	f6, [r2], #-460	; 0xfffffe34
 1bc:	72695f65 	rsbvc	r5, r9, #404	; 0x194
 1c0:	56480071 			; <UNDEFINED> instruction: 0x56480071
 1c4:	535f4d4d 	cmppl	pc, #4928	; 0x1340
 1c8:	55544154 	ldrbpl	r4, [r4, #-340]	; 0x154
 1cc:	55535f53 	ldrbpl	r5, [r3, #-3923]	; 0xf53
 1d0:	53454343 	movtpl	r4, #21315	; 0x5343
 1d4:	69670053 	stmdbvs	r7!, {r0, r1, r4, r6}^
 1d8:	75645f63 	strbvc	r5, [r4, #-3939]!	; 0xf63
 1dc:	725f706d 	subsvc	r7, pc, #109	; 0x6d
 1e0:	73696765 	cmnvc	r9, #26476544	; 0x1940000
 1e4:	73726574 	cmnvc	r2, #116, 10	; 0x1d000000
 1e8:	6e696c00 	cdpvs	12, 6, cr6, cr9, cr0, {0}
 1ec:	72007365 	andvc	r7, r0, #-1811939327	; 0x94000001
 1f0:	006c6176 	rsbeq	r6, ip, r6, ror r1
 1f4:	4d4d5648 	stclmi	6, cr5, [sp, #-288]	; 0xfffffee0
 1f8:	4154535f 	cmpmi	r4, pc, asr r3
 1fc:	5f535554 	svcpl	0x00535554
 200:	5f444142 	svcpl	0x00444142
 204:	45434341 	strbmi	r4, [r3, #-833]	; 0x341
 208:	5f005353 	svcpl	0x00005353
 20c:	00636967 	rsbeq	r6, r3, r7, ror #18
 210:	2e2f2e2e 	cdpcs	14, 2, cr2, cr15, cr14, {1}
 214:	2e2e2f2e 	cdpcs	15, 2, cr2, cr14, cr14, {1}
 218:	2f2e2e2f 	svccs	0x002e2e2f
 21c:	6d6d6f63 	stclvs	15, cr6, [sp, #-396]!	; 0xfffffe74
 220:	672f6e6f 	strvs	r6, [pc, -pc, ror #28]!
 224:	74736575 	ldrbtvc	r6, [r3], #-1397	; 0x575
 228:	726f632f 	rsbvc	r6, pc, #-1140850688	; 0xbc000000
 22c:	69672f65 	stmdbvs	r7!, {r0, r2, r5, r6, r8, r9, sl, fp, sp}^
 230:	00632e63 	rsbeq	r2, r3, r3, ror #28
 234:	5f636967 	svcpl	0x00636967
 238:	74696e69 	strbtvc	r6, [r9], #-3689	; 0xe69
 23c:	63696700 	cmnvs	r9, #0, 14
 240:	7465735f 	strbtvc	r7, [r5], #-863	; 0x35f
 244:	7172695f 	cmnvc	r2, pc, asr r9
 248:	6e61685f 	mcrvs	8, 3, r6, cr1, cr15, {2}
 24c:	72656c64 	rsbvc	r6, r5, #100, 24	; 0x6400
 250:	5f617600 	svcpl	0x00617600
 254:	65736162 	ldrbvs	r6, [r3, #-354]!	; 0x162
 258:	6e697500 	cdpvs	5, 6, cr7, cr9, cr0, {0}
 25c:	745f3874 	ldrbvc	r3, [pc], #-2164	; 264 <GUEST_OFFSET-0x7ffffd9c>
 260:	63696700 	cmnvs	r9, #0, 14
 264:	696e695f 	stmdbvs	lr!, {r0, r1, r2, r3, r4, r6, r8, fp, sp, lr}^
 268:	61625f74 	smcvs	9716	; 0x25f4
 26c:	64616573 	strbtvs	r6, [r1], #-1395	; 0x573
 270:	68007264 	stmdavs	r0, {r2, r5, r6, r9, ip, sp, lr}
 274:	5f6d6d76 	svcpl	0x006d6d76
 278:	74617473 	strbtvc	r7, [r1], #-1139	; 0x473
 27c:	745f7375 	ldrbvc	r7, [pc], #-885	; 284 <GUEST_OFFSET-0x7ffffd7c>
 280:	63696700 	cmnvs	r9, #0, 14
 284:	7172695f 	cmnvc	r2, pc, asr r9
 288:	6e61685f 	mcrvs	8, 3, r6, cr1, cr15, {2}
 28c:	72656c64 	rsbvc	r6, r5, #100, 24	; 0x6400
 290:	6800745f 	stmdavs	r0, {r0, r1, r2, r3, r4, r6, sl, ip, sp, lr}
 294:	6c646e61 	stclvs	14, cr6, [r4], #-388	; 0xfffffe7c
 298:	00737265 	rsbseq	r7, r3, r5, ror #4
 29c:	65725f73 	ldrbvs	r5, [r2, #-3955]!	; 0xf73
 2a0:	6d003867 	stcvs	8, cr3, [r0, #-412]	; 0xfffffe64
 2a4:	00726469 	rsbseq	r6, r2, r9, ror #8
 2a8:	4d4d5648 	stclmi	6, cr5, [sp, #-288]	; 0xfffffee0
 2ac:	4154535f 	cmpmi	r4, pc, asr r3
 2b0:	5f535554 	svcpl	0x00535554
 2b4:	4f4e4749 	svcmi	0x004e4749
 2b8:	00444552 	subeq	r4, r4, r2, asr r5
 2bc:	4d4d5648 	stclmi	6, cr5, [sp, #-288]	; 0xfffffee0
 2c0:	4154535f 	cmpmi	r4, pc, asr r3
 2c4:	5f535554 	svcpl	0x00535554
 2c8:	59535542 	ldmdbpl	r3, {r1, r6, r8, sl, ip, lr}^
 2cc:	4d564800 	ldclmi	8, cr4, [r6, #-0]
 2d0:	54535f4d 	ldrbpl	r5, [r3], #-3917	; 0xf4d
 2d4:	53555441 	cmppl	r5, #1090519040	; 0x41000000
 2d8:	4b4e555f 	blmi	139585c <GUEST_OFFSET-0x7ec6a7a4>
 2dc:	4e574f4e 	cdpmi	15, 5, cr4, cr7, cr14, {2}
 2e0:	5252455f 	subspl	r4, r2, #398458880	; 0x17c00000
 2e4:	4800524f 	stmdami	r0, {r0, r1, r2, r3, r6, r9, ip, lr}
 2e8:	5f4d4d56 	svcpl	0x004d4d56
 2ec:	54415453 	strbpl	r5, [r1], #-1107	; 0x453
 2f0:	555f5355 	ldrbpl	r5, [pc, #-853]	; ffffffa3 <guest_stacklimit+0x6fffffa3>
 2f4:	5055534e 	subspl	r5, r5, lr, asr #6
 2f8:	54524f50 	ldrbpl	r4, [r2], #-3920	; 0xf50
 2fc:	465f4445 	ldrbmi	r4, [pc], -r5, asr #8
 300:	55544145 	ldrbpl	r4, [r4, #-325]	; 0x145
 304:	75004552 	strvc	r4, [r0, #-1362]	; 0x552
 308:	33746e69 	cmncc	r4, #1680	; 0x690
 30c:	00745f32 	rsbseq	r5, r4, r2, lsr pc
 310:	67657270 			; <UNDEFINED> instruction: 0x67657270
 314:	70630073 	rsbvc	r0, r3, r3, ror r0
 318:	68007375 	stmdavs	r0, {r0, r2, r4, r5, r6, r8, r9, ip, sp, lr}
 31c:	5f6d6d76 	svcpl	0x006d6d76
 320:	74617473 	strbtvc	r7, [r1], #-1139	; 0x473
 324:	67007375 	smlsdxvs	r0, r5, r3, r7
 328:	745f6369 	ldrbvc	r6, [pc], #-873	; 330 <GUEST_OFFSET-0x7ffffcd0>
 32c:	5f747365 	svcpl	0x00747365
 330:	76656476 			; <UNDEFINED> instruction: 0x76656476
 334:	6363615f 	cmnvs	r3, #-1073741801	; 0xc0000017
 338:	00737365 	rsbseq	r7, r3, r5, ror #6
 33c:	5f676572 	svcpl	0x00676572
 340:	65720062 	ldrbvs	r0, [r2, #-98]!	; 0x62
 344:	00635f67 	rsbeq	r5, r3, r7, ror #30
 348:	74736574 	ldrbtvc	r6, [r3], #-1396	; 0x574
 34c:	6564765f 	strbvs	r7, [r4, #-1631]!	; 0x65f
 350:	61735f76 	cmnvs	r3, r6, ror pc
 354:	656c706d 	strbvs	r7, [ip, #-109]!	; 0x6d
 358:	67657200 	strbvs	r7, [r5, -r0, lsl #4]!
 35c:	2e00615f 	mcrcs	1, 0, r6, cr0, cr15, {2}
 360:	2e2e2f2e 	cdpcs	15, 2, cr2, cr14, cr14, {1}
 364:	2f2e2e2f 	svccs	0x002e2e2f
 368:	632f2e2e 	teqvs	pc, #736	; 0x2e0
 36c:	6f6d6d6f 	svcvs	0x006d6d6f
 370:	75672f6e 	strbvc	r2, [r7, #-3950]!	; 0xf6e
 374:	2f747365 	svccs	0x00747365
 378:	74736574 	ldrbtvc	r6, [r3], #-1396	; 0x574
 37c:	7365742f 	cmnvc	r5, #788529152	; 0x2f000000
 380:	64765f74 	ldrbtvs	r5, [r6], #-3956	; 0xf74
 384:	735f7665 	cmpvc	pc, #105906176	; 0x6500000
 388:	6c706d61 	ldclvs	13, cr6, [r0], #-388	; 0xfffffe7c
 38c:	00632e65 	rsbeq	r2, r3, r5, ror #28
 390:	6d697476 	cfstrdvs	mvd7, [r9, #-472]!	; 0xfffffe28
 394:	6d5f7265 	lfmvs	f7, 2, [pc, #-404]	; 208 <GUEST_OFFSET-0x7ffffdf8>
 398:	006b7361 	rsbeq	r7, fp, r1, ror #6
 39c:	2e2f2e2e 	cdpcs	14, 2, cr2, cr15, cr14, {1}
 3a0:	2e2e2f2e 	cdpcs	15, 2, cr2, cr14, cr14, {1}
 3a4:	2f2e2e2f 	svccs	0x002e2e2f
 3a8:	6d6d6f63 	stclvs	15, cr6, [sp, #-396]!	; 0xfffffe74
 3ac:	672f6e6f 	strvs	r6, [pc, -pc, ror #28]!
 3b0:	74736575 	ldrbtvc	r6, [r3], #-1397	; 0x575
 3b4:	7365742f 	cmnvc	r5, #788529152	; 0x2f000000
 3b8:	65742f74 	ldrbvs	r2, [r4, #-3956]!	; 0xf74
 3bc:	765f7473 			; <UNDEFINED> instruction: 0x765f7473
 3c0:	656d6974 	strbvs	r6, [sp, #-2420]!	; 0x974
 3c4:	00632e72 	rsbeq	r2, r3, r2, ror lr
 3c8:	72735f5f 	rsbsvc	r5, r3, #380	; 0x17c
 3cc:	69730063 	ldmdbvs	r3!, {r0, r1, r5, r6}^
 3d0:	745f657a 	ldrbvc	r6, [pc], #-1402	; 3d8 <GUEST_OFFSET-0x7ffffc28>
 3d4:	6d656d00 	stclvs	13, cr6, [r5, #-0]
 3d8:	00706d63 	rsbseq	r6, r0, r3, ror #26
 3dc:	6d6d656d 	cfstr64vs	mvdx6, [sp, #-436]!	; 0xfffffe4c
 3e0:	0065766f 	rsbeq	r7, r5, pc, ror #12
 3e4:	65645f5f 	strbvs	r5, [r4, #-3935]!	; 0xf5f
 3e8:	6d007473 	cfstrsvs	mvf7, [r0, #-460]	; 0xfffffe34
 3ec:	68636d65 	stmdavs	r3!, {r0, r2, r5, r6, r8, sl, fp, sp, lr}^
 3f0:	74730072 	ldrbtvc	r0, [r3], #-114	; 0x72
 3f4:	72686372 	rsbvc	r6, r8, #-939524095	; 0xc8000001
 3f8:	72747300 	rsbsvc	r7, r4, #0, 6
 3fc:	006e656c 	rsbeq	r6, lr, ip, ror #10
 400:	5f6d7261 	svcpl	0x006d7261
 404:	73786568 	cmnvc	r8, #104, 10	; 0x1a000000
 408:	75327274 	ldrvc	r7, [r2, #-628]!	; 0x274
 40c:	00746e69 	rsbseq	r6, r4, r9, ror #28
 410:	63727473 	cmnvs	r2, #1929379840	; 0x73000000
 414:	73007970 	movwvc	r7, #2416	; 0x970
 418:	61637274 	smcvs	14116	; 0x3724
 41c:	656d0074 	strbvs	r0, [sp, #-116]!	; 0x74
 420:	7465736d 	strbtvc	r7, [r5], #-877	; 0x36d
 424:	6d5f5f00 	ldclvs	15, cr5, [pc, #-0]	; 42c <GUEST_OFFSET-0x7ffffbd4>
 428:	6f6d6d65 	svcvs	0x006d6d65
 42c:	645f6576 	ldrbvs	r6, [pc], #-1398	; 434 <GUEST_OFFSET-0x7ffffbcc>
 430:	006e776f 	rsbeq	r7, lr, pc, ror #14
 434:	5f6d7261 	svcpl	0x006d7261
 438:	746e6975 	strbtvc	r6, [lr], #-2421	; 0x975
 43c:	78656832 	stmdavc	r5!, {r1, r4, r5, fp, sp, lr}^
 440:	00727473 	rsbseq	r7, r2, r3, ror r4
 444:	756e696d 	strbvc	r6, [lr, #-2413]!	; 0x96d
 448:	65680073 	strbvs	r0, [r8, #-115]!	; 0x73
 44c:	61686378 	smcvs	34360	; 0x8638
 450:	61007372 	tstvs	r0, r2, ror r3
 454:	735f6d72 	cmpvc	pc, #7296	; 0x1c80
 458:	69327274 	ldmdbvs	r2!, {r2, r4, r5, r6, r9, ip, sp, lr}
 45c:	5f00746e 	svcpl	0x0000746e
 460:	6d656d5f 	stclvs	13, cr6, [r5, #-380]!	; 0xfffffe84
 464:	65766f6d 	ldrbvs	r6, [r6, #-3949]!	; 0xf6d
 468:	0070755f 	rsbseq	r7, r0, pc, asr r5
 46c:	63727473 	cmnvs	r2, #1929379840	; 0x73000000
 470:	6d00706d 	stcvs	0, cr7, [r0, #-436]	; 0xfffffe4c
 474:	70636d65 	rsbvc	r6, r3, r5, ror #26
 478:	74730079 	ldrbtvc	r0, [r3], #-121	; 0x79
 47c:	6d636e72 	stclvs	14, cr6, [r3, #-456]!	; 0xfffffe38
 480:	6f630070 	svcvs	0x00630070
 484:	00746e75 	rsbseq	r6, r4, r5, ror lr
 488:	2e2f2e2e 	cdpcs	14, 2, cr2, cr15, cr14, {1}
 48c:	2e2e2f2e 	cdpcs	15, 2, cr2, cr14, cr14, {1}
 490:	2f2e2e2f 	svccs	0x002e2e2f
 494:	6d6d6f63 	stclvs	15, cr6, [sp, #-396]!	; 0xfffffe74
 498:	6c2f6e6f 	stcvs	14, cr6, [pc], #-444	; 2e4 <GUEST_OFFSET-0x7ffffd1c>
 49c:	732f676f 	teqvc	pc, #29097984	; 0x1bc0000
 4a0:	6e697274 	mcrvs	2, 3, r7, cr9, cr4, {3}
 4a4:	00632e67 	rsbeq	r2, r3, r7, ror #28
 4a8:	74726175 	ldrbtvc	r6, [r2], #-373	; 0x175
 4ac:	6972705f 	ldmdbvs	r2!, {r0, r1, r2, r3, r4, r6, ip, sp, lr}^
 4b0:	7500746e 	strvc	r7, [r0, #-1134]	; 0x46e
 4b4:	5f747261 	svcpl	0x00747261
 4b8:	74696e69 	strbtvc	r6, [r9], #-3689	; 0xe69
 4bc:	41557000 	cmpmi	r5, r0
 4c0:	75005452 	strvc	r5, [r0, #-1106]	; 0x452
 4c4:	5f747261 	svcpl	0x00747261
 4c8:	63747570 	cmnvs	r4, #112, 10	; 0x1c000000
 4cc:	69726400 	ldmdbvs	r2!, {sl, sp, lr}^
 4d0:	73726576 	cmnvc	r2, #494927872	; 0x1d800000
 4d4:	7261752f 	rsbvc	r7, r1, #197132288	; 0xbc00000
 4d8:	00632e74 	rsbeq	r2, r3, r4, ror lr
 4dc:	6d75645f 	cfldrdvs	mvd6, [r5, #-380]!	; 0xfffffe84
 4e0:	625f796d 	subsvs	r7, pc, #1785856	; 0x1b4000
 4e4:	00657479 	rsbeq	r7, r5, r9, ror r4
 4e8:	74726175 	ldrbtvc	r6, [r2], #-373	; 0x175
 4ec:	6972705f 	ldmdbvs	r2!, {r0, r1, r2, r3, r4, r6, ip, sp, lr}^
 4f0:	685f746e 	ldmdavs	pc, {r1, r2, r3, r5, r6, sl, ip, sp, lr}^	; <UNPREDICTABLE>
 4f4:	32337865 	eorscc	r7, r3, #6619136	; 0x650000
 4f8:	73616d00 	cmnvc	r1, #0, 26
 4fc:	7300386b 	movwvc	r3, #2155	; 0x86b
 500:	34303870 	ldrtcc	r3, [r0], #-2160	; 0x870
 504:	696e695f 	stmdbvs	lr!, {r0, r1, r2, r3, r4, r6, r8, fp, sp, lr}^
 508:	70730074 	rsbsvc	r0, r3, r4, ror r0
 50c:	5f343038 	svcpl	0x00343038
 510:	72617473 	rsbvc	r7, r1, #1929379840	; 0x73000000
 514:	70730074 	rsbsvc	r0, r3, r4, ror r0
 518:	5f343038 	svcpl	0x00343038
 51c:	5f717269 	svcpl	0x00717269
 520:	61656c63 	cmnvs	r5, r3, ror #24
 524:	70730072 	rsbsvc	r0, r3, r2, ror r0
 528:	5f343038 	svcpl	0x00343038
 52c:	65736162 	ldrbvs	r6, [r3, #-354]!	; 0x162
 530:	616f6c00 	cmnvs	pc, r0, lsl #24
 534:	61765f64 	cmnvs	r6, r4, ror #30
 538:	0065756c 	rsbeq	r7, r5, ip, ror #10
 53c:	76697264 	strbtvc	r7, [r9], -r4, ror #4
 540:	2f737265 	svccs	0x00737265
 544:	30387073 	eorscc	r7, r8, r3, ror r0
 548:	69745f34 	ldmdbvs	r4!, {r2, r4, r5, r8, r9, sl, fp, ip, lr}^
 54c:	2e72656d 	cdpcs	5, 7, cr6, cr2, cr13, {3}
 550:	70730063 	rsbsvc	r0, r3, r3, rrx
 554:	5f343038 	svcpl	0x00343038
 558:	74696e69 	strbtvc	r6, [r9], #-3689	; 0xe69
 55c:	656e6f5f 	strbvs	r6, [lr, #-3935]!	; 0xf5f
 560:	746f6873 	strbtvc	r6, [pc], #-2163	; 568 <GUEST_OFFSET-0x7ffffa98>
 564:	38707300 	ldmdacc	r0!, {r8, r9, ip, sp, lr}^
 568:	735f3430 	cmpvc	pc, #48, 8	; 0x30000000
 56c:	00706f74 	rsbseq	r6, r0, r4, ror pc
 570:	64696d76 	strbtvs	r6, [r9], #-3446	; 0xd76
 574:	746e6900 	strbtvc	r6, [lr], #-2304	; 0x900
 578:	75727265 	ldrbvc	r7, [r2, #-613]!	; 0x265
 57c:	735f7470 	cmpvc	pc, #112, 8	; 0x70000000
 580:	34303870 	ldrtcc	r3, [r0], #-2160	; 0x870
 584:	6d69745f 	cfstrdvs	mvd7, [r9, #-380]!	; 0xfffffe84
 588:	73007265 	movwvc	r7, #613	; 0x265
 58c:	34303870 	ldrtcc	r3, [r0], #-2160	; 0x870
 590:	6165725f 	cmnvs	r5, pc, asr r2
 594:	76680064 	strbtvc	r0, [r8], -r4, rrx
 598:	745f6d6d 	ldrbvc	r6, [pc], #-3437	; 5a0 <GUEST_OFFSET-0x7ffffa60>
 59c:	73747365 	cmnvc	r4, #-1811939327	; 0x94000001
 5a0:	3870735f 	ldmdacc	r0!, {r0, r1, r2, r3, r4, r6, r8, r9, ip, sp, lr}^
 5a4:	745f3430 	ldrbvc	r3, [pc], #-1072	; 5ac <GUEST_OFFSET-0x7ffffa54>
 5a8:	72656d69 	rsbvc	r6, r5, #6720	; 0x1a40
 5ac:	38707300 	ldmdacc	r0!, {r8, r9, ip, sp, lr}^
 5b0:	695f3430 	ldmdbvs	pc, {r4, r5, sl, ip, sp}^	; <UNPREDICTABLE>
 5b4:	5f74696e 	svcpl	0x0074696e
 5b8:	69726570 	ldmdbvs	r2!, {r4, r5, r6, r8, sl, sp, lr}^
 5bc:	6369646f 	cmnvs	r9, #1862270976	; 0x6f000000
 5c0:	38707300 	ldmdacc	r0!, {r8, r9, ip, sp, lr}^
 5c4:	6c5f3430 	cfldrdvs	mvd3, [pc], {48}	; 0x30
 5c8:	0064616f 	rsbeq	r6, r4, pc, ror #2
 5cc:	64616f6c 	strbtvs	r6, [r1], #-3948	; 0xf6c
 5d0:	006c6176 	rsbeq	r6, ip, r6, ror r1
 5d4:	75706376 	ldrbvc	r6, [r0, #-886]!	; 0x376
 5d8:	745f6469 	ldrbvc	r6, [pc], #-1129	; 5e0 <GUEST_OFFSET-0x7ffffa20>
	...

Disassembly of section .debug_frame:

00000000 <.debug_frame>:
   0:	0000000c 	andeq	r0, r0, ip
   4:	ffffffff 			; <UNDEFINED> instruction: 0xffffffff
   8:	7c020001 	stcvc	0, cr0, [r2], {1}
   c:	000d0c0e 	andeq	r0, sp, lr, lsl #24
  10:	00000018 	andeq	r0, r0, r8, lsl r0
  14:	00000000 	andeq	r0, r0, r0
  18:	80000004 	andhi	r0, r0, r4
  1c:	00000024 	andeq	r0, r0, r4, lsr #32
  20:	8b080e42 	blhi	203930 <GUEST_OFFSET-0x7fdfc6d0>
  24:	42018e02 	andmi	r8, r1, #2, 28
  28:	00040b0c 	andeq	r0, r4, ip, lsl #22
  2c:	0000000c 	andeq	r0, r0, ip
  30:	ffffffff 			; <UNDEFINED> instruction: 0xffffffff
  34:	7c020001 	stcvc	0, cr0, [r2], {1}
  38:	000d0c0e 	andeq	r0, sp, lr, lsl #24
  3c:	00000014 	andeq	r0, r0, r4, lsl r0
  40:	0000002c 	andeq	r0, r0, ip, lsr #32
  44:	80000028 	andhi	r0, r0, r8, lsr #32
  48:	00000048 	andeq	r0, r0, r8, asr #32
  4c:	8b040e42 	blhi	10395c <GUEST_OFFSET-0x7fefc6a4>
  50:	0b0d4201 	bleq	35085c <GUEST_OFFSET-0x7fcaf7a4>
  54:	00000018 	andeq	r0, r0, r8, lsl r0
  58:	0000002c 	andeq	r0, r0, ip, lsr #32
  5c:	80000070 	andhi	r0, r0, r0, ror r0
  60:	0000014c 	andeq	r0, r0, ip, asr #2
  64:	8b080e42 	blhi	203974 <GUEST_OFFSET-0x7fdfc68c>
  68:	42018e02 	andmi	r8, r1, #2, 28
  6c:	00040b0c 	andeq	r0, r4, ip, lsl #22
  70:	0000000c 	andeq	r0, r0, ip
  74:	ffffffff 			; <UNDEFINED> instruction: 0xffffffff
  78:	7c020001 	stcvc	0, cr0, [r2], {1}
  7c:	000d0c0e 	andeq	r0, sp, lr, lsl #24
  80:	00000014 	andeq	r0, r0, r4, lsl r0
  84:	00000070 	andeq	r0, r0, r0, ror r0
  88:	800001bc 			; <UNDEFINED> instruction: 0x800001bc
  8c:	0000001c 	andeq	r0, r0, ip, lsl r0
  90:	8b040e42 	blhi	1039a0 <GUEST_OFFSET-0x7fefc660>
  94:	0b0d4201 	bleq	3508a0 <GUEST_OFFSET-0x7fcaf760>
  98:	00000014 	andeq	r0, r0, r4, lsl r0
  9c:	00000070 	andeq	r0, r0, r0, ror r0
  a0:	800001d8 	ldrdhi	r0, [r0], -r8
  a4:	0000001c 	andeq	r0, r0, ip, lsl r0
  a8:	8b040e42 	blhi	1039b8 <GUEST_OFFSET-0x7fefc648>
  ac:	0b0d4201 	bleq	3508b8 <GUEST_OFFSET-0x7fcaf748>
  b0:	00000018 	andeq	r0, r0, r8, lsl r0
  b4:	00000070 	andeq	r0, r0, r0, ror r0
  b8:	800001f4 	strdhi	r0, [r0], -r4
  bc:	00000024 	andeq	r0, r0, r4, lsr #32
  c0:	8b080e42 	blhi	2039d0 <GUEST_OFFSET-0x7fdfc630>
  c4:	42018e02 	andmi	r8, r1, #2, 28
  c8:	00040b0c 	andeq	r0, r4, ip, lsl #22
  cc:	0000000c 	andeq	r0, r0, ip
  d0:	ffffffff 			; <UNDEFINED> instruction: 0xffffffff
  d4:	7c020001 	stcvc	0, cr0, [r2], {1}
  d8:	000d0c0e 	andeq	r0, sp, lr, lsl #24
  dc:	00000018 	andeq	r0, r0, r8, lsl r0
  e0:	000000cc 	andeq	r0, r0, ip, asr #1
  e4:	80000218 	andhi	r0, r0, r8, lsl r2
  e8:	0000002c 	andeq	r0, r0, ip, lsr #32
  ec:	84080e42 	strhi	r0, [r8], #-3650	; 0xe42
  f0:	42018b02 	andmi	r8, r1, #2048	; 0x800
  f4:	00040b0c 	andeq	r0, r4, ip, lsl #22
  f8:	00000018 	andeq	r0, r0, r8, lsl r0
  fc:	000000cc 	andeq	r0, r0, ip, asr #1
 100:	80000244 	andhi	r0, r0, r4, asr #4
 104:	0000013c 	andeq	r0, r0, ip, lsr r1
 108:	8b080e42 	blhi	203a18 <GUEST_OFFSET-0x7fdfc5e8>
 10c:	42018e02 	andmi	r8, r1, #2, 28
 110:	00040b0c 	andeq	r0, r4, ip, lsl #22
 114:	0000001c 	andeq	r0, r0, ip, lsl r0
 118:	000000cc 	andeq	r0, r0, ip, asr #1
 11c:	80000380 	andhi	r0, r0, r0, lsl #7
 120:	0000024c 	andeq	r0, r0, ip, asr #4
 124:	840c0e42 	strhi	r0, [ip], #-3650	; 0xe42
 128:	8e028b03 	vmlahi.f64	d8, d2, d3
 12c:	0b0c4201 	bleq	310938 <GUEST_OFFSET-0x7fcef6c8>
 130:	00000004 	andeq	r0, r0, r4
 134:	0000001c 	andeq	r0, r0, ip, lsl r0
 138:	000000cc 	andeq	r0, r0, ip, asr #1
 13c:	800005cc 	andhi	r0, r0, ip, asr #11
 140:	0000010c 	andeq	r0, r0, ip, lsl #2
 144:	840c0e42 	strhi	r0, [ip], #-3650	; 0xe42
 148:	8e028b03 	vmlahi.f64	d8, d2, d3
 14c:	0b0c4201 	bleq	310958 <GUEST_OFFSET-0x7fcef6a8>
 150:	00000004 	andeq	r0, r0, r4
 154:	00000014 	andeq	r0, r0, r4, lsl r0
 158:	000000cc 	andeq	r0, r0, ip, asr #1
 15c:	800006d8 	ldrdhi	r0, [r0], -r8
 160:	00000058 	andeq	r0, r0, r8, asr r0
 164:	8b040e42 	blhi	103a74 <GUEST_OFFSET-0x7fefc58c>
 168:	0b0d4201 	bleq	350974 <GUEST_OFFSET-0x7fcaf68c>
 16c:	00000014 	andeq	r0, r0, r4, lsl r0
 170:	000000cc 	andeq	r0, r0, ip, asr #1
 174:	80000730 	andhi	r0, r0, r0, lsr r7
 178:	00000058 	andeq	r0, r0, r8, asr r0
 17c:	8b040e42 	blhi	103a8c <GUEST_OFFSET-0x7fefc574>
 180:	0b0d4201 	bleq	35098c <GUEST_OFFSET-0x7fcaf674>
 184:	00000014 	andeq	r0, r0, r4, lsl r0
 188:	000000cc 	andeq	r0, r0, ip, asr #1
 18c:	80000788 	andhi	r0, r0, r8, lsl #15
 190:	00000070 	andeq	r0, r0, r0, ror r0
 194:	8b040e42 	blhi	103aa4 <GUEST_OFFSET-0x7fefc55c>
 198:	0b0d4201 	bleq	3509a4 <GUEST_OFFSET-0x7fcaf65c>
 19c:	00000018 	andeq	r0, r0, r8, lsl r0
 1a0:	000000cc 	andeq	r0, r0, ip, asr #1
 1a4:	800007f8 	strdhi	r0, [r0], -r8
 1a8:	0000014c 	andeq	r0, r0, ip, asr #2
 1ac:	8b080e42 	blhi	203abc <GUEST_OFFSET-0x7fdfc544>
 1b0:	42018e02 	andmi	r8, r1, #2, 28
 1b4:	00040b0c 	andeq	r0, r4, ip, lsl #22
 1b8:	00000018 	andeq	r0, r0, r8, lsl r0
 1bc:	000000cc 	andeq	r0, r0, ip, asr #1
 1c0:	80000944 	andhi	r0, r0, r4, asr #18
 1c4:	0000015c 	andeq	r0, r0, ip, asr r1
 1c8:	8b080e42 	blhi	203ad8 <GUEST_OFFSET-0x7fdfc528>
 1cc:	42018e02 	andmi	r8, r1, #2, 28
 1d0:	00040b0c 	andeq	r0, r4, ip, lsl #22
 1d4:	0000000c 	andeq	r0, r0, ip
 1d8:	ffffffff 			; <UNDEFINED> instruction: 0xffffffff
 1dc:	7c020001 	stcvc	0, cr0, [r2], {1}
 1e0:	000d0c0e 	andeq	r0, sp, lr, lsl #24
 1e4:	00000018 	andeq	r0, r0, r8, lsl r0
 1e8:	000001d4 	ldrdeq	r0, [r0], -r4
 1ec:	80000aa0 	andhi	r0, r0, r0, lsr #21
 1f0:	00000174 	andeq	r0, r0, r4, ror r1
 1f4:	8b080e42 	blhi	203b04 <GUEST_OFFSET-0x7fdfc4fc>
 1f8:	42018e02 	andmi	r8, r1, #2, 28
 1fc:	00040b0c 	andeq	r0, r4, ip, lsl #22
 200:	0000000c 	andeq	r0, r0, ip
 204:	ffffffff 			; <UNDEFINED> instruction: 0xffffffff
 208:	7c020001 	stcvc	0, cr0, [r2], {1}
 20c:	000d0c0e 	andeq	r0, sp, lr, lsl #24
 210:	00000014 	andeq	r0, r0, r4, lsl r0
 214:	00000200 	andeq	r0, r0, r0, lsl #4
 218:	80000c14 	andhi	r0, r0, r4, lsl ip
 21c:	00000030 	andeq	r0, r0, r0, lsr r0
 220:	8b040e42 	blhi	103b30 <GUEST_OFFSET-0x7fefc4d0>
 224:	0b0d4201 	bleq	350a30 <GUEST_OFFSET-0x7fcaf5d0>
 228:	0000000c 	andeq	r0, r0, ip
 22c:	ffffffff 			; <UNDEFINED> instruction: 0xffffffff
 230:	7c020001 	stcvc	0, cr0, [r2], {1}
 234:	000d0c0e 	andeq	r0, sp, lr, lsl #24
 238:	00000014 	andeq	r0, r0, r4, lsl r0
 23c:	00000228 	andeq	r0, r0, r8, lsr #4
 240:	80000c44 	andhi	r0, r0, r4, asr #24
 244:	00000090 	muleq	r0, r0, r0
 248:	8b040e42 	blhi	103b58 <GUEST_OFFSET-0x7fefc4a8>
 24c:	0b0d4201 	bleq	350a58 <GUEST_OFFSET-0x7fcaf5a8>
 250:	00000014 	andeq	r0, r0, r4, lsl r0
 254:	00000228 	andeq	r0, r0, r8, lsr #4
 258:	80000cd4 	ldrdhi	r0, [r0], -r4
 25c:	000000a8 	andeq	r0, r0, r8, lsr #1
 260:	8b040e42 	blhi	103b70 <GUEST_OFFSET-0x7fefc490>
 264:	0b0d4201 	bleq	350a70 <GUEST_OFFSET-0x7fcaf590>
 268:	00000018 	andeq	r0, r0, r8, lsl r0
 26c:	00000228 	andeq	r0, r0, r8, lsr #4
 270:	80000d7c 	andhi	r0, r0, ip, ror sp
 274:	00000038 	andeq	r0, r0, r8, lsr r0
 278:	8b080e42 	blhi	203b88 <GUEST_OFFSET-0x7fdfc478>
 27c:	42018e02 	andmi	r8, r1, #2, 28
 280:	00040b0c 	andeq	r0, r4, ip, lsl #22
 284:	00000018 	andeq	r0, r0, r8, lsl r0
 288:	00000228 	andeq	r0, r0, r8, lsr #4
 28c:	80000db4 			; <UNDEFINED> instruction: 0x80000db4
 290:	00000060 	andeq	r0, r0, r0, rrx
 294:	8b080e42 	blhi	203ba4 <GUEST_OFFSET-0x7fdfc45c>
 298:	42018e02 	andmi	r8, r1, #2, 28
 29c:	00040b0c 	andeq	r0, r4, ip, lsl #22
 2a0:	00000014 	andeq	r0, r0, r4, lsl r0
 2a4:	00000228 	andeq	r0, r0, r8, lsr #4
 2a8:	80000e14 	andhi	r0, r0, r4, lsl lr
 2ac:	00000088 	andeq	r0, r0, r8, lsl #1
 2b0:	8b040e42 	blhi	103bc0 <GUEST_OFFSET-0x7fefc440>
 2b4:	0b0d4201 	bleq	350ac0 <GUEST_OFFSET-0x7fcaf540>
 2b8:	00000014 	andeq	r0, r0, r4, lsl r0
 2bc:	00000228 	andeq	r0, r0, r8, lsr #4
 2c0:	80000e9c 	mulhi	r0, ip, lr
 2c4:	00000054 	andeq	r0, r0, r4, asr r0
 2c8:	8b040e42 	blhi	103bd8 <GUEST_OFFSET-0x7fefc428>
 2cc:	0b0d4201 	bleq	350ad8 <GUEST_OFFSET-0x7fcaf528>
 2d0:	00000014 	andeq	r0, r0, r4, lsl r0
 2d4:	00000228 	andeq	r0, r0, r8, lsr #4
 2d8:	80000ef0 	strdhi	r0, [r0], -r0	; <UNPREDICTABLE>
 2dc:	0000007c 	andeq	r0, r0, ip, ror r0
 2e0:	8b040e42 	blhi	103bf0 <GUEST_OFFSET-0x7fefc410>
 2e4:	0b0d4201 	bleq	350af0 <GUEST_OFFSET-0x7fcaf510>
 2e8:	00000014 	andeq	r0, r0, r4, lsl r0
 2ec:	00000228 	andeq	r0, r0, r8, lsr #4
 2f0:	80000f6c 	andhi	r0, r0, ip, ror #30
 2f4:	000000c0 	andeq	r0, r0, r0, asr #1
 2f8:	8b040e42 	blhi	103c08 <GUEST_OFFSET-0x7fefc3f8>
 2fc:	0b0d4201 	bleq	350b08 <GUEST_OFFSET-0x7fcaf4f8>
 300:	00000014 	andeq	r0, r0, r4, lsl r0
 304:	00000228 	andeq	r0, r0, r8, lsr #4
 308:	8000102c 	andhi	r1, r0, ip, lsr #32
 30c:	000000e4 	andeq	r0, r0, r4, ror #1
 310:	8b040e42 	blhi	103c20 <GUEST_OFFSET-0x7fefc3e0>
 314:	0b0d4201 	bleq	350b20 <GUEST_OFFSET-0x7fcaf4e0>
 318:	00000014 	andeq	r0, r0, r4, lsl r0
 31c:	00000228 	andeq	r0, r0, r8, lsr #4
 320:	80001110 	andhi	r1, r0, r0, lsl r1
 324:	0000011c 	andeq	r0, r0, ip, lsl r1
 328:	8b040e42 	blhi	103c38 <GUEST_OFFSET-0x7fefc3c8>
 32c:	0b0d4201 	bleq	350b38 <GUEST_OFFSET-0x7fcaf4c8>
 330:	00000014 	andeq	r0, r0, r4, lsl r0
 334:	00000228 	andeq	r0, r0, r8, lsr #4
 338:	8000122c 	andhi	r1, r0, ip, lsr #4
 33c:	00000080 	andeq	r0, r0, r0, lsl #1
 340:	8b040e42 	blhi	103c50 <GUEST_OFFSET-0x7fefc3b0>
 344:	0b0d4201 	bleq	350b50 <GUEST_OFFSET-0x7fcaf4b0>
 348:	00000014 	andeq	r0, r0, r4, lsl r0
 34c:	00000228 	andeq	r0, r0, r8, lsr #4
 350:	800012ac 	andhi	r1, r0, ip, lsr #5
 354:	0000008c 	andeq	r0, r0, ip, lsl #1
 358:	8b040e42 	blhi	103c68 <GUEST_OFFSET-0x7fefc398>
 35c:	0b0d4201 	bleq	350b68 <GUEST_OFFSET-0x7fcaf498>
 360:	00000014 	andeq	r0, r0, r4, lsl r0
 364:	00000228 	andeq	r0, r0, r8, lsr #4
 368:	80001338 	andhi	r1, r0, r8, lsr r3
 36c:	00000194 	muleq	r0, r4, r1
 370:	8b040e42 	blhi	103c80 <GUEST_OFFSET-0x7fefc380>
 374:	0b0d4201 	bleq	350b80 <GUEST_OFFSET-0x7fcaf480>
 378:	00000014 	andeq	r0, r0, r4, lsl r0
 37c:	00000228 	andeq	r0, r0, r8, lsr #4
 380:	800014cc 	andhi	r1, r0, ip, asr #9
 384:	00000100 	andeq	r0, r0, r0, lsl #2
 388:	8b040e42 	blhi	103c98 <GUEST_OFFSET-0x7fefc368>
 38c:	0b0d4201 	bleq	350b98 <GUEST_OFFSET-0x7fcaf468>
 390:	00000014 	andeq	r0, r0, r4, lsl r0
 394:	00000228 	andeq	r0, r0, r8, lsr #4
 398:	800015cc 	andhi	r1, r0, ip, asr #11
 39c:	00000090 	muleq	r0, r0, r0
 3a0:	8b040e42 	blhi	103cb0 <GUEST_OFFSET-0x7fefc350>
 3a4:	0b0d4201 	bleq	350bb0 <GUEST_OFFSET-0x7fcaf450>
 3a8:	00000014 	andeq	r0, r0, r4, lsl r0
 3ac:	00000228 	andeq	r0, r0, r8, lsr #4
 3b0:	8000165c 	andhi	r1, r0, ip, asr r6
 3b4:	000000e4 	andeq	r0, r0, r4, ror #1
 3b8:	8b040e42 	blhi	103cc8 <GUEST_OFFSET-0x7fefc338>
 3bc:	0b0d4201 	bleq	350bc8 <GUEST_OFFSET-0x7fcaf438>
 3c0:	0000000c 	andeq	r0, r0, ip
 3c4:	ffffffff 			; <UNDEFINED> instruction: 0xffffffff
 3c8:	7c020001 	stcvc	0, cr0, [r2], {1}
 3cc:	000d0c0e 	andeq	r0, sp, lr, lsl #24
 3d0:	00000014 	andeq	r0, r0, r4, lsl r0
 3d4:	000003c0 	andeq	r0, r0, r0, asr #7
 3d8:	80001820 	andhi	r1, r0, r0, lsr #16
 3dc:	00000014 	andeq	r0, r0, r4, lsl r0
 3e0:	8b040e42 	blhi	103cf0 <GUEST_OFFSET-0x7fefc310>
 3e4:	0b0d4201 	bleq	350bf0 <GUEST_OFFSET-0x7fcaf410>
 3e8:	00000014 	andeq	r0, r0, r4, lsl r0
 3ec:	000003c0 	andeq	r0, r0, r0, asr #7
 3f0:	80001834 	andhi	r1, r0, r4, lsr r8
 3f4:	00000058 	andeq	r0, r0, r8, asr r0
 3f8:	8b040e42 	blhi	103d08 <GUEST_OFFSET-0x7fefc2f8>
 3fc:	0b0d4201 	bleq	350c08 <GUEST_OFFSET-0x7fcaf3f8>
 400:	00000014 	andeq	r0, r0, r4, lsl r0
 404:	000003c0 	andeq	r0, r0, r0, asr #7
 408:	8000188c 	andhi	r1, r0, ip, lsl #17
 40c:	00000038 	andeq	r0, r0, r8, lsr r0
 410:	8b040e42 	blhi	103d20 <GUEST_OFFSET-0x7fefc2e0>
 414:	0b0d4201 	bleq	350c20 <GUEST_OFFSET-0x7fcaf3e0>
 418:	00000018 	andeq	r0, r0, r8, lsl r0
 41c:	000003c0 	andeq	r0, r0, r0, asr #7
 420:	800018c4 	andhi	r1, r0, r4, asr #17
 424:	000000a4 	andeq	r0, r0, r4, lsr #1
 428:	8b080e42 	blhi	203d38 <GUEST_OFFSET-0x7fdfc2c8>
 42c:	42018e02 	andmi	r8, r1, #2, 28
 430:	00040b0c 	andeq	r0, r4, ip, lsl #22
 434:	0000000c 	andeq	r0, r0, ip
 438:	ffffffff 			; <UNDEFINED> instruction: 0xffffffff
 43c:	7c020001 	stcvc	0, cr0, [r2], {1}
 440:	000d0c0e 	andeq	r0, sp, lr, lsl #24
 444:	00000014 	andeq	r0, r0, r4, lsl r0
 448:	00000434 	andeq	r0, r0, r4, lsr r4
 44c:	80001968 	andhi	r1, r0, r8, ror #18
 450:	0000002c 	andeq	r0, r0, ip, lsr #32
 454:	8b040e42 	blhi	103d64 <GUEST_OFFSET-0x7fefc29c>
 458:	0b0d4201 	bleq	350c64 <GUEST_OFFSET-0x7fcaf39c>
 45c:	00000018 	andeq	r0, r0, r8, lsl r0
 460:	00000434 	andeq	r0, r0, r4, lsr r4
 464:	80001994 	mulhi	r0, r4, r9
 468:	0000005c 	andeq	r0, r0, ip, asr r0
 46c:	8b080e42 	blhi	203d7c <GUEST_OFFSET-0x7fdfc284>
 470:	42018e02 	andmi	r8, r1, #2, 28
 474:	00040b0c 	andeq	r0, r4, ip, lsl #22
 478:	00000014 	andeq	r0, r0, r4, lsl r0
 47c:	00000434 	andeq	r0, r0, r4, lsr r4
 480:	800019f0 	strdhi	r1, [r0], -r0
 484:	00000048 	andeq	r0, r0, r8, asr #32
 488:	8b040e42 	blhi	103d98 <GUEST_OFFSET-0x7fefc268>
 48c:	0b0d4201 	bleq	350c98 <GUEST_OFFSET-0x7fcaf368>
 490:	00000018 	andeq	r0, r0, r8, lsl r0
 494:	00000434 	andeq	r0, r0, r4, lsr r4
 498:	80001a38 	andhi	r1, r0, r8, lsr sl
 49c:	00000030 	andeq	r0, r0, r0, lsr r0
 4a0:	8b080e42 	blhi	203db0 <GUEST_OFFSET-0x7fdfc250>
 4a4:	42018e02 	andmi	r8, r1, #2, 28
 4a8:	00040b0c 	andeq	r0, r4, ip, lsl #22
 4ac:	00000014 	andeq	r0, r0, r4, lsl r0
 4b0:	00000434 	andeq	r0, r0, r4, lsr r4
 4b4:	80001a68 	andhi	r1, r0, r8, ror #20
 4b8:	0000002c 	andeq	r0, r0, ip, lsr #32
 4bc:	8b040e42 	blhi	103dcc <GUEST_OFFSET-0x7fefc234>
 4c0:	0b0d4201 	bleq	350ccc <GUEST_OFFSET-0x7fcaf334>
 4c4:	00000014 	andeq	r0, r0, r4, lsl r0
 4c8:	00000434 	andeq	r0, r0, r4, lsr r4
 4cc:	80001a94 	mulhi	r0, r4, sl
 4d0:	00000048 	andeq	r0, r0, r8, asr #32
 4d4:	8b040e42 	blhi	103de4 <GUEST_OFFSET-0x7fefc21c>
 4d8:	0b0d4201 	bleq	350ce4 <GUEST_OFFSET-0x7fcaf31c>
 4dc:	00000014 	andeq	r0, r0, r4, lsl r0
 4e0:	00000434 	andeq	r0, r0, r4, lsr r4
 4e4:	80001adc 	ldrdhi	r1, [r0], -ip
 4e8:	0000002c 	andeq	r0, r0, ip, lsr #32
 4ec:	8b040e42 	blhi	103dfc <GUEST_OFFSET-0x7fefc204>
 4f0:	0b0d4201 	bleq	350cfc <GUEST_OFFSET-0x7fcaf304>
 4f4:	00000014 	andeq	r0, r0, r4, lsl r0
 4f8:	00000434 	andeq	r0, r0, r4, lsr r4
 4fc:	80001b08 	andhi	r1, r0, r8, lsl #22
 500:	0000002c 	andeq	r0, r0, ip, lsr #32
 504:	8b040e42 	blhi	103e14 <GUEST_OFFSET-0x7fefc1ec>
 508:	0b0d4201 	bleq	350d14 <GUEST_OFFSET-0x7fcaf2ec>
 50c:	00000018 	andeq	r0, r0, r8, lsl r0
 510:	00000434 	andeq	r0, r0, r4, lsr r4
 514:	80001b34 	andhi	r1, r0, r4, lsr fp
 518:	00000074 	andeq	r0, r0, r4, ror r0
 51c:	8b080e42 	blhi	203e2c <GUEST_OFFSET-0x7fdfc1d4>
 520:	42018e02 	andmi	r8, r1, #2, 28
 524:	00040b0c 	andeq	r0, r4, ip, lsl #22
 528:	00000018 	andeq	r0, r0, r8, lsl r0
 52c:	00000434 	andeq	r0, r0, r4, lsr r4
 530:	80001ba8 	andhi	r1, r0, r8, lsr #23
 534:	00000044 	andeq	r0, r0, r4, asr #32
 538:	8b080e42 	blhi	203e48 <GUEST_OFFSET-0x7fdfc1b8>
 53c:	42018e02 	andmi	r8, r1, #2, 28
 540:	00040b0c 	andeq	r0, r4, ip, lsl #22
